
Memory Configuration

Name             Origin             Length             Attributes
*default*        0x0000000000000000 0xffffffffffffffff

Linker script and memory map


.text           0x0000000000000000      0x178
 *(.text)
 .text          0x0000000000000000       0x24 sys_need.o
                0x0000000000000000                sys_need
 .text          0x0000000000000024      0x154 testfork.o
                0x0000000000000024                application
                0x00000000000000c4                data
 .text          0x0000000000000178        0x0 user_sys.o

.iplt           0x0000000000000178        0x0
 .iplt          0x0000000000000178        0x0 sys_need.o

.text.user      0x0000000000000178      0x1d0
 .text.user     0x0000000000000178      0x1d0 user_sys.o
                0x0000000000000178                user_delay
                0x0000000000000184                call_sys_write
                0x0000000000000190                call_sys_exit
                0x000000000000019c                call_sys_fork
                0x00000000000001a8                call_sys_led
                0x00000000000001b4                call_sys_read
                0x00000000000001c0                thread_create
                0x00000000000001cc                thread_self
                0x00000000000001d8                thread_join
                0x00000000000001e4                thread_cond_signal
                0x00000000000001f0                call_sys_list
                0x00000000000001fc                call_sys_cd
                0x0000000000000208                call_sys_dump
                0x0000000000000214                call_sys_root
                0x0000000000000220                call_sys_run
                0x000000000000022c                call_sys_com
                0x0000000000000238                call_sys_send
                0x0000000000000244                call_sys_recv
                0x0000000000000250                thread_mutex_trylock
                0x000000000000025c                thread_mutex_lock
                0x0000000000000268                thread_mutex_unlock
                0x0000000000000274                call_sys_allocate_page
                0x0000000000000280                call_sys_free_page
                0x000000000000028c                call_sys_rmcom
                0x0000000000000298                call_sys_lsdev
                0x00000000000002a4                call_sys_lscom
                0x00000000000002b0                call_sys_fopen
                0x00000000000002bc                call_sys_fread
                0x00000000000002c8                call_sys_fclose
                0x00000000000002d4                call_sys_fwrite
                0x00000000000002e0                call_sys_fflush
                0x00000000000002ec                call_sys_fseek
                0x00000000000002f8                call_sys_ftell
                0x0000000000000304                call_sys_mount
                0x0000000000000310                call_sys_execom
                0x000000000000031c                call_sys_swap
                0x0000000000000328                thread_equal
                0x0000000000000340                sp_info

.rodata         0x0000000000000348       0x5a
 *(.rodata)
 .rodata        0x0000000000000348       0x5a testfork.o

.rela.dyn       0x00000000000003a8        0x0
 .rela.iplt     0x00000000000003a8        0x0 sys_need.o

.data           0x00000000000003a2        0x0
 *(.data)
 .data          0x00000000000003a2        0x0 sys_need.o
 .data          0x00000000000003a2        0x0 testfork.o
 .data          0x00000000000003a2        0x0 user_sys.o

.igot.plt       0x00000000000003a8        0x0
 .igot.plt      0x00000000000003a8        0x0 sys_need.o

.bss            0x00000000000003a4        0x4
 *(.bss*)
 .bss           0x00000000000003a4        0x0 sys_need.o
 .bss           0x00000000000003a4        0x4 testfork.o
                0x00000000000003a4                t
 .bss           0x00000000000003a8        0x0 user_sys.o
LOAD sys_need.o
LOAD testfork.o
LOAD user_sys.o
OUTPUT(testfork.elf elf64-littleaarch64)

.comment        0x0000000000000000       0x3b
 .comment       0x0000000000000000       0x3b sys_need.o
                                         0x3c (size before relaxing)
 .comment       0x000000000000003b       0x3c testfork.o

.note.GNU-stack
                0x0000000000000000        0x0
 .note.GNU-stack
                0x0000000000000000        0x0 sys_need.o
 .note.GNU-stack
                0x0000000000000000        0x0 testfork.o
