
a.out:     file format elf64-littleaarch64


Disassembly of section .init:

0000000000400698 <_init>:
  400698:	a9bf7bfd 	stp	x29, x30, [sp,#-16]!
  40069c:	910003fd 	mov	x29, sp
  4006a0:	94000036 	bl	400778 <call_weak_fn>
  4006a4:	a8c17bfd 	ldp	x29, x30, [sp],#16
  4006a8:	d65f03c0 	ret

Disassembly of section .plt:

00000000004006b0 <kservice_unreg_compt@plt-0x20>:
  4006b0:	a9bf7bf0 	stp	x16, x30, [sp,#-16]!
  4006b4:	90000090 	adrp	x16, 410000 <__FRAME_END__+0xf5f4>
  4006b8:	f947fe11 	ldr	x17, [x16,#4088]
  4006bc:	913fe210 	add	x16, x16, #0xff8
  4006c0:	d61f0220 	br	x17
  4006c4:	d503201f 	nop
  4006c8:	d503201f 	nop
  4006cc:	d503201f 	nop

00000000004006d0 <kservice_unreg_compt@plt>:
  4006d0:	b0000090 	adrp	x16, 411000 <_GLOBAL_OFFSET_TABLE_+0x28>
  4006d4:	f9400211 	ldr	x17, [x16]
  4006d8:	91000210 	add	x16, x16, #0x0
  4006dc:	d61f0220 	br	x17

00000000004006e0 <__libc_start_main@plt>:
  4006e0:	b0000090 	adrp	x16, 411000 <_GLOBAL_OFFSET_TABLE_+0x28>
  4006e4:	f9400611 	ldr	x17, [x16,#8]
  4006e8:	91002210 	add	x16, x16, #0x8
  4006ec:	d61f0220 	br	x17

00000000004006f0 <__gmon_start__@plt>:
  4006f0:	b0000090 	adrp	x16, 411000 <_GLOBAL_OFFSET_TABLE_+0x28>
  4006f4:	f9400a11 	ldr	x17, [x16,#16]
  4006f8:	91004210 	add	x16, x16, #0x10
  4006fc:	d61f0220 	br	x17

0000000000400700 <abort@plt>:
  400700:	b0000090 	adrp	x16, 411000 <_GLOBAL_OFFSET_TABLE_+0x28>
  400704:	f9400e11 	ldr	x17, [x16,#24]
  400708:	91006210 	add	x16, x16, #0x18
  40070c:	d61f0220 	br	x17

0000000000400710 <kservice_reg_compt@plt>:
  400710:	b0000090 	adrp	x16, 411000 <_GLOBAL_OFFSET_TABLE_+0x28>
  400714:	f9401211 	ldr	x17, [x16,#32]
  400718:	91008210 	add	x16, x16, #0x20
  40071c:	d61f0220 	br	x17

0000000000400720 <kservice_uart_write@plt>:
  400720:	b0000090 	adrp	x16, 411000 <_GLOBAL_OFFSET_TABLE_+0x28>
  400724:	f9401611 	ldr	x17, [x16,#40]
  400728:	9100a210 	add	x16, x16, #0x28
  40072c:	d61f0220 	br	x17

Disassembly of section .text:

0000000000400730 <_start>:
  400730:	d280001d 	mov	x29, #0x0                   	// #0
  400734:	d280001e 	mov	x30, #0x0                   	// #0
  400738:	aa0003e5 	mov	x5, x0
  40073c:	f94003e1 	ldr	x1, [sp]
  400740:	910023e2 	add	x2, sp, #0x8
  400744:	910003e6 	mov	x6, sp
  400748:	580000c0 	ldr	x0, 400760 <_start+0x30>
  40074c:	580000e3 	ldr	x3, 400768 <_start+0x38>
  400750:	58000104 	ldr	x4, 400770 <_start+0x40>
  400754:	97ffffe3 	bl	4006e0 <__libc_start_main@plt>
  400758:	97ffffea 	bl	400700 <abort@plt>
  40075c:	00000000 	.word	0x00000000
  400760:	004008ac 	.word	0x004008ac
  400764:	00000000 	.word	0x00000000
  400768:	00400910 	.word	0x00400910
  40076c:	00000000 	.word	0x00000000
  400770:	00400988 	.word	0x00400988
  400774:	00000000 	.word	0x00000000

0000000000400778 <call_weak_fn>:
  400778:	90000080 	adrp	x0, 410000 <__FRAME_END__+0xf5f4>
  40077c:	f947f000 	ldr	x0, [x0,#4064]
  400780:	b4000040 	cbz	x0, 400788 <call_weak_fn+0x10>
  400784:	17ffffdb 	b	4006f0 <__gmon_start__@plt>
  400788:	d65f03c0 	ret
  40078c:	00000000 	.inst	0x00000000 ; undefined

0000000000400790 <deregister_tm_clones>:
  400790:	b0000081 	adrp	x1, 411000 <_GLOBAL_OFFSET_TABLE_+0x28>
  400794:	b0000080 	adrp	x0, 411000 <_GLOBAL_OFFSET_TABLE_+0x28>
  400798:	91010021 	add	x1, x1, #0x40
  40079c:	91010000 	add	x0, x0, #0x40
  4007a0:	91001c21 	add	x1, x1, #0x7
  4007a4:	cb000021 	sub	x1, x1, x0
  4007a8:	f100383f 	cmp	x1, #0xe
  4007ac:	540000a9 	b.ls	4007c0 <deregister_tm_clones+0x30>
  4007b0:	580000c1 	ldr	x1, 4007c8 <deregister_tm_clones+0x38>
  4007b4:	b4000061 	cbz	x1, 4007c0 <deregister_tm_clones+0x30>
  4007b8:	d61f0020 	br	x1
  4007bc:	d503201f 	nop
  4007c0:	d65f03c0 	ret
  4007c4:	d503201f 	nop
	...

00000000004007d0 <register_tm_clones>:
  4007d0:	b0000081 	adrp	x1, 411000 <_GLOBAL_OFFSET_TABLE_+0x28>
  4007d4:	b0000080 	adrp	x0, 411000 <_GLOBAL_OFFSET_TABLE_+0x28>
  4007d8:	91010021 	add	x1, x1, #0x40
  4007dc:	91010000 	add	x0, x0, #0x40
  4007e0:	cb000021 	sub	x1, x1, x0
  4007e4:	9343fc21 	asr	x1, x1, #3
  4007e8:	8b41fc21 	add	x1, x1, x1, lsr #63
  4007ec:	9341fc21 	asr	x1, x1, #1
  4007f0:	b4000081 	cbz	x1, 400800 <register_tm_clones+0x30>
  4007f4:	580000a2 	ldr	x2, 400808 <register_tm_clones+0x38>
  4007f8:	b4000042 	cbz	x2, 400800 <register_tm_clones+0x30>
  4007fc:	d61f0040 	br	x2
  400800:	d65f03c0 	ret
  400804:	d503201f 	nop
	...

0000000000400810 <__do_global_dtors_aux>:
  400810:	a9be7bfd 	stp	x29, x30, [sp,#-32]!
  400814:	910003fd 	mov	x29, sp
  400818:	f9000bf3 	str	x19, [sp,#16]
  40081c:	b0000093 	adrp	x19, 411000 <_GLOBAL_OFFSET_TABLE_+0x28>
  400820:	39410260 	ldrb	w0, [x19,#64]
  400824:	35000080 	cbnz	w0, 400834 <__do_global_dtors_aux+0x24>
  400828:	97ffffda 	bl	400790 <deregister_tm_clones>
  40082c:	52800020 	mov	w0, #0x1                   	// #1
  400830:	39010260 	strb	w0, [x19,#64]
  400834:	f9400bf3 	ldr	x19, [sp,#16]
  400838:	a8c27bfd 	ldp	x29, x30, [sp],#32
  40083c:	d65f03c0 	ret

0000000000400840 <frame_dummy>:
  400840:	90000080 	adrp	x0, 410000 <__FRAME_END__+0xf5f4>
  400844:	9137c000 	add	x0, x0, #0xdf0
  400848:	f9400001 	ldr	x1, [x0]
  40084c:	b5000061 	cbnz	x1, 400858 <frame_dummy+0x18>
  400850:	17ffffe0 	b	4007d0 <register_tm_clones>
  400854:	d503201f 	nop
  400858:	58000101 	ldr	x1, 400878 <frame_dummy+0x38>
  40085c:	b4ffffa1 	cbz	x1, 400850 <frame_dummy+0x10>
  400860:	a9bf7bfd 	stp	x29, x30, [sp,#-16]!
  400864:	910003fd 	mov	x29, sp
  400868:	d63f0020 	blr	x1
  40086c:	a8c17bfd 	ldp	x29, x30, [sp],#16
  400870:	17ffffd8 	b	4007d0 <register_tm_clones>
  400874:	d503201f 	nop
	...

0000000000400880 <init_compt>:
  400880:	a9bf7bfd 	stp	x29, x30, [sp,#-16]!
  400884:	910003fd 	mov	x29, sp
  400888:	90000000 	adrp	x0, 400000 <_init-0x698>
  40088c:	9126a000 	add	x0, x0, #0x9a8
  400890:	97ffffa4 	bl	400720 <kservice_uart_write@plt>
  400894:	90000000 	adrp	x0, 400000 <_init-0x698>
  400898:	91272000 	add	x0, x0, #0x9c8
  40089c:	97ffff9d 	bl	400710 <kservice_reg_compt@plt>
  4008a0:	d503201f 	nop
  4008a4:	a8c17bfd 	ldp	x29, x30, [sp],#16
  4008a8:	d65f03c0 	ret

00000000004008ac <main>:
  4008ac:	a9bd7bfd 	stp	x29, x30, [sp,#-48]!
  4008b0:	910003fd 	mov	x29, sp
  4008b4:	f90017a0 	str	x0, [x29,#40]
  4008b8:	b90027a1 	str	w1, [x29,#36]
  4008bc:	b90023a2 	str	w2, [x29,#32]
  4008c0:	39007fa3 	strb	w3, [x29,#31]
  4008c4:	f9000ba4 	str	x4, [x29,#16]
  4008c8:	90000000 	adrp	x0, 400000 <_init-0x698>
  4008cc:	91276000 	add	x0, x0, #0x9d8
  4008d0:	97ffff94 	bl	400720 <kservice_uart_write@plt>
  4008d4:	d503201f 	nop
  4008d8:	a8c37bfd 	ldp	x29, x30, [sp],#48
  4008dc:	d65f03c0 	ret

00000000004008e0 <exit_compt>:
  4008e0:	a9bf7bfd 	stp	x29, x30, [sp,#-16]!
  4008e4:	910003fd 	mov	x29, sp
  4008e8:	90000000 	adrp	x0, 400000 <_init-0x698>
  4008ec:	91272000 	add	x0, x0, #0x9c8
  4008f0:	97ffff78 	bl	4006d0 <kservice_unreg_compt@plt>
  4008f4:	90000000 	adrp	x0, 400000 <_init-0x698>
  4008f8:	9127c000 	add	x0, x0, #0x9f0
  4008fc:	97ffff89 	bl	400720 <kservice_uart_write@plt>
  400900:	d503201f 	nop
  400904:	a8c17bfd 	ldp	x29, x30, [sp],#16
  400908:	d65f03c0 	ret
  40090c:	00000000 	.inst	0x00000000 ; undefined

0000000000400910 <__libc_csu_init>:
  400910:	a9bc7bfd 	stp	x29, x30, [sp,#-64]!
  400914:	910003fd 	mov	x29, sp
  400918:	a9025bf5 	stp	x21, x22, [sp,#32]
  40091c:	90000095 	adrp	x21, 410000 <__FRAME_END__+0xf5f4>
  400920:	a90153f3 	stp	x19, x20, [sp,#16]
  400924:	90000094 	adrp	x20, 410000 <__FRAME_END__+0xf5f4>
  400928:	913782b5 	add	x21, x21, #0xde0
  40092c:	9137a294 	add	x20, x20, #0xde8
  400930:	cb150294 	sub	x20, x20, x21
  400934:	a90363f7 	stp	x23, x24, [sp,#48]
  400938:	aa0203f6 	mov	x22, x2
  40093c:	2a0003f8 	mov	w24, w0
  400940:	aa0103f7 	mov	x23, x1
  400944:	97ffff55 	bl	400698 <_init>
  400948:	9343fe94 	asr	x20, x20, #3
  40094c:	b4000154 	cbz	x20, 400974 <__libc_csu_init+0x64>
  400950:	d2800013 	mov	x19, #0x0                   	// #0
  400954:	f8737aa3 	ldr	x3, [x21,x19,lsl #3]
  400958:	aa1603e2 	mov	x2, x22
  40095c:	aa1703e1 	mov	x1, x23
  400960:	2a1803e0 	mov	w0, w24
  400964:	91000673 	add	x19, x19, #0x1
  400968:	d63f0060 	blr	x3
  40096c:	eb14027f 	cmp	x19, x20
  400970:	54ffff21 	b.ne	400954 <__libc_csu_init+0x44>
  400974:	a94153f3 	ldp	x19, x20, [sp,#16]
  400978:	a9425bf5 	ldp	x21, x22, [sp,#32]
  40097c:	a94363f7 	ldp	x23, x24, [sp,#48]
  400980:	a8c47bfd 	ldp	x29, x30, [sp],#64
  400984:	d65f03c0 	ret

0000000000400988 <__libc_csu_fini>:
  400988:	d65f03c0 	ret

Disassembly of section .fini:

000000000040098c <_fini>:
  40098c:	a9bf7bfd 	stp	x29, x30, [sp,#-16]!
  400990:	910003fd 	mov	x29, sp
  400994:	a8c17bfd 	ldp	x29, x30, [sp],#16
  400998:	d65f03c0 	ret
