
Memory Configuration

Name             Origin             Length             Attributes
*default*        0x0000000000000000 0xffffffffffffffff

Linker script and memory map


.text           0x0000000000000000      0x158
 *(.text)
 .text          0x0000000000000000       0x24 sys_need.o
                0x0000000000000000                sys_need
 .text          0x0000000000000024      0x134 testfork.o
                0x0000000000000024                application
                0x00000000000000c4                data
 .text          0x0000000000000158        0x0 user_sys.o

.iplt           0x0000000000000158        0x0
 .iplt          0x0000000000000158        0x0 sys_need.o

.text.user      0x0000000000000158      0x138
 .text.user     0x0000000000000158      0x138 user_sys.o
                0x0000000000000158                user_delay
                0x0000000000000164                call_sys_write
                0x0000000000000170                call_sys_exit
                0x000000000000017c                call_sys_fork
                0x0000000000000188                call_sys_led
                0x0000000000000194                call_sys_read
                0x00000000000001a0                thread_create
                0x00000000000001ac                thread_self
                0x00000000000001b8                thread_join
                0x00000000000001c4                thread_cond_signal
                0x00000000000001d0                call_sys_list
                0x00000000000001dc                call_sys_cd
                0x00000000000001e8                call_sys_dump
                0x00000000000001f4                call_sys_root
                0x0000000000000200                call_sys_run
                0x000000000000020c                call_sys_com
                0x0000000000000218                call_sys_send
                0x0000000000000224                call_sys_recv
                0x0000000000000230                thread_mutex_trylock
                0x000000000000023c                thread_mutex_lock
                0x0000000000000248                thread_mutex_unlock
                0x0000000000000254                call_sys_allocate_page
                0x0000000000000260                call_sys_free_page
                0x000000000000026c                call_sys_rmcom
                0x0000000000000278                thread_equal

.rodata         0x0000000000000290       0x5a
 *(.rodata)
 .rodata        0x0000000000000290       0x5a testfork.o

.rela.dyn       0x00000000000002f0        0x0
 .rela.iplt     0x00000000000002f0        0x0 sys_need.o

.data           0x00000000000002ea        0x0
 *(.data)
 .data          0x00000000000002ea        0x0 sys_need.o
 .data          0x00000000000002ea        0x0 testfork.o
 .data          0x00000000000002ea        0x0 user_sys.o

.igot.plt       0x00000000000002f0        0x0
 .igot.plt      0x00000000000002f0        0x0 sys_need.o

.bss            0x00000000000002ec        0x4
 *(.bss*)
 .bss           0x00000000000002ec        0x0 sys_need.o
 .bss           0x00000000000002ec        0x4 testfork.o
                0x00000000000002ec                t
 .bss           0x00000000000002f0        0x0 user_sys.o
LOAD sys_need.o
LOAD testfork.o
LOAD user_sys.o
OUTPUT(testfork.elf elf64-littleaarch64)

.comment        0x0000000000000000       0x3b
 .comment       0x0000000000000000       0x3b sys_need.o
                                         0x3c (size before relaxing)
 .comment       0x000000000000003b       0x3c testfork.o

.note.GNU-stack
                0x0000000000000000        0x0
 .note.GNU-stack
                0x0000000000000000        0x0 sys_need.o
 .note.GNU-stack
                0x0000000000000000        0x0 testfork.o
