
kernel8.elf:     file format elf64-littleaarch64


Disassembly of section .text.boot:

ffff000000000000 <_start>:
ffff000000000000:	d53800a0 	mrs	x0, mpidr_el1
ffff000000000004:	92401c00 	and	x0, x0, #0xff
ffff000000000008:	b4000120 	cbz	x0, ffff00000000002c <master>
ffff00000000000c:	14000001 	b	ffff000000000010 <proc_hang_1>

ffff000000000010 <proc_hang_1>:
ffff000000000010:	d503205f 	wfe

ffff000000000014 <proc_hang>:
ffff000000000014:	14000000 	b	ffff000000000014 <proc_hang>

ffff000000000018 <enable_cache>:
ffff000000000018:	58000a80 	ldr	x0, ffff000000000168 <__create_page_tables+0xcc>
ffff00000000001c:	d5182040 	msr	tcr_el1, x0
ffff000000000020:	58000a80 	ldr	x0, ffff000000000170 <__create_page_tables+0xd4>
ffff000000000024:	d5181000 	msr	sctlr_el1, x0
ffff000000000028:	d65f03c0 	ret

ffff00000000002c <master>:
ffff00000000002c:	58000a60 	ldr	x0, ffff000000000178 <__create_page_tables+0xdc>
ffff000000000030:	d5181000 	msr	sctlr_el1, x0
ffff000000000034:	58000a60 	ldr	x0, ffff000000000180 <__create_page_tables+0xe4>
ffff000000000038:	d51c1100 	msr	hcr_el2, x0
ffff00000000003c:	58000a60 	ldr	x0, ffff000000000188 <__create_page_tables+0xec>
ffff000000000040:	d51e1100 	msr	scr_el3, x0
ffff000000000044:	58000a60 	ldr	x0, ffff000000000190 <__create_page_tables+0xf4>
ffff000000000048:	d51e4000 	msr	spsr_el3, x0
ffff00000000004c:	10000060 	adr	x0, ffff000000000058 <el1_entry>
ffff000000000050:	d51e4020 	msr	elr_el3, x0
ffff000000000054:	d69f03e0 	eret

ffff000000000058 <el1_entry>:
ffff000000000058:	10099380 	adr	x0, ffff0000000132c8 <bss_begin>
ffff00000000005c:	104f39a1 	adr	x1, ffff00000009e790 <bss_end>
ffff000000000060:	cb000021 	sub	x1, x1, x0
ffff000000000064:	940041cd 	bl	ffff000000010798 <memzero>
ffff000000000068:	9400000d 	bl	ffff00000000009c <__create_page_tables>
ffff00000000006c:	d2ffffe0 	mov	x0, #0xffff000000000000    	// #-281474976710656
ffff000000000070:	9150001f 	add	sp, x0, #0x400, lsl #12
ffff000000000074:	f00004e0 	adrp	x0, ffff00000009f000 <pg_dir>
ffff000000000078:	d5182020 	msr	ttbr1_el1, x0
ffff00000000007c:	580008e0 	ldr	x0, ffff000000000198 <__create_page_tables+0xfc>
ffff000000000080:	d5182040 	msr	tcr_el1, x0
ffff000000000084:	580008e0 	ldr	x0, ffff0000000001a0 <__create_page_tables+0x104>
ffff000000000088:	d518a200 	msr	mair_el1, x0
ffff00000000008c:	580008e2 	ldr	x2, ffff0000000001a8 <__create_page_tables+0x10c>
ffff000000000090:	58000900 	ldr	x0, ffff0000000001b0 <__create_page_tables+0x114>
ffff000000000094:	d5181000 	msr	sctlr_el1, x0
ffff000000000098:	d61f0040 	br	x2

ffff00000000009c <__create_page_tables>:
ffff00000000009c:	aa1e03fd 	mov	x29, x30
ffff0000000000a0:	f00004e0 	adrp	x0, ffff00000009f000 <pg_dir>
ffff0000000000a4:	d2860001 	mov	x1, #0x3000                	// #12288
ffff0000000000a8:	940041bc 	bl	ffff000000010798 <memzero>
ffff0000000000ac:	f00004e0 	adrp	x0, ffff00000009f000 <pg_dir>
ffff0000000000b0:	d2ffffe1 	mov	x1, #0xffff000000000000    	// #-281474976710656
ffff0000000000b4:	d367fc22 	lsr	x2, x1, #39
ffff0000000000b8:	92402042 	and	x2, x2, #0x1ff
ffff0000000000bc:	91400403 	add	x3, x0, #0x1, lsl #12
ffff0000000000c0:	b2400463 	orr	x3, x3, #0x3
ffff0000000000c4:	f8227803 	str	x3, [x0,x2,lsl #3]
ffff0000000000c8:	91400400 	add	x0, x0, #0x1, lsl #12
ffff0000000000cc:	d35efc22 	lsr	x2, x1, #30
ffff0000000000d0:	92402042 	and	x2, x2, #0x1ff
ffff0000000000d4:	91400403 	add	x3, x0, #0x1, lsl #12
ffff0000000000d8:	b2400463 	orr	x3, x3, #0x3
ffff0000000000dc:	f8227803 	str	x3, [x0,x2,lsl #3]
ffff0000000000e0:	91400400 	add	x0, x0, #0x1, lsl #12
ffff0000000000e4:	aa1f03e1 	mov	x1, xzr
ffff0000000000e8:	d2ffffe2 	mov	x2, #0xffff000000000000    	// #-281474976710656
ffff0000000000ec:	58000663 	ldr	x3, ffff0000000001b8 <__create_page_tables+0x11c>
ffff0000000000f0:	d355fc42 	lsr	x2, x2, #21
ffff0000000000f4:	92402042 	and	x2, x2, #0x1ff
ffff0000000000f8:	d355fc63 	lsr	x3, x3, #21
ffff0000000000fc:	92402063 	and	x3, x3, #0x1ff
ffff000000000100:	d355fc21 	lsr	x1, x1, #21
ffff000000000104:	d2808224 	mov	x4, #0x411                 	// #1041
ffff000000000108:	aa015481 	orr	x1, x4, x1, lsl #21
ffff00000000010c:	f8227801 	str	x1, [x0,x2,lsl #3]
ffff000000000110:	91000442 	add	x2, x2, #0x1
ffff000000000114:	91480021 	add	x1, x1, #0x200, lsl #12
ffff000000000118:	eb03005f 	cmp	x2, x3
ffff00000000011c:	54ffff89 	b.ls	ffff00000000010c <__create_page_tables+0x70>
ffff000000000120:	d2a7e001 	mov	x1, #0x3f000000            	// #1056964608
ffff000000000124:	580004e2 	ldr	x2, ffff0000000001c0 <__create_page_tables+0x124>
ffff000000000128:	58000503 	ldr	x3, ffff0000000001c8 <__create_page_tables+0x12c>
ffff00000000012c:	d355fc42 	lsr	x2, x2, #21
ffff000000000130:	92402042 	and	x2, x2, #0x1ff
ffff000000000134:	d355fc63 	lsr	x3, x3, #21
ffff000000000138:	92402063 	and	x3, x3, #0x1ff
ffff00000000013c:	d355fc21 	lsr	x1, x1, #21
ffff000000000140:	d2808024 	mov	x4, #0x401                 	// #1025
ffff000000000144:	aa015481 	orr	x1, x4, x1, lsl #21
ffff000000000148:	f8227801 	str	x1, [x0,x2,lsl #3]
ffff00000000014c:	91000442 	add	x2, x2, #0x1
ffff000000000150:	91480021 	add	x1, x1, #0x200, lsl #12
ffff000000000154:	eb03005f 	cmp	x2, x3
ffff000000000158:	54ffff89 	b.ls	ffff000000000148 <__create_page_tables+0xac>
ffff00000000015c:	aa1d03fe 	mov	x30, x29
ffff000000000160:	d65f03c0 	ret
ffff000000000164:	00000000 	.word	0x00000000
ffff000000000168:	a5103510 	.word	0xa5103510
ffff00000000016c:	00000000 	.word	0x00000000
ffff000000000170:	00c01805 	.word	0x00c01805
	...
ffff000000000180:	80000000 	.word	0x80000000
ffff000000000184:	00000000 	.word	0x00000000
ffff000000000188:	00000431 	.word	0x00000431
ffff00000000018c:	00000000 	.word	0x00000000
ffff000000000190:	000001c5 	.word	0x000001c5
ffff000000000194:	00000000 	.word	0x00000000
ffff000000000198:	80100010 	.word	0x80100010
ffff00000000019c:	00000000 	.word	0x00000000
ffff0000000001a0:	440c0400 	.word	0x440c0400
ffff0000000001a4:	000000ff 	.word	0x000000ff
ffff0000000001a8:	00005f90 	.word	0x00005f90
ffff0000000001ac:	ffff0000 	.word	0xffff0000
ffff0000000001b0:	00000001 	.word	0x00000001
ffff0000000001b4:	00000000 	.word	0x00000000
ffff0000000001b8:	3ee00000 	.word	0x3ee00000
ffff0000000001bc:	ffff0000 	.word	0xffff0000
ffff0000000001c0:	3f000000 	.word	0x3f000000
ffff0000000001c4:	ffff0000 	.word	0xffff0000
ffff0000000001c8:	3fe00000 	.word	0x3fe00000
ffff0000000001cc:	ffff0000 	.word	0xffff0000

Disassembly of section .text.user:

ffff000000001000 <invalid>:
ffff000000001000:	a9bf7bfd 	stp	x29, x30, [sp,#-16]!
ffff000000001004:	910003fd 	mov	x29, sp
ffff000000001008:	90000000 	adrp	x0, ffff000000001000 <invalid>
ffff00000000100c:	9130c001 	add	x1, x0, #0xc30
ffff000000001010:	90000000 	adrp	x0, ffff000000001000 <invalid>
ffff000000001014:	912de000 	add	x0, x0, #0xb78
ffff000000001018:	94000279 	bl	ffff0000000019fc <call_sys_write>
ffff00000000101c:	d503201f 	nop
ffff000000001020:	a8c17bfd 	ldp	x29, x30, [sp],#16
ffff000000001024:	d65f03c0 	ret

ffff000000001028 <shell_user_process>:
ffff000000001028:	a9b97bfd 	stp	x29, x30, [sp,#-112]!
ffff00000000102c:	910003fd 	mov	x29, sp
ffff000000001030:	90000000 	adrp	x0, ffff000000001000 <invalid>
ffff000000001034:	912ec000 	add	x0, x0, #0xbb0
ffff000000001038:	94000271 	bl	ffff0000000019fc <call_sys_write>
ffff00000000103c:	90000000 	adrp	x0, ffff000000001000 <invalid>
ffff000000001040:	91306000 	add	x0, x0, #0xc18
ffff000000001044:	39400000 	ldrb	w0, [x0]
ffff000000001048:	3900a3a0 	strb	w0, [x29,#40]
ffff00000000104c:	f80293bf 	stur	xzr, [x29,#41]
ffff000000001050:	b80313bf 	stur	wzr, [x29,#49]
ffff000000001054:	780353bf 	sturh	wzr, [x29,#53]
ffff000000001058:	90000000 	adrp	x0, ffff000000001000 <invalid>
ffff00000000105c:	9130a000 	add	x0, x0, #0xc28
ffff000000001060:	79400000 	ldrh	w0, [x0]
ffff000000001064:	790043a0 	strh	w0, [x29,#32]
ffff000000001068:	90000000 	adrp	x0, ffff000000001000 <invalid>
ffff00000000106c:	91306000 	add	x0, x0, #0xc18
ffff000000001070:	39400000 	ldrb	w0, [x0]
ffff000000001074:	390043a0 	strb	w0, [x29,#16]
ffff000000001078:	f80113bf 	stur	xzr, [x29,#17]
ffff00000000107c:	780193bf 	sturh	wzr, [x29,#25]
ffff000000001080:	90000000 	adrp	x0, ffff000000001000 <invalid>
ffff000000001084:	912f0000 	add	x0, x0, #0xbc0
ffff000000001088:	9400025d 	bl	ffff0000000019fc <call_sys_write>
ffff00000000108c:	90000000 	adrp	x0, ffff000000001000 <invalid>
ffff000000001090:	9130c001 	add	x1, x0, #0xc30
ffff000000001094:	90000000 	adrp	x0, ffff000000001000 <invalid>
ffff000000001098:	912f6000 	add	x0, x0, #0xbd8
ffff00000000109c:	94000258 	bl	ffff0000000019fc <call_sys_write>
ffff0000000010a0:	90000000 	adrp	x0, ffff000000001000 <invalid>
ffff0000000010a4:	912f8000 	add	x0, x0, #0xbe0
ffff0000000010a8:	94000255 	bl	ffff0000000019fc <call_sys_write>
ffff0000000010ac:	b9006fbf 	str	wzr, [x29,#108]
ffff0000000010b0:	14000005 	b	ffff0000000010c4 <shell_user_process+0x9c>
ffff0000000010b4:	9400025e 	bl	ffff000000001a2c <call_sys_read>
ffff0000000010b8:	b9406fa0 	ldr	w0, [x29,#108]
ffff0000000010bc:	11000400 	add	w0, w0, #0x1
ffff0000000010c0:	b9006fa0 	str	w0, [x29,#108]
ffff0000000010c4:	b9406fa0 	ldr	w0, [x29,#108]
ffff0000000010c8:	71001c1f 	cmp	w0, #0x7
ffff0000000010cc:	54ffff4d 	b.le	ffff0000000010b4 <shell_user_process+0x8c>
ffff0000000010d0:	94000257 	bl	ffff000000001a2c <call_sys_read>
ffff0000000010d4:	53001c00 	uxtb	w0, w0
ffff0000000010d8:	390083a0 	strb	w0, [x29,#32]
ffff0000000010dc:	90000000 	adrp	x0, ffff000000001000 <invalid>
ffff0000000010e0:	91314000 	add	x0, x0, #0xc50
ffff0000000010e4:	b9400000 	ldr	w0, [x0]
ffff0000000010e8:	11000402 	add	w2, w0, #0x1
ffff0000000010ec:	90000001 	adrp	x1, ffff000000001000 <invalid>
ffff0000000010f0:	91314021 	add	x1, x1, #0xc50
ffff0000000010f4:	b9000022 	str	w2, [x1]
ffff0000000010f8:	394083a2 	ldrb	w2, [x29,#32]
ffff0000000010fc:	93407c00 	sxtw	x0, w0
ffff000000001100:	d13e43a1 	sub	x1, x29, #0xf90
ffff000000001104:	8b000020 	add	x0, x1, x0
ffff000000001108:	2a0203e1 	mov	w1, w2
ffff00000000110c:	393ee001 	strb	w1, [x0,#4024]
ffff000000001110:	394083a0 	ldrb	w0, [x29,#32]
ffff000000001114:	7100341f 	cmp	w0, #0xd
ffff000000001118:	54004661 	b.ne	ffff0000000019e4 <shell_user_process+0x9bc>
ffff00000000111c:	3940a3a0 	ldrb	w0, [x29,#40]
ffff000000001120:	7101b01f 	cmp	w0, #0x6c
ffff000000001124:	54000241 	b.ne	ffff00000000116c <shell_user_process+0x144>
ffff000000001128:	3940a7a0 	ldrb	w0, [x29,#41]
ffff00000000112c:	7101cc1f 	cmp	w0, #0x73
ffff000000001130:	540001e1 	b.ne	ffff00000000116c <shell_user_process+0x144>
ffff000000001134:	3940aba0 	ldrb	w0, [x29,#42]
ffff000000001138:	7100341f 	cmp	w0, #0xd
ffff00000000113c:	54000181 	b.ne	ffff00000000116c <shell_user_process+0x144>
ffff000000001140:	9400024a 	bl	ffff000000001a68 <call_sys_list>
ffff000000001144:	90000000 	adrp	x0, ffff000000001000 <invalid>
ffff000000001148:	912fa000 	add	x0, x0, #0xbe8
ffff00000000114c:	9400022c 	bl	ffff0000000019fc <call_sys_write>
ffff000000001150:	90000000 	adrp	x0, ffff000000001000 <invalid>
ffff000000001154:	9130c000 	add	x0, x0, #0xc30
ffff000000001158:	94000229 	bl	ffff0000000019fc <call_sys_write>
ffff00000000115c:	90000000 	adrp	x0, ffff000000001000 <invalid>
ffff000000001160:	912f8000 	add	x0, x0, #0xbe0
ffff000000001164:	94000226 	bl	ffff0000000019fc <call_sys_write>
ffff000000001168:	1400021b 	b	ffff0000000019d4 <shell_user_process+0x9ac>
ffff00000000116c:	3940a3a0 	ldrb	w0, [x29,#40]
ffff000000001170:	7101901f 	cmp	w0, #0x64
ffff000000001174:	54000921 	b.ne	ffff000000001298 <shell_user_process+0x270>
ffff000000001178:	3940a7a0 	ldrb	w0, [x29,#41]
ffff00000000117c:	7101d41f 	cmp	w0, #0x75
ffff000000001180:	540008c1 	b.ne	ffff000000001298 <shell_user_process+0x270>
ffff000000001184:	3940aba0 	ldrb	w0, [x29,#42]
ffff000000001188:	7101b41f 	cmp	w0, #0x6d
ffff00000000118c:	54000861 	b.ne	ffff000000001298 <shell_user_process+0x270>
ffff000000001190:	3940afa0 	ldrb	w0, [x29,#43]
ffff000000001194:	7101c01f 	cmp	w0, #0x70
ffff000000001198:	54000801 	b.ne	ffff000000001298 <shell_user_process+0x270>
ffff00000000119c:	3940b3a0 	ldrb	w0, [x29,#44]
ffff0000000011a0:	7100341f 	cmp	w0, #0xd
ffff0000000011a4:	540001c1 	b.ne	ffff0000000011dc <shell_user_process+0x1b4>
ffff0000000011a8:	90000000 	adrp	x0, ffff000000001000 <invalid>
ffff0000000011ac:	91300000 	add	x0, x0, #0xc00
ffff0000000011b0:	94000213 	bl	ffff0000000019fc <call_sys_write>
ffff0000000011b4:	90000000 	adrp	x0, ffff000000001000 <invalid>
ffff0000000011b8:	912fa000 	add	x0, x0, #0xbe8
ffff0000000011bc:	94000210 	bl	ffff0000000019fc <call_sys_write>
ffff0000000011c0:	90000000 	adrp	x0, ffff000000001000 <invalid>
ffff0000000011c4:	9130c000 	add	x0, x0, #0xc30
ffff0000000011c8:	9400020d 	bl	ffff0000000019fc <call_sys_write>
ffff0000000011cc:	90000000 	adrp	x0, ffff000000001000 <invalid>
ffff0000000011d0:	912f8000 	add	x0, x0, #0xbe0
ffff0000000011d4:	9400020a 	bl	ffff0000000019fc <call_sys_write>
ffff0000000011d8:	140001ff 	b	ffff0000000019d4 <shell_user_process+0x9ac>
ffff0000000011dc:	3940b3a0 	ldrb	w0, [x29,#44]
ffff0000000011e0:	7100801f 	cmp	w0, #0x20
ffff0000000011e4:	54000561 	b.ne	ffff000000001290 <shell_user_process+0x268>
ffff0000000011e8:	528000a0 	mov	w0, #0x5                   	// #5
ffff0000000011ec:	b9006ba0 	str	w0, [x29,#104]
ffff0000000011f0:	b90067bf 	str	wzr, [x29,#100]
ffff0000000011f4:	14000016 	b	ffff00000000124c <shell_user_process+0x224>
ffff0000000011f8:	b9806ba0 	ldrsw	x0, [x29,#104]
ffff0000000011fc:	d13e43a1 	sub	x1, x29, #0xf90
ffff000000001200:	8b000020 	add	x0, x1, x0
ffff000000001204:	397ee000 	ldrb	w0, [x0,#4024]
ffff000000001208:	7100341f 	cmp	w0, #0xd
ffff00000000120c:	54000280 	b.eq	ffff00000000125c <shell_user_process+0x234>
ffff000000001210:	b9806ba0 	ldrsw	x0, [x29,#104]
ffff000000001214:	d13e43a1 	sub	x1, x29, #0xf90
ffff000000001218:	8b000020 	add	x0, x1, x0
ffff00000000121c:	397ee002 	ldrb	w2, [x0,#4024]
ffff000000001220:	b98067a0 	ldrsw	x0, [x29,#100]
ffff000000001224:	d13e43a1 	sub	x1, x29, #0xf90
ffff000000001228:	8b000020 	add	x0, x1, x0
ffff00000000122c:	2a0203e1 	mov	w1, w2
ffff000000001230:	393e8001 	strb	w1, [x0,#4000]
ffff000000001234:	b9406ba0 	ldr	w0, [x29,#104]
ffff000000001238:	11000400 	add	w0, w0, #0x1
ffff00000000123c:	b9006ba0 	str	w0, [x29,#104]
ffff000000001240:	b94067a0 	ldr	w0, [x29,#100]
ffff000000001244:	11000400 	add	w0, w0, #0x1
ffff000000001248:	b90067a0 	str	w0, [x29,#100]
ffff00000000124c:	b9406ba0 	ldr	w0, [x29,#104]
ffff000000001250:	7100401f 	cmp	w0, #0x10
ffff000000001254:	54fffd2d 	b.le	ffff0000000011f8 <shell_user_process+0x1d0>
ffff000000001258:	14000002 	b	ffff000000001260 <shell_user_process+0x238>
ffff00000000125c:	d503201f 	nop
ffff000000001260:	910043a0 	add	x0, x29, #0x10
ffff000000001264:	94000207 	bl	ffff000000001a80 <call_sys_dump>
ffff000000001268:	90000000 	adrp	x0, ffff000000001000 <invalid>
ffff00000000126c:	912fa000 	add	x0, x0, #0xbe8
ffff000000001270:	940001e3 	bl	ffff0000000019fc <call_sys_write>
ffff000000001274:	90000000 	adrp	x0, ffff000000001000 <invalid>
ffff000000001278:	9130c000 	add	x0, x0, #0xc30
ffff00000000127c:	940001e0 	bl	ffff0000000019fc <call_sys_write>
ffff000000001280:	90000000 	adrp	x0, ffff000000001000 <invalid>
ffff000000001284:	912f8000 	add	x0, x0, #0xbe0
ffff000000001288:	940001dd 	bl	ffff0000000019fc <call_sys_write>
ffff00000000128c:	140001d2 	b	ffff0000000019d4 <shell_user_process+0x9ac>
ffff000000001290:	97ffff5c 	bl	ffff000000001000 <invalid>
ffff000000001294:	140001d0 	b	ffff0000000019d4 <shell_user_process+0x9ac>
ffff000000001298:	3940a3a0 	ldrb	w0, [x29,#40]
ffff00000000129c:	71018c1f 	cmp	w0, #0x63
ffff0000000012a0:	54001521 	b.ne	ffff000000001544 <shell_user_process+0x51c>
ffff0000000012a4:	3940a7a0 	ldrb	w0, [x29,#41]
ffff0000000012a8:	7101901f 	cmp	w0, #0x64
ffff0000000012ac:	540014c1 	b.ne	ffff000000001544 <shell_user_process+0x51c>
ffff0000000012b0:	3940aba0 	ldrb	w0, [x29,#42]
ffff0000000012b4:	7100341f 	cmp	w0, #0xd
ffff0000000012b8:	54000260 	b.eq	ffff000000001304 <shell_user_process+0x2dc>
ffff0000000012bc:	3940aba0 	ldrb	w0, [x29,#42]
ffff0000000012c0:	7100801f 	cmp	w0, #0x20
ffff0000000012c4:	54000641 	b.ne	ffff00000000138c <shell_user_process+0x364>
ffff0000000012c8:	3940afa0 	ldrb	w0, [x29,#43]
ffff0000000012cc:	7101c81f 	cmp	w0, #0x72
ffff0000000012d0:	540005e1 	b.ne	ffff00000000138c <shell_user_process+0x364>
ffff0000000012d4:	3940b3a0 	ldrb	w0, [x29,#44]
ffff0000000012d8:	7101bc1f 	cmp	w0, #0x6f
ffff0000000012dc:	54000581 	b.ne	ffff00000000138c <shell_user_process+0x364>
ffff0000000012e0:	3940b7a0 	ldrb	w0, [x29,#45]
ffff0000000012e4:	7101bc1f 	cmp	w0, #0x6f
ffff0000000012e8:	54000521 	b.ne	ffff00000000138c <shell_user_process+0x364>
ffff0000000012ec:	3940bba0 	ldrb	w0, [x29,#46]
ffff0000000012f0:	7101d01f 	cmp	w0, #0x74
ffff0000000012f4:	540004c1 	b.ne	ffff00000000138c <shell_user_process+0x364>
ffff0000000012f8:	3940bfa0 	ldrb	w0, [x29,#47]
ffff0000000012fc:	7100341f 	cmp	w0, #0xd
ffff000000001300:	54000461 	b.ne	ffff00000000138c <shell_user_process+0x364>
ffff000000001304:	940001e2 	bl	ffff000000001a8c <call_sys_root>
ffff000000001308:	90000000 	adrp	x0, ffff000000001000 <invalid>
ffff00000000130c:	9130c000 	add	x0, x0, #0xc30
ffff000000001310:	52800e41 	mov	w1, #0x72                  	// #114
ffff000000001314:	39000001 	strb	w1, [x0]
ffff000000001318:	90000000 	adrp	x0, ffff000000001000 <invalid>
ffff00000000131c:	9130c000 	add	x0, x0, #0xc30
ffff000000001320:	52800de1 	mov	w1, #0x6f                  	// #111
ffff000000001324:	39000401 	strb	w1, [x0,#1]
ffff000000001328:	90000000 	adrp	x0, ffff000000001000 <invalid>
ffff00000000132c:	9130c000 	add	x0, x0, #0xc30
ffff000000001330:	52800de1 	mov	w1, #0x6f                  	// #111
ffff000000001334:	39000801 	strb	w1, [x0,#2]
ffff000000001338:	90000000 	adrp	x0, ffff000000001000 <invalid>
ffff00000000133c:	9130c000 	add	x0, x0, #0xc30
ffff000000001340:	52800e81 	mov	w1, #0x74                  	// #116
ffff000000001344:	39000c01 	strb	w1, [x0,#3]
ffff000000001348:	90000000 	adrp	x0, ffff000000001000 <invalid>
ffff00000000134c:	9130c000 	add	x0, x0, #0xc30
ffff000000001350:	3900101f 	strb	wzr, [x0,#4]
ffff000000001354:	528000a0 	mov	w0, #0x5                   	// #5
ffff000000001358:	b90063a0 	str	w0, [x29,#96]
ffff00000000135c:	14000008 	b	ffff00000000137c <shell_user_process+0x354>
ffff000000001360:	90000000 	adrp	x0, ffff000000001000 <invalid>
ffff000000001364:	9130c001 	add	x1, x0, #0xc30
ffff000000001368:	b98063a0 	ldrsw	x0, [x29,#96]
ffff00000000136c:	3820683f 	strb	wzr, [x1,x0]
ffff000000001370:	b94063a0 	ldr	w0, [x29,#96]
ffff000000001374:	11000400 	add	w0, w0, #0x1
ffff000000001378:	b90063a0 	str	w0, [x29,#96]
ffff00000000137c:	b94063a0 	ldr	w0, [x29,#96]
ffff000000001380:	7100741f 	cmp	w0, #0x1d
ffff000000001384:	54fffeed 	b.le	ffff000000001360 <shell_user_process+0x338>
ffff000000001388:	1400006e 	b	ffff000000001540 <shell_user_process+0x518>
ffff00000000138c:	3940aba0 	ldrb	w0, [x29,#42]
ffff000000001390:	7100801f 	cmp	w0, #0x20
ffff000000001394:	54000d21 	b.ne	ffff000000001538 <shell_user_process+0x510>
ffff000000001398:	52800060 	mov	w0, #0x3                   	// #3
ffff00000000139c:	b9005fa0 	str	w0, [x29,#92]
ffff0000000013a0:	b9005bbf 	str	wzr, [x29,#88]
ffff0000000013a4:	1400001b 	b	ffff000000001410 <shell_user_process+0x3e8>
ffff0000000013a8:	b9805fa0 	ldrsw	x0, [x29,#92]
ffff0000000013ac:	d13e43a1 	sub	x1, x29, #0xf90
ffff0000000013b0:	8b000020 	add	x0, x1, x0
ffff0000000013b4:	397ee000 	ldrb	w0, [x0,#4024]
ffff0000000013b8:	7100341f 	cmp	w0, #0xd
ffff0000000013bc:	540000c1 	b.ne	ffff0000000013d4 <shell_user_process+0x3ac>
ffff0000000013c0:	b9805ba0 	ldrsw	x0, [x29,#88]
ffff0000000013c4:	d13e43a1 	sub	x1, x29, #0xf90
ffff0000000013c8:	8b000020 	add	x0, x1, x0
ffff0000000013cc:	393e801f 	strb	wzr, [x0,#4000]
ffff0000000013d0:	14000013 	b	ffff00000000141c <shell_user_process+0x3f4>
ffff0000000013d4:	b9805fa0 	ldrsw	x0, [x29,#92]
ffff0000000013d8:	d13e43a1 	sub	x1, x29, #0xf90
ffff0000000013dc:	8b000020 	add	x0, x1, x0
ffff0000000013e0:	397ee002 	ldrb	w2, [x0,#4024]
ffff0000000013e4:	b9805ba0 	ldrsw	x0, [x29,#88]
ffff0000000013e8:	d13e43a1 	sub	x1, x29, #0xf90
ffff0000000013ec:	8b000020 	add	x0, x1, x0
ffff0000000013f0:	2a0203e1 	mov	w1, w2
ffff0000000013f4:	393e8001 	strb	w1, [x0,#4000]
ffff0000000013f8:	b9405fa0 	ldr	w0, [x29,#92]
ffff0000000013fc:	11000400 	add	w0, w0, #0x1
ffff000000001400:	b9005fa0 	str	w0, [x29,#92]
ffff000000001404:	b9405ba0 	ldr	w0, [x29,#88]
ffff000000001408:	11000400 	add	w0, w0, #0x1
ffff00000000140c:	b9005ba0 	str	w0, [x29,#88]
ffff000000001410:	b9405fa0 	ldr	w0, [x29,#92]
ffff000000001414:	7100381f 	cmp	w0, #0xe
ffff000000001418:	54fffc8d 	b.le	ffff0000000013a8 <shell_user_process+0x380>
ffff00000000141c:	b90057bf 	str	wzr, [x29,#84]
ffff000000001420:	b90053bf 	str	wzr, [x29,#80]
ffff000000001424:	910043a0 	add	x0, x29, #0x10
ffff000000001428:	94000193 	bl	ffff000000001a74 <call_sys_cd>
ffff00000000142c:	7100001f 	cmp	w0, #0x0
ffff000000001430:	54000700 	b.eq	ffff000000001510 <shell_user_process+0x4e8>
ffff000000001434:	14000004 	b	ffff000000001444 <shell_user_process+0x41c>
ffff000000001438:	b94057a0 	ldr	w0, [x29,#84]
ffff00000000143c:	11000400 	add	w0, w0, #0x1
ffff000000001440:	b90057a0 	str	w0, [x29,#84]
ffff000000001444:	90000000 	adrp	x0, ffff000000001000 <invalid>
ffff000000001448:	9130c001 	add	x1, x0, #0xc30
ffff00000000144c:	b98057a0 	ldrsw	x0, [x29,#84]
ffff000000001450:	38606820 	ldrb	w0, [x1,x0]
ffff000000001454:	7100001f 	cmp	w0, #0x0
ffff000000001458:	540000e0 	b.eq	ffff000000001474 <shell_user_process+0x44c>
ffff00000000145c:	90000000 	adrp	x0, ffff000000001000 <invalid>
ffff000000001460:	9130c001 	add	x1, x0, #0xc30
ffff000000001464:	b98057a0 	ldrsw	x0, [x29,#84]
ffff000000001468:	38606820 	ldrb	w0, [x1,x0]
ffff00000000146c:	7100201f 	cmp	w0, #0x8
ffff000000001470:	54fffe41 	b.ne	ffff000000001438 <shell_user_process+0x410>
ffff000000001474:	b94057a0 	ldr	w0, [x29,#84]
ffff000000001478:	11000401 	add	w1, w0, #0x1
ffff00000000147c:	b90057a1 	str	w1, [x29,#84]
ffff000000001480:	90000001 	adrp	x1, ffff000000001000 <invalid>
ffff000000001484:	9130c021 	add	x1, x1, #0xc30
ffff000000001488:	93407c00 	sxtw	x0, w0
ffff00000000148c:	528005e2 	mov	w2, #0x2f                  	// #47
ffff000000001490:	38206822 	strb	w2, [x1,x0]
ffff000000001494:	1400000f 	b	ffff0000000014d0 <shell_user_process+0x4a8>
ffff000000001498:	b94057a1 	ldr	w1, [x29,#84]
ffff00000000149c:	b94053a0 	ldr	w0, [x29,#80]
ffff0000000014a0:	0b000023 	add	w3, w1, w0
ffff0000000014a4:	b98053a0 	ldrsw	x0, [x29,#80]
ffff0000000014a8:	d13e43a1 	sub	x1, x29, #0xf90
ffff0000000014ac:	8b000020 	add	x0, x1, x0
ffff0000000014b0:	397e8002 	ldrb	w2, [x0,#4000]
ffff0000000014b4:	90000000 	adrp	x0, ffff000000001000 <invalid>
ffff0000000014b8:	9130c001 	add	x1, x0, #0xc30
ffff0000000014bc:	93407c60 	sxtw	x0, w3
ffff0000000014c0:	38206822 	strb	w2, [x1,x0]
ffff0000000014c4:	b94053a0 	ldr	w0, [x29,#80]
ffff0000000014c8:	11000400 	add	w0, w0, #0x1
ffff0000000014cc:	b90053a0 	str	w0, [x29,#80]
ffff0000000014d0:	b98053a0 	ldrsw	x0, [x29,#80]
ffff0000000014d4:	d13e43a1 	sub	x1, x29, #0xf90
ffff0000000014d8:	8b000020 	add	x0, x1, x0
ffff0000000014dc:	397e8000 	ldrb	w0, [x0,#4000]
ffff0000000014e0:	7100001f 	cmp	w0, #0x0
ffff0000000014e4:	540000e0 	b.eq	ffff000000001500 <shell_user_process+0x4d8>
ffff0000000014e8:	b98053a0 	ldrsw	x0, [x29,#80]
ffff0000000014ec:	d13e43a1 	sub	x1, x29, #0xf90
ffff0000000014f0:	8b000020 	add	x0, x1, x0
ffff0000000014f4:	397e8000 	ldrb	w0, [x0,#4000]
ffff0000000014f8:	7100801f 	cmp	w0, #0x20
ffff0000000014fc:	54fffce1 	b.ne	ffff000000001498 <shell_user_process+0x470>
ffff000000001500:	b98053a0 	ldrsw	x0, [x29,#80]
ffff000000001504:	d13e43a1 	sub	x1, x29, #0xf90
ffff000000001508:	8b000020 	add	x0, x1, x0
ffff00000000150c:	393e801f 	strb	wzr, [x0,#4000]
ffff000000001510:	90000000 	adrp	x0, ffff000000001000 <invalid>
ffff000000001514:	912fa000 	add	x0, x0, #0xbe8
ffff000000001518:	94000139 	bl	ffff0000000019fc <call_sys_write>
ffff00000000151c:	90000000 	adrp	x0, ffff000000001000 <invalid>
ffff000000001520:	9130c000 	add	x0, x0, #0xc30
ffff000000001524:	94000136 	bl	ffff0000000019fc <call_sys_write>
ffff000000001528:	90000000 	adrp	x0, ffff000000001000 <invalid>
ffff00000000152c:	912f8000 	add	x0, x0, #0xbe0
ffff000000001530:	94000133 	bl	ffff0000000019fc <call_sys_write>
ffff000000001534:	14000128 	b	ffff0000000019d4 <shell_user_process+0x9ac>
ffff000000001538:	97fffeb2 	bl	ffff000000001000 <invalid>
ffff00000000153c:	14000126 	b	ffff0000000019d4 <shell_user_process+0x9ac>
ffff000000001540:	14000125 	b	ffff0000000019d4 <shell_user_process+0x9ac>
ffff000000001544:	3940a3a0 	ldrb	w0, [x29,#40]
ffff000000001548:	7101c81f 	cmp	w0, #0x72
ffff00000000154c:	540008c1 	b.ne	ffff000000001664 <shell_user_process+0x63c>
ffff000000001550:	3940a7a0 	ldrb	w0, [x29,#41]
ffff000000001554:	7101d41f 	cmp	w0, #0x75
ffff000000001558:	54000861 	b.ne	ffff000000001664 <shell_user_process+0x63c>
ffff00000000155c:	3940aba0 	ldrb	w0, [x29,#42]
ffff000000001560:	7101b81f 	cmp	w0, #0x6e
ffff000000001564:	54000801 	b.ne	ffff000000001664 <shell_user_process+0x63c>
ffff000000001568:	3940afa0 	ldrb	w0, [x29,#43]
ffff00000000156c:	7100341f 	cmp	w0, #0xd
ffff000000001570:	540001c1 	b.ne	ffff0000000015a8 <shell_user_process+0x580>
ffff000000001574:	90000000 	adrp	x0, ffff000000001000 <invalid>
ffff000000001578:	91300000 	add	x0, x0, #0xc00
ffff00000000157c:	94000120 	bl	ffff0000000019fc <call_sys_write>
ffff000000001580:	90000000 	adrp	x0, ffff000000001000 <invalid>
ffff000000001584:	912fa000 	add	x0, x0, #0xbe8
ffff000000001588:	9400011d 	bl	ffff0000000019fc <call_sys_write>
ffff00000000158c:	90000000 	adrp	x0, ffff000000001000 <invalid>
ffff000000001590:	9130c000 	add	x0, x0, #0xc30
ffff000000001594:	9400011a 	bl	ffff0000000019fc <call_sys_write>
ffff000000001598:	90000000 	adrp	x0, ffff000000001000 <invalid>
ffff00000000159c:	912f8000 	add	x0, x0, #0xbe0
ffff0000000015a0:	94000117 	bl	ffff0000000019fc <call_sys_write>
ffff0000000015a4:	1400010c 	b	ffff0000000019d4 <shell_user_process+0x9ac>
ffff0000000015a8:	3940afa0 	ldrb	w0, [x29,#43]
ffff0000000015ac:	7100801f 	cmp	w0, #0x20
ffff0000000015b0:	54000561 	b.ne	ffff00000000165c <shell_user_process+0x634>
ffff0000000015b4:	52800080 	mov	w0, #0x4                   	// #4
ffff0000000015b8:	b9004fa0 	str	w0, [x29,#76]
ffff0000000015bc:	b9004bbf 	str	wzr, [x29,#72]
ffff0000000015c0:	14000016 	b	ffff000000001618 <shell_user_process+0x5f0>
ffff0000000015c4:	b9804fa0 	ldrsw	x0, [x29,#76]
ffff0000000015c8:	d13e43a1 	sub	x1, x29, #0xf90
ffff0000000015cc:	8b000020 	add	x0, x1, x0
ffff0000000015d0:	397ee000 	ldrb	w0, [x0,#4024]
ffff0000000015d4:	7100341f 	cmp	w0, #0xd
ffff0000000015d8:	54000280 	b.eq	ffff000000001628 <shell_user_process+0x600>
ffff0000000015dc:	b9804fa0 	ldrsw	x0, [x29,#76]
ffff0000000015e0:	d13e43a1 	sub	x1, x29, #0xf90
ffff0000000015e4:	8b000020 	add	x0, x1, x0
ffff0000000015e8:	397ee002 	ldrb	w2, [x0,#4024]
ffff0000000015ec:	b9804ba0 	ldrsw	x0, [x29,#72]
ffff0000000015f0:	d13e43a1 	sub	x1, x29, #0xf90
ffff0000000015f4:	8b000020 	add	x0, x1, x0
ffff0000000015f8:	2a0203e1 	mov	w1, w2
ffff0000000015fc:	393e8001 	strb	w1, [x0,#4000]
ffff000000001600:	b9404fa0 	ldr	w0, [x29,#76]
ffff000000001604:	11000400 	add	w0, w0, #0x1
ffff000000001608:	b9004fa0 	str	w0, [x29,#76]
ffff00000000160c:	b9404ba0 	ldr	w0, [x29,#72]
ffff000000001610:	11000400 	add	w0, w0, #0x1
ffff000000001614:	b9004ba0 	str	w0, [x29,#72]
ffff000000001618:	b9404fa0 	ldr	w0, [x29,#76]
ffff00000000161c:	7100341f 	cmp	w0, #0xd
ffff000000001620:	54fffd2d 	b.le	ffff0000000015c4 <shell_user_process+0x59c>
ffff000000001624:	14000002 	b	ffff00000000162c <shell_user_process+0x604>
ffff000000001628:	d503201f 	nop
ffff00000000162c:	910043a0 	add	x0, x29, #0x10
ffff000000001630:	9400011a 	bl	ffff000000001a98 <call_sys_run>
ffff000000001634:	90000000 	adrp	x0, ffff000000001000 <invalid>
ffff000000001638:	912fa000 	add	x0, x0, #0xbe8
ffff00000000163c:	940000f0 	bl	ffff0000000019fc <call_sys_write>
ffff000000001640:	90000000 	adrp	x0, ffff000000001000 <invalid>
ffff000000001644:	9130c000 	add	x0, x0, #0xc30
ffff000000001648:	940000ed 	bl	ffff0000000019fc <call_sys_write>
ffff00000000164c:	90000000 	adrp	x0, ffff000000001000 <invalid>
ffff000000001650:	912f8000 	add	x0, x0, #0xbe0
ffff000000001654:	940000ea 	bl	ffff0000000019fc <call_sys_write>
ffff000000001658:	140000df 	b	ffff0000000019d4 <shell_user_process+0x9ac>
ffff00000000165c:	97fffe69 	bl	ffff000000001000 <invalid>
ffff000000001660:	140000dd 	b	ffff0000000019d4 <shell_user_process+0x9ac>
ffff000000001664:	3940a3a0 	ldrb	w0, [x29,#40]
ffff000000001668:	7101b01f 	cmp	w0, #0x6c
ffff00000000166c:	540003a1 	b.ne	ffff0000000016e0 <shell_user_process+0x6b8>
ffff000000001670:	3940a7a0 	ldrb	w0, [x29,#41]
ffff000000001674:	7101cc1f 	cmp	w0, #0x73
ffff000000001678:	54000341 	b.ne	ffff0000000016e0 <shell_user_process+0x6b8>
ffff00000000167c:	3940aba0 	ldrb	w0, [x29,#42]
ffff000000001680:	71018c1f 	cmp	w0, #0x63
ffff000000001684:	540002e1 	b.ne	ffff0000000016e0 <shell_user_process+0x6b8>
ffff000000001688:	3940afa0 	ldrb	w0, [x29,#43]
ffff00000000168c:	7101bc1f 	cmp	w0, #0x6f
ffff000000001690:	54000281 	b.ne	ffff0000000016e0 <shell_user_process+0x6b8>
ffff000000001694:	3940b3a0 	ldrb	w0, [x29,#44]
ffff000000001698:	7101b41f 	cmp	w0, #0x6d
ffff00000000169c:	54000221 	b.ne	ffff0000000016e0 <shell_user_process+0x6b8>
ffff0000000016a0:	3940b7a0 	ldrb	w0, [x29,#45]
ffff0000000016a4:	7100341f 	cmp	w0, #0xd
ffff0000000016a8:	54000181 	b.ne	ffff0000000016d8 <shell_user_process+0x6b0>
ffff0000000016ac:	9400011c 	bl	ffff000000001b1c <call_sys_lscom>
ffff0000000016b0:	90000000 	adrp	x0, ffff000000001000 <invalid>
ffff0000000016b4:	912fa000 	add	x0, x0, #0xbe8
ffff0000000016b8:	940000d1 	bl	ffff0000000019fc <call_sys_write>
ffff0000000016bc:	90000000 	adrp	x0, ffff000000001000 <invalid>
ffff0000000016c0:	9130c000 	add	x0, x0, #0xc30
ffff0000000016c4:	940000ce 	bl	ffff0000000019fc <call_sys_write>
ffff0000000016c8:	90000000 	adrp	x0, ffff000000001000 <invalid>
ffff0000000016cc:	912f8000 	add	x0, x0, #0xbe0
ffff0000000016d0:	940000cb 	bl	ffff0000000019fc <call_sys_write>
ffff0000000016d4:	140000c0 	b	ffff0000000019d4 <shell_user_process+0x9ac>
ffff0000000016d8:	97fffe4a 	bl	ffff000000001000 <invalid>
ffff0000000016dc:	140000be 	b	ffff0000000019d4 <shell_user_process+0x9ac>
ffff0000000016e0:	3940a3a0 	ldrb	w0, [x29,#40]
ffff0000000016e4:	7101b01f 	cmp	w0, #0x6c
ffff0000000016e8:	540003a1 	b.ne	ffff00000000175c <shell_user_process+0x734>
ffff0000000016ec:	3940a7a0 	ldrb	w0, [x29,#41]
ffff0000000016f0:	7101cc1f 	cmp	w0, #0x73
ffff0000000016f4:	54000341 	b.ne	ffff00000000175c <shell_user_process+0x734>
ffff0000000016f8:	3940aba0 	ldrb	w0, [x29,#42]
ffff0000000016fc:	7101901f 	cmp	w0, #0x64
ffff000000001700:	540002e1 	b.ne	ffff00000000175c <shell_user_process+0x734>
ffff000000001704:	3940afa0 	ldrb	w0, [x29,#43]
ffff000000001708:	7101941f 	cmp	w0, #0x65
ffff00000000170c:	54000281 	b.ne	ffff00000000175c <shell_user_process+0x734>
ffff000000001710:	3940b3a0 	ldrb	w0, [x29,#44]
ffff000000001714:	7101d81f 	cmp	w0, #0x76
ffff000000001718:	54000221 	b.ne	ffff00000000175c <shell_user_process+0x734>
ffff00000000171c:	3940b7a0 	ldrb	w0, [x29,#45]
ffff000000001720:	7100341f 	cmp	w0, #0xd
ffff000000001724:	54000181 	b.ne	ffff000000001754 <shell_user_process+0x72c>
ffff000000001728:	940000fa 	bl	ffff000000001b10 <call_sys_lsdev>
ffff00000000172c:	90000000 	adrp	x0, ffff000000001000 <invalid>
ffff000000001730:	912fa000 	add	x0, x0, #0xbe8
ffff000000001734:	940000b2 	bl	ffff0000000019fc <call_sys_write>
ffff000000001738:	90000000 	adrp	x0, ffff000000001000 <invalid>
ffff00000000173c:	9130c000 	add	x0, x0, #0xc30
ffff000000001740:	940000af 	bl	ffff0000000019fc <call_sys_write>
ffff000000001744:	90000000 	adrp	x0, ffff000000001000 <invalid>
ffff000000001748:	912f8000 	add	x0, x0, #0xbe0
ffff00000000174c:	940000ac 	bl	ffff0000000019fc <call_sys_write>
ffff000000001750:	140000a1 	b	ffff0000000019d4 <shell_user_process+0x9ac>
ffff000000001754:	97fffe2b 	bl	ffff000000001000 <invalid>
ffff000000001758:	1400009f 	b	ffff0000000019d4 <shell_user_process+0x9ac>
ffff00000000175c:	3940a3a0 	ldrb	w0, [x29,#40]
ffff000000001760:	7101a41f 	cmp	w0, #0x69
ffff000000001764:	540008c1 	b.ne	ffff00000000187c <shell_user_process+0x854>
ffff000000001768:	3940a7a0 	ldrb	w0, [x29,#41]
ffff00000000176c:	7101b81f 	cmp	w0, #0x6e
ffff000000001770:	54000861 	b.ne	ffff00000000187c <shell_user_process+0x854>
ffff000000001774:	3940aba0 	ldrb	w0, [x29,#42]
ffff000000001778:	71018c1f 	cmp	w0, #0x63
ffff00000000177c:	54000801 	b.ne	ffff00000000187c <shell_user_process+0x854>
ffff000000001780:	3940afa0 	ldrb	w0, [x29,#43]
ffff000000001784:	7101bc1f 	cmp	w0, #0x6f
ffff000000001788:	540007a1 	b.ne	ffff00000000187c <shell_user_process+0x854>
ffff00000000178c:	3940b3a0 	ldrb	w0, [x29,#44]
ffff000000001790:	7101b41f 	cmp	w0, #0x6d
ffff000000001794:	54000741 	b.ne	ffff00000000187c <shell_user_process+0x854>
ffff000000001798:	3940b7a0 	ldrb	w0, [x29,#45]
ffff00000000179c:	7100341f 	cmp	w0, #0xd
ffff0000000017a0:	54000101 	b.ne	ffff0000000017c0 <shell_user_process+0x798>
ffff0000000017a4:	90000000 	adrp	x0, ffff000000001000 <invalid>
ffff0000000017a8:	91300000 	add	x0, x0, #0xc00
ffff0000000017ac:	94000094 	bl	ffff0000000019fc <call_sys_write>
ffff0000000017b0:	90000000 	adrp	x0, ffff000000001000 <invalid>
ffff0000000017b4:	912fa000 	add	x0, x0, #0xbe8
ffff0000000017b8:	94000091 	bl	ffff0000000019fc <call_sys_write>
ffff0000000017bc:	14000086 	b	ffff0000000019d4 <shell_user_process+0x9ac>
ffff0000000017c0:	3940b7a0 	ldrb	w0, [x29,#45]
ffff0000000017c4:	7100801f 	cmp	w0, #0x20
ffff0000000017c8:	54000561 	b.ne	ffff000000001874 <shell_user_process+0x84c>
ffff0000000017cc:	528000c0 	mov	w0, #0x6                   	// #6
ffff0000000017d0:	b90047a0 	str	w0, [x29,#68]
ffff0000000017d4:	b90043bf 	str	wzr, [x29,#64]
ffff0000000017d8:	14000016 	b	ffff000000001830 <shell_user_process+0x808>
ffff0000000017dc:	b98047a0 	ldrsw	x0, [x29,#68]
ffff0000000017e0:	d13e43a1 	sub	x1, x29, #0xf90
ffff0000000017e4:	8b000020 	add	x0, x1, x0
ffff0000000017e8:	397ee000 	ldrb	w0, [x0,#4024]
ffff0000000017ec:	7100341f 	cmp	w0, #0xd
ffff0000000017f0:	54000280 	b.eq	ffff000000001840 <shell_user_process+0x818>
ffff0000000017f4:	b98047a0 	ldrsw	x0, [x29,#68]
ffff0000000017f8:	d13e43a1 	sub	x1, x29, #0xf90
ffff0000000017fc:	8b000020 	add	x0, x1, x0
ffff000000001800:	397ee002 	ldrb	w2, [x0,#4024]
ffff000000001804:	b98043a0 	ldrsw	x0, [x29,#64]
ffff000000001808:	d13e43a1 	sub	x1, x29, #0xf90
ffff00000000180c:	8b000020 	add	x0, x1, x0
ffff000000001810:	2a0203e1 	mov	w1, w2
ffff000000001814:	393e8001 	strb	w1, [x0,#4000]
ffff000000001818:	b94047a0 	ldr	w0, [x29,#68]
ffff00000000181c:	11000400 	add	w0, w0, #0x1
ffff000000001820:	b90047a0 	str	w0, [x29,#68]
ffff000000001824:	b94043a0 	ldr	w0, [x29,#64]
ffff000000001828:	11000400 	add	w0, w0, #0x1
ffff00000000182c:	b90043a0 	str	w0, [x29,#64]
ffff000000001830:	b94047a0 	ldr	w0, [x29,#68]
ffff000000001834:	71004c1f 	cmp	w0, #0x13
ffff000000001838:	54fffd2d 	b.le	ffff0000000017dc <shell_user_process+0x7b4>
ffff00000000183c:	14000002 	b	ffff000000001844 <shell_user_process+0x81c>
ffff000000001840:	d503201f 	nop
ffff000000001844:	910043a0 	add	x0, x29, #0x10
ffff000000001848:	94000097 	bl	ffff000000001aa4 <call_sys_com>
ffff00000000184c:	90000000 	adrp	x0, ffff000000001000 <invalid>
ffff000000001850:	912fa000 	add	x0, x0, #0xbe8
ffff000000001854:	9400006a 	bl	ffff0000000019fc <call_sys_write>
ffff000000001858:	90000000 	adrp	x0, ffff000000001000 <invalid>
ffff00000000185c:	9130c000 	add	x0, x0, #0xc30
ffff000000001860:	94000067 	bl	ffff0000000019fc <call_sys_write>
ffff000000001864:	90000000 	adrp	x0, ffff000000001000 <invalid>
ffff000000001868:	912f8000 	add	x0, x0, #0xbe0
ffff00000000186c:	94000064 	bl	ffff0000000019fc <call_sys_write>
ffff000000001870:	14000059 	b	ffff0000000019d4 <shell_user_process+0x9ac>
ffff000000001874:	97fffde3 	bl	ffff000000001000 <invalid>
ffff000000001878:	14000057 	b	ffff0000000019d4 <shell_user_process+0x9ac>
ffff00000000187c:	3940a3a0 	ldrb	w0, [x29,#40]
ffff000000001880:	7101c81f 	cmp	w0, #0x72
ffff000000001884:	540008c1 	b.ne	ffff00000000199c <shell_user_process+0x974>
ffff000000001888:	3940a7a0 	ldrb	w0, [x29,#41]
ffff00000000188c:	7101b41f 	cmp	w0, #0x6d
ffff000000001890:	54000861 	b.ne	ffff00000000199c <shell_user_process+0x974>
ffff000000001894:	3940aba0 	ldrb	w0, [x29,#42]
ffff000000001898:	71018c1f 	cmp	w0, #0x63
ffff00000000189c:	54000801 	b.ne	ffff00000000199c <shell_user_process+0x974>
ffff0000000018a0:	3940afa0 	ldrb	w0, [x29,#43]
ffff0000000018a4:	7101bc1f 	cmp	w0, #0x6f
ffff0000000018a8:	540007a1 	b.ne	ffff00000000199c <shell_user_process+0x974>
ffff0000000018ac:	3940b3a0 	ldrb	w0, [x29,#44]
ffff0000000018b0:	7101b41f 	cmp	w0, #0x6d
ffff0000000018b4:	54000741 	b.ne	ffff00000000199c <shell_user_process+0x974>
ffff0000000018b8:	3940b7a0 	ldrb	w0, [x29,#45]
ffff0000000018bc:	7100341f 	cmp	w0, #0xd
ffff0000000018c0:	54000101 	b.ne	ffff0000000018e0 <shell_user_process+0x8b8>
ffff0000000018c4:	90000000 	adrp	x0, ffff000000001000 <invalid>
ffff0000000018c8:	91300000 	add	x0, x0, #0xc00
ffff0000000018cc:	9400004c 	bl	ffff0000000019fc <call_sys_write>
ffff0000000018d0:	90000000 	adrp	x0, ffff000000001000 <invalid>
ffff0000000018d4:	912fa000 	add	x0, x0, #0xbe8
ffff0000000018d8:	94000049 	bl	ffff0000000019fc <call_sys_write>
ffff0000000018dc:	1400003e 	b	ffff0000000019d4 <shell_user_process+0x9ac>
ffff0000000018e0:	3940b7a0 	ldrb	w0, [x29,#45]
ffff0000000018e4:	7100801f 	cmp	w0, #0x20
ffff0000000018e8:	54000561 	b.ne	ffff000000001994 <shell_user_process+0x96c>
ffff0000000018ec:	528000c0 	mov	w0, #0x6                   	// #6
ffff0000000018f0:	b9003fa0 	str	w0, [x29,#60]
ffff0000000018f4:	b9003bbf 	str	wzr, [x29,#56]
ffff0000000018f8:	14000016 	b	ffff000000001950 <shell_user_process+0x928>
ffff0000000018fc:	b9803fa0 	ldrsw	x0, [x29,#60]
ffff000000001900:	d13e43a1 	sub	x1, x29, #0xf90
ffff000000001904:	8b000020 	add	x0, x1, x0
ffff000000001908:	397ee000 	ldrb	w0, [x0,#4024]
ffff00000000190c:	7100341f 	cmp	w0, #0xd
ffff000000001910:	54000280 	b.eq	ffff000000001960 <shell_user_process+0x938>
ffff000000001914:	b9803fa0 	ldrsw	x0, [x29,#60]
ffff000000001918:	d13e43a1 	sub	x1, x29, #0xf90
ffff00000000191c:	8b000020 	add	x0, x1, x0
ffff000000001920:	397ee002 	ldrb	w2, [x0,#4024]
ffff000000001924:	b9803ba0 	ldrsw	x0, [x29,#56]
ffff000000001928:	d13e43a1 	sub	x1, x29, #0xf90
ffff00000000192c:	8b000020 	add	x0, x1, x0
ffff000000001930:	2a0203e1 	mov	w1, w2
ffff000000001934:	393e8001 	strb	w1, [x0,#4000]
ffff000000001938:	b9403fa0 	ldr	w0, [x29,#60]
ffff00000000193c:	11000400 	add	w0, w0, #0x1
ffff000000001940:	b9003fa0 	str	w0, [x29,#60]
ffff000000001944:	b9403ba0 	ldr	w0, [x29,#56]
ffff000000001948:	11000400 	add	w0, w0, #0x1
ffff00000000194c:	b9003ba0 	str	w0, [x29,#56]
ffff000000001950:	b9403fa0 	ldr	w0, [x29,#60]
ffff000000001954:	71004c1f 	cmp	w0, #0x13
ffff000000001958:	54fffd2d 	b.le	ffff0000000018fc <shell_user_process+0x8d4>
ffff00000000195c:	14000002 	b	ffff000000001964 <shell_user_process+0x93c>
ffff000000001960:	d503201f 	nop
ffff000000001964:	910043a0 	add	x0, x29, #0x10
ffff000000001968:	94000067 	bl	ffff000000001b04 <call_sys_rmcom>
ffff00000000196c:	90000000 	adrp	x0, ffff000000001000 <invalid>
ffff000000001970:	912fa000 	add	x0, x0, #0xbe8
ffff000000001974:	94000022 	bl	ffff0000000019fc <call_sys_write>
ffff000000001978:	90000000 	adrp	x0, ffff000000001000 <invalid>
ffff00000000197c:	9130c000 	add	x0, x0, #0xc30
ffff000000001980:	9400001f 	bl	ffff0000000019fc <call_sys_write>
ffff000000001984:	90000000 	adrp	x0, ffff000000001000 <invalid>
ffff000000001988:	912f8000 	add	x0, x0, #0xbe0
ffff00000000198c:	9400001c 	bl	ffff0000000019fc <call_sys_write>
ffff000000001990:	14000011 	b	ffff0000000019d4 <shell_user_process+0x9ac>
ffff000000001994:	97fffd9b 	bl	ffff000000001000 <invalid>
ffff000000001998:	1400000f 	b	ffff0000000019d4 <shell_user_process+0x9ac>
ffff00000000199c:	3940a3a0 	ldrb	w0, [x29,#40]
ffff0000000019a0:	7100341f 	cmp	w0, #0xd
ffff0000000019a4:	54000060 	b.eq	ffff0000000019b0 <shell_user_process+0x988>
ffff0000000019a8:	97fffd96 	bl	ffff000000001000 <invalid>
ffff0000000019ac:	1400000a 	b	ffff0000000019d4 <shell_user_process+0x9ac>
ffff0000000019b0:	90000000 	adrp	x0, ffff000000001000 <invalid>
ffff0000000019b4:	912fa000 	add	x0, x0, #0xbe8
ffff0000000019b8:	94000011 	bl	ffff0000000019fc <call_sys_write>
ffff0000000019bc:	90000000 	adrp	x0, ffff000000001000 <invalid>
ffff0000000019c0:	9130c000 	add	x0, x0, #0xc30
ffff0000000019c4:	9400000e 	bl	ffff0000000019fc <call_sys_write>
ffff0000000019c8:	90000000 	adrp	x0, ffff000000001000 <invalid>
ffff0000000019cc:	912f8000 	add	x0, x0, #0xbe0
ffff0000000019d0:	9400000b 	bl	ffff0000000019fc <call_sys_write>
ffff0000000019d4:	90000000 	adrp	x0, ffff000000001000 <invalid>
ffff0000000019d8:	91314000 	add	x0, x0, #0xc50
ffff0000000019dc:	b900001f 	str	wzr, [x0]
ffff0000000019e0:	17fffdbc 	b	ffff0000000010d0 <shell_user_process+0xa8>
ffff0000000019e4:	910083a0 	add	x0, x29, #0x20
ffff0000000019e8:	94000005 	bl	ffff0000000019fc <call_sys_write>
ffff0000000019ec:	17fffdb9 	b	ffff0000000010d0 <shell_user_process+0xa8>

ffff0000000019f0 <user_delay>:
ffff0000000019f0:	f1000400 	subs	x0, x0, #0x1
ffff0000000019f4:	54ffffe1 	b.ne	ffff0000000019f0 <user_delay>
ffff0000000019f8:	d65f03c0 	ret

ffff0000000019fc <call_sys_write>:
ffff0000000019fc:	52800008 	mov	w8, #0x0                   	// #0
ffff000000001a00:	d4000001 	svc	#0x0
ffff000000001a04:	d65f03c0 	ret

ffff000000001a08 <call_sys_exit>:
ffff000000001a08:	52800048 	mov	w8, #0x2                   	// #2
ffff000000001a0c:	d4000001 	svc	#0x0
ffff000000001a10:	d65f03c0 	ret

ffff000000001a14 <call_sys_fork>:
ffff000000001a14:	52800028 	mov	w8, #0x1                   	// #1
ffff000000001a18:	d4000001 	svc	#0x0
ffff000000001a1c:	d65f03c0 	ret

ffff000000001a20 <call_sys_led>:
ffff000000001a20:	52800068 	mov	w8, #0x3                   	// #3
ffff000000001a24:	d4000001 	svc	#0x0
ffff000000001a28:	d65f03c0 	ret

ffff000000001a2c <call_sys_read>:
ffff000000001a2c:	52800088 	mov	w8, #0x4                   	// #4
ffff000000001a30:	d4000001 	svc	#0x0
ffff000000001a34:	d65f03c0 	ret

ffff000000001a38 <thread_create>:
ffff000000001a38:	528000a8 	mov	w8, #0x5                   	// #5
ffff000000001a3c:	d4000001 	svc	#0x0
ffff000000001a40:	d65f03c0 	ret

ffff000000001a44 <thread_self>:
ffff000000001a44:	528000c8 	mov	w8, #0x6                   	// #6
ffff000000001a48:	d4000001 	svc	#0x0
ffff000000001a4c:	d65f03c0 	ret

ffff000000001a50 <thread_join>:
ffff000000001a50:	528000e8 	mov	w8, #0x7                   	// #7
ffff000000001a54:	d4000001 	svc	#0x0
ffff000000001a58:	d65f03c0 	ret

ffff000000001a5c <thread_cond_signal>:
ffff000000001a5c:	52800128 	mov	w8, #0x9                   	// #9
ffff000000001a60:	d4000001 	svc	#0x0
ffff000000001a64:	d65f03c0 	ret

ffff000000001a68 <call_sys_list>:
ffff000000001a68:	52800148 	mov	w8, #0xa                   	// #10
ffff000000001a6c:	d4000001 	svc	#0x0
ffff000000001a70:	d65f03c0 	ret

ffff000000001a74 <call_sys_cd>:
ffff000000001a74:	52800168 	mov	w8, #0xb                   	// #11
ffff000000001a78:	d4000001 	svc	#0x0
ffff000000001a7c:	d65f03c0 	ret

ffff000000001a80 <call_sys_dump>:
ffff000000001a80:	52800188 	mov	w8, #0xc                   	// #12
ffff000000001a84:	d4000001 	svc	#0x0
ffff000000001a88:	d65f03c0 	ret

ffff000000001a8c <call_sys_root>:
ffff000000001a8c:	528001a8 	mov	w8, #0xd                   	// #13
ffff000000001a90:	d4000001 	svc	#0x0
ffff000000001a94:	d65f03c0 	ret

ffff000000001a98 <call_sys_run>:
ffff000000001a98:	528001c8 	mov	w8, #0xe                   	// #14
ffff000000001a9c:	d4000001 	svc	#0x0
ffff000000001aa0:	d65f03c0 	ret

ffff000000001aa4 <call_sys_com>:
ffff000000001aa4:	52800288 	mov	w8, #0x14                  	// #20
ffff000000001aa8:	d4000001 	svc	#0x0
ffff000000001aac:	d65f03c0 	ret

ffff000000001ab0 <call_sys_send>:
ffff000000001ab0:	528001e8 	mov	w8, #0xf                   	// #15
ffff000000001ab4:	d4000001 	svc	#0x0
ffff000000001ab8:	d65f03c0 	ret

ffff000000001abc <call_sys_recv>:
ffff000000001abc:	52800208 	mov	w8, #0x10                  	// #16
ffff000000001ac0:	d4000001 	svc	#0x0
ffff000000001ac4:	d65f03c0 	ret

ffff000000001ac8 <thread_mutex_trylock>:
ffff000000001ac8:	52800228 	mov	w8, #0x11                  	// #17
ffff000000001acc:	d4000001 	svc	#0x0
ffff000000001ad0:	d65f03c0 	ret

ffff000000001ad4 <thread_mutex_lock>:
ffff000000001ad4:	52800248 	mov	w8, #0x12                  	// #18
ffff000000001ad8:	d4000001 	svc	#0x0
ffff000000001adc:	d65f03c0 	ret

ffff000000001ae0 <thread_mutex_unlock>:
ffff000000001ae0:	52800268 	mov	w8, #0x13                  	// #19
ffff000000001ae4:	d4000001 	svc	#0x0
ffff000000001ae8:	d65f03c0 	ret

ffff000000001aec <call_sys_allocate_page>:
ffff000000001aec:	528002a8 	mov	w8, #0x15                  	// #21
ffff000000001af0:	d4000001 	svc	#0x0
ffff000000001af4:	d65f03c0 	ret

ffff000000001af8 <call_sys_free_page>:
ffff000000001af8:	528002c8 	mov	w8, #0x16                  	// #22
ffff000000001afc:	d4000001 	svc	#0x0
ffff000000001b00:	d65f03c0 	ret

ffff000000001b04 <call_sys_rmcom>:
ffff000000001b04:	528002e8 	mov	w8, #0x17                  	// #23
ffff000000001b08:	d4000001 	svc	#0x0
ffff000000001b0c:	d65f03c0 	ret

ffff000000001b10 <call_sys_lsdev>:
ffff000000001b10:	52800308 	mov	w8, #0x18                  	// #24
ffff000000001b14:	d4000001 	svc	#0x0
ffff000000001b18:	d65f03c0 	ret

ffff000000001b1c <call_sys_lscom>:
ffff000000001b1c:	52800328 	mov	w8, #0x19                  	// #25
ffff000000001b20:	d4000001 	svc	#0x0
ffff000000001b24:	d65f03c0 	ret

ffff000000001b28 <call_sys_fopen>:
ffff000000001b28:	52800348 	mov	w8, #0x1a                  	// #26
ffff000000001b2c:	d4000001 	svc	#0x0
ffff000000001b30:	d65f03c0 	ret

ffff000000001b34 <call_sys_fwrite>:
ffff000000001b34:	52800368 	mov	w8, #0x1b                  	// #27
ffff000000001b38:	d4000001 	svc	#0x0
ffff000000001b3c:	d65f03c0 	ret

ffff000000001b40 <call_sys_fclose>:
ffff000000001b40:	52800388 	mov	w8, #0x1c                  	// #28
ffff000000001b44:	d4000001 	svc	#0x0
ffff000000001b48:	d65f03c0 	ret

ffff000000001b4c <call_sys_fscanf>:
ffff000000001b4c:	528003a8 	mov	w8, #0x1d                  	// #29
ffff000000001b50:	d4000001 	svc	#0x0
ffff000000001b54:	d65f03c0 	ret

ffff000000001b58 <thread_equal>:
ffff000000001b58:	eb01001f 	cmp	x0, x1
ffff000000001b5c:	54000060 	b.eq	ffff000000001b68 <eq>
ffff000000001b60:	d2800000 	mov	x0, #0x0                   	// #0
ffff000000001b64:	14000002 	b	ffff000000001b6c <neq>

ffff000000001b68 <eq>:
ffff000000001b68:	d2800020 	mov	x0, #0x1                   	// #1

ffff000000001b6c <neq>:
ffff000000001b6c:	d65f03c0 	ret

ffff000000001b70 <sp_info>:
ffff000000001b70:	f94003e0 	ldr	x0, [sp]
ffff000000001b74:	d65f03c0 	ret

Disassembly of section .rodata.user:

ffff000000001b78 <.rodata.user>:
ffff000000001b78:	6f4e0d0a 	.word	0x6f4e0d0a
ffff000000001b7c:	75732074 	.word	0x75732074
ffff000000001b80:	726f7070 	.word	0x726f7070
ffff000000001b84:	68742074 	.word	0x68742074
ffff000000001b88:	63207369 	.word	0x63207369
ffff000000001b8c:	616d6d6f 	.word	0x616d6d6f
ffff000000001b90:	0a21646e 	.word	0x0a21646e
ffff000000001b94:	656b740d 	.word	0x656b740d
ffff000000001b98:	6c656e72 	.word	0x6c656e72
ffff000000001b9c:	65737540 	.word	0x65737540
ffff000000001ba0:	616e5f72 	.word	0x616e5f72
ffff000000001ba4:	253a656d 	.word	0x253a656d
ffff000000001ba8:	00002473 	.word	0x00002473
ffff000000001bac:	00000000 	.word	0x00000000
ffff000000001bb0:	6c656853 	.word	0x6c656853
ffff000000001bb4:	7473206c 	.word	0x7473206c
ffff000000001bb8:	0a747261 	.word	0x0a747261
ffff000000001bbc:	0000000d 	.word	0x0000000d
ffff000000001bc0:	72656b74 	.word	0x72656b74
ffff000000001bc4:	406c656e 	.word	0x406c656e
ffff000000001bc8:	72657375 	.word	0x72657375
ffff000000001bcc:	6d616e5f 	.word	0x6d616e5f
ffff000000001bd0:	00003a65 	.word	0x00003a65
ffff000000001bd4:	00000000 	.word	0x00000000
ffff000000001bd8:	00007325 	.word	0x00007325
ffff000000001bdc:	00000000 	.word	0x00000000
ffff000000001be0:	00000024 	.word	0x00000024
ffff000000001be4:	00000000 	.word	0x00000000
ffff000000001be8:	6b740d0a 	.word	0x6b740d0a
ffff000000001bec:	656e7265 	.word	0x656e7265
ffff000000001bf0:	7375406c 	.word	0x7375406c
ffff000000001bf4:	6e5f7265 	.word	0x6e5f7265
ffff000000001bf8:	3a656d61 	.word	0x3a656d61
ffff000000001bfc:	00000000 	.word	0x00000000
ffff000000001c00:	69570d0a 	.word	0x69570d0a
ffff000000001c04:	756f6874 	.word	0x756f6874
ffff000000001c08:	6e692074 	.word	0x6e692074
ffff000000001c0c:	20747570 	.word	0x20747570
ffff000000001c10:	656c6966 	.word	0x656c6966
ffff000000001c14:	00000021 	.word	0x00000021
	...

Disassembly of section .data.user:

ffff000000001c30 <directory>:
ffff000000001c30:	746f6f72 	.word	0x746f6f72
	...

Disassembly of section .bss.user:

ffff000000001c50 <index.1611>:
ffff000000001c50:	00000000 	.word	0x00000000

Disassembly of section .text:

ffff000000002000 <fat32_getcluster>:
ffff000000002000:	a9bb7bfd 	stp	x29, x30, [sp,#-80]!
ffff000000002004:	910003fd 	mov	x29, sp
ffff000000002008:	f90017a0 	str	x0, [x29,#40]
ffff00000000200c:	f90013a1 	str	x1, [x29,#32]
ffff000000002010:	f9000fa2 	str	x2, [x29,#24]
ffff000000002014:	f9400fa0 	ldr	x0, [x29,#24]
ffff000000002018:	b9400000 	ldr	w0, [x0]
ffff00000000201c:	2a0003e1 	mov	w1, w0
ffff000000002020:	90000500 	adrp	x0, ffff0000000a2000 <_end>
ffff000000002024:	91000000 	add	x0, x0, #0x0
ffff000000002028:	8b000020 	add	x0, x1, x0
ffff00000000202c:	f90023a0 	str	x0, [x29,#64]
ffff000000002030:	90000500 	adrp	x0, ffff0000000a2000 <_end>
ffff000000002034:	91200000 	add	x0, x0, #0x800
ffff000000002038:	f90027a0 	str	x0, [x29,#72]
ffff00000000203c:	f94023a0 	ldr	x0, [x29,#64]
ffff000000002040:	b9402400 	ldr	w0, [x0,#36]
ffff000000002044:	f94023a1 	ldr	x1, [x29,#64]
ffff000000002048:	39404021 	ldrb	w1, [x1,#16]
ffff00000000204c:	1b017c00 	mul	w0, w0, w1
ffff000000002050:	f94023a1 	ldr	x1, [x29,#64]
ffff000000002054:	79401c21 	ldrh	w1, [x1,#14]
ffff000000002058:	0b010000 	add	w0, w0, w1
ffff00000000205c:	b9003fa0 	str	w0, [x29,#60]
ffff000000002060:	f94023a0 	ldr	x0, [x29,#64]
ffff000000002064:	39404400 	ldrb	w0, [x0,#17]
ffff000000002068:	2a0003e1 	mov	w1, w0
ffff00000000206c:	f94023a0 	ldr	x0, [x29,#64]
ffff000000002070:	39404800 	ldrb	w0, [x0,#18]
ffff000000002074:	53185c00 	lsl	w0, w0, #8
ffff000000002078:	0b000020 	add	w0, w1, w0
ffff00000000207c:	93407c00 	sxtw	x0, w0
ffff000000002080:	531b6800 	lsl	w0, w0, #5
ffff000000002084:	b9003ba0 	str	w0, [x29,#56]
ffff000000002088:	f94023a0 	ldr	x0, [x29,#64]
ffff00000000208c:	b9402c00 	ldr	w0, [x0,#44]
ffff000000002090:	51000800 	sub	w0, w0, #0x2
ffff000000002094:	f94023a1 	ldr	x1, [x29,#64]
ffff000000002098:	39403421 	ldrb	w1, [x1,#13]
ffff00000000209c:	1b017c00 	mul	w0, w0, w1
ffff0000000020a0:	b9403fa1 	ldr	w1, [x29,#60]
ffff0000000020a4:	0b000020 	add	w0, w1, w0
ffff0000000020a8:	b9003fa0 	str	w0, [x29,#60]
ffff0000000020ac:	f9400fa0 	ldr	x0, [x29,#24]
ffff0000000020b0:	b9400400 	ldr	w0, [x0,#4]
ffff0000000020b4:	b9403fa1 	ldr	w1, [x29,#60]
ffff0000000020b8:	0b000020 	add	w0, w1, w0
ffff0000000020bc:	b9003fa0 	str	w0, [x29,#60]
ffff0000000020c0:	b9403ba0 	ldr	w0, [x29,#56]
ffff0000000020c4:	53097c00 	lsr	w0, w0, #9
ffff0000000020c8:	11000400 	add	w0, w0, #0x1
ffff0000000020cc:	2a0003e3 	mov	w3, w0
ffff0000000020d0:	f94027a2 	ldr	x2, [x29,#72]
ffff0000000020d4:	b9403fa1 	ldr	w1, [x29,#60]
ffff0000000020d8:	52800020 	mov	w0, #0x1                   	// #1
ffff0000000020dc:	94000f64 	bl	ffff000000005e6c <kservice_dev_read>
ffff0000000020e0:	7100001f 	cmp	w0, #0x0
ffff0000000020e4:	54000400 	b.eq	ffff000000002164 <fat32_getcluster+0x164>
ffff0000000020e8:	1400001a 	b	ffff000000002150 <fat32_getcluster+0x150>
ffff0000000020ec:	f94027a0 	ldr	x0, [x29,#72]
ffff0000000020f0:	39400000 	ldrb	w0, [x0]
ffff0000000020f4:	7103941f 	cmp	w0, #0xe5
ffff0000000020f8:	54000240 	b.eq	ffff000000002140 <fat32_getcluster+0x140>
ffff0000000020fc:	f94027a0 	ldr	x0, [x29,#72]
ffff000000002100:	39402c00 	ldrb	w0, [x0,#11]
ffff000000002104:	71003c1f 	cmp	w0, #0xf
ffff000000002108:	540001c0 	b.eq	ffff000000002140 <fat32_getcluster+0x140>
ffff00000000210c:	f94027a0 	ldr	x0, [x29,#72]
ffff000000002110:	52800102 	mov	w2, #0x8                   	// #8
ffff000000002114:	f94013a1 	ldr	x1, [x29,#32]
ffff000000002118:	94003996 	bl	ffff000000010770 <memcmp>
ffff00000000211c:	7100001f 	cmp	w0, #0x0
ffff000000002120:	54000121 	b.ne	ffff000000002144 <fat32_getcluster+0x144>
ffff000000002124:	f94027a0 	ldr	x0, [x29,#72]
ffff000000002128:	79402800 	ldrh	w0, [x0,#20]
ffff00000000212c:	53103c00 	lsl	w0, w0, #16
ffff000000002130:	f94027a1 	ldr	x1, [x29,#72]
ffff000000002134:	79403421 	ldrh	w1, [x1,#26]
ffff000000002138:	2a010000 	orr	w0, w0, w1
ffff00000000213c:	1400000e 	b	ffff000000002174 <fat32_getcluster+0x174>
ffff000000002140:	d503201f 	nop
ffff000000002144:	f94027a0 	ldr	x0, [x29,#72]
ffff000000002148:	91008000 	add	x0, x0, #0x20
ffff00000000214c:	f90027a0 	str	x0, [x29,#72]
ffff000000002150:	f94027a0 	ldr	x0, [x29,#72]
ffff000000002154:	39400000 	ldrb	w0, [x0]
ffff000000002158:	7101541f 	cmp	w0, #0x55
ffff00000000215c:	54fffc81 	b.ne	ffff0000000020ec <fat32_getcluster+0xec>
ffff000000002160:	14000004 	b	ffff000000002170 <fat32_getcluster+0x170>
ffff000000002164:	f0000060 	adrp	x0, ffff000000011000 <irq_invalid_el1t+0x14>
ffff000000002168:	9127c000 	add	x0, x0, #0x9f0
ffff00000000216c:	940024af 	bl	ffff00000000b428 <uart_puts>
ffff000000002170:	52800000 	mov	w0, #0x0                   	// #0
ffff000000002174:	a8c57bfd 	ldp	x29, x30, [sp],#80
ffff000000002178:	d65f03c0 	ret

ffff00000000217c <fat32_readfile>:
ffff00000000217c:	a9ba7bfd 	stp	x29, x30, [sp,#-96]!
ffff000000002180:	910003fd 	mov	x29, sp
ffff000000002184:	f90017a0 	str	x0, [x29,#40]
ffff000000002188:	b90027a1 	str	w1, [x29,#36]
ffff00000000218c:	f9000fa2 	str	x2, [x29,#24]
ffff000000002190:	f9400fa0 	ldr	x0, [x29,#24]
ffff000000002194:	b9400000 	ldr	w0, [x0]
ffff000000002198:	2a0003e1 	mov	w1, w0
ffff00000000219c:	90000500 	adrp	x0, ffff0000000a2000 <_end>
ffff0000000021a0:	91000000 	add	x0, x0, #0x0
ffff0000000021a4:	8b000020 	add	x0, x1, x0
ffff0000000021a8:	f9002ba0 	str	x0, [x29,#80]
ffff0000000021ac:	f9400fa0 	ldr	x0, [x29,#24]
ffff0000000021b0:	b9401000 	ldr	w0, [x0,#16]
ffff0000000021b4:	2a0003e1 	mov	w1, w0
ffff0000000021b8:	f9402ba0 	ldr	x0, [x29,#80]
ffff0000000021bc:	79401c00 	ldrh	w0, [x0,#14]
ffff0000000021c0:	53175800 	lsl	w0, w0, #9
ffff0000000021c4:	93407c00 	sxtw	x0, w0
ffff0000000021c8:	8b000020 	add	x0, x1, x0
ffff0000000021cc:	d1080001 	sub	x1, x0, #0x200
ffff0000000021d0:	d0ffffe0 	adrp	x0, ffff000000000000 <_start>
ffff0000000021d4:	91000000 	add	x0, x0, #0x0
ffff0000000021d8:	8b000020 	add	x0, x1, x0
ffff0000000021dc:	f90027a0 	str	x0, [x29,#72]
ffff0000000021e0:	f9402ba0 	ldr	x0, [x29,#80]
ffff0000000021e4:	b9402400 	ldr	w0, [x0,#36]
ffff0000000021e8:	f9402ba1 	ldr	x1, [x29,#80]
ffff0000000021ec:	39404021 	ldrb	w1, [x1,#16]
ffff0000000021f0:	1b017c00 	mul	w0, w0, w1
ffff0000000021f4:	f9402ba1 	ldr	x1, [x29,#80]
ffff0000000021f8:	79401c21 	ldrh	w1, [x1,#14]
ffff0000000021fc:	0b010000 	add	w0, w0, w1
ffff000000002200:	b90047a0 	str	w0, [x29,#68]
ffff000000002204:	f9402ba0 	ldr	x0, [x29,#80]
ffff000000002208:	39404400 	ldrb	w0, [x0,#17]
ffff00000000220c:	2a0003e1 	mov	w1, w0
ffff000000002210:	f9402ba0 	ldr	x0, [x29,#80]
ffff000000002214:	39404800 	ldrb	w0, [x0,#18]
ffff000000002218:	53185c00 	lsl	w0, w0, #8
ffff00000000221c:	0b000020 	add	w0, w1, w0
ffff000000002220:	93407c00 	sxtw	x0, w0
ffff000000002224:	531b6800 	lsl	w0, w0, #5
ffff000000002228:	b90043a0 	str	w0, [x29,#64]
ffff00000000222c:	f9400fa0 	ldr	x0, [x29,#24]
ffff000000002230:	b9400400 	ldr	w0, [x0,#4]
ffff000000002234:	b94047a1 	ldr	w1, [x29,#68]
ffff000000002238:	0b000020 	add	w0, w1, w0
ffff00000000223c:	b90047a0 	str	w0, [x29,#68]
ffff000000002240:	90000500 	adrp	x0, ffff0000000a2000 <_end>
ffff000000002244:	91200000 	add	x0, x0, #0x800
ffff000000002248:	f9002fa0 	str	x0, [x29,#88]
ffff00000000224c:	f9402fa0 	ldr	x0, [x29,#88]
ffff000000002250:	f9001fa0 	str	x0, [x29,#56]
ffff000000002254:	14000024 	b	ffff0000000022e4 <fat32_readfile+0x168>
ffff000000002258:	b94027a0 	ldr	w0, [x29,#36]
ffff00000000225c:	51000800 	sub	w0, w0, #0x2
ffff000000002260:	f9402ba1 	ldr	x1, [x29,#80]
ffff000000002264:	39403421 	ldrb	w1, [x1,#13]
ffff000000002268:	1b017c00 	mul	w0, w0, w1
ffff00000000226c:	2a0003e1 	mov	w1, w0
ffff000000002270:	b94047a0 	ldr	w0, [x29,#68]
ffff000000002274:	0b000021 	add	w1, w1, w0
ffff000000002278:	f9402ba0 	ldr	x0, [x29,#80]
ffff00000000227c:	39403400 	ldrb	w0, [x0,#13]
ffff000000002280:	2a0003e3 	mov	w3, w0
ffff000000002284:	f9402fa2 	ldr	x2, [x29,#88]
ffff000000002288:	52800020 	mov	w0, #0x1                   	// #1
ffff00000000228c:	94000ef8 	bl	ffff000000005e6c <kservice_dev_read>
ffff000000002290:	f9402ba0 	ldr	x0, [x29,#80]
ffff000000002294:	39403400 	ldrb	w0, [x0,#13]
ffff000000002298:	2a0003e1 	mov	w1, w0
ffff00000000229c:	f9402ba0 	ldr	x0, [x29,#80]
ffff0000000022a0:	39402c00 	ldrb	w0, [x0,#11]
ffff0000000022a4:	2a0003e2 	mov	w2, w0
ffff0000000022a8:	f9402ba0 	ldr	x0, [x29,#80]
ffff0000000022ac:	39403000 	ldrb	w0, [x0,#12]
ffff0000000022b0:	53185c00 	lsl	w0, w0, #8
ffff0000000022b4:	0b000040 	add	w0, w2, w0
ffff0000000022b8:	1b007c20 	mul	w0, w1, w0
ffff0000000022bc:	93407c00 	sxtw	x0, w0
ffff0000000022c0:	f9402fa1 	ldr	x1, [x29,#88]
ffff0000000022c4:	8b000020 	add	x0, x1, x0
ffff0000000022c8:	f9002fa0 	str	x0, [x29,#88]
ffff0000000022cc:	b98027a0 	ldrsw	x0, [x29,#36]
ffff0000000022d0:	d37ef400 	lsl	x0, x0, #2
ffff0000000022d4:	f94027a1 	ldr	x1, [x29,#72]
ffff0000000022d8:	8b000020 	add	x0, x1, x0
ffff0000000022dc:	b9400000 	ldr	w0, [x0]
ffff0000000022e0:	b90027a0 	str	w0, [x29,#36]
ffff0000000022e4:	b94027a0 	ldr	w0, [x29,#36]
ffff0000000022e8:	7100041f 	cmp	w0, #0x1
ffff0000000022ec:	540000ad 	b.le	ffff000000002300 <fat32_readfile+0x184>
ffff0000000022f0:	b94027a1 	ldr	w1, [x29,#36]
ffff0000000022f4:	529ffee0 	mov	w0, #0xfff7                	// #65527
ffff0000000022f8:	6b00003f 	cmp	w1, w0
ffff0000000022fc:	54fffaed 	b.le	ffff000000002258 <fat32_readfile+0xdc>
ffff000000002300:	f9401fa0 	ldr	x0, [x29,#56]
ffff000000002304:	a8c67bfd 	ldp	x29, x30, [sp],#96
ffff000000002308:	d65f03c0 	ret

ffff00000000230c <fat32_read_directory>:
ffff00000000230c:	a9bd7bfd 	stp	x29, x30, [sp,#-48]!
ffff000000002310:	910003fd 	mov	x29, sp
ffff000000002314:	f9000fa0 	str	x0, [x29,#24]
ffff000000002318:	f9000ba1 	str	x1, [x29,#16]
ffff00000000231c:	f9400ba0 	ldr	x0, [x29,#16]
ffff000000002320:	b9400000 	ldr	w0, [x0]
ffff000000002324:	2a0003e1 	mov	w1, w0
ffff000000002328:	90000500 	adrp	x0, ffff0000000a2000 <_end>
ffff00000000232c:	91000000 	add	x0, x0, #0x0
ffff000000002330:	8b000020 	add	x0, x1, x0
ffff000000002334:	f90017a0 	str	x0, [x29,#40]
ffff000000002338:	f94017a0 	ldr	x0, [x29,#40]
ffff00000000233c:	b9402c00 	ldr	w0, [x0,#44]
ffff000000002340:	f9400ba2 	ldr	x2, [x29,#16]
ffff000000002344:	2a0003e1 	mov	w1, w0
ffff000000002348:	d2800000 	mov	x0, #0x0                   	// #0
ffff00000000234c:	97ffff8c 	bl	ffff00000000217c <fat32_readfile>
ffff000000002350:	b90027a0 	str	w0, [x29,#36]
ffff000000002354:	90000500 	adrp	x0, ffff0000000a2000 <_end>
ffff000000002358:	91000000 	add	x0, x0, #0x0
ffff00000000235c:	2a0003e1 	mov	w1, w0
ffff000000002360:	b94027a0 	ldr	w0, [x29,#36]
ffff000000002364:	4b010000 	sub	w0, w0, w1
ffff000000002368:	2a0003e1 	mov	w1, w0
ffff00000000236c:	90000500 	adrp	x0, ffff0000000a2000 <_end>
ffff000000002370:	91000000 	add	x0, x0, #0x0
ffff000000002374:	8b000020 	add	x0, x1, x0
ffff000000002378:	9400011e 	bl	ffff0000000027f0 <fat_listdirectory>
ffff00000000237c:	d503201f 	nop
ffff000000002380:	a8c37bfd 	ldp	x29, x30, [sp],#48
ffff000000002384:	d65f03c0 	ret

ffff000000002388 <fs_daemon>:
ffff000000002388:	a9bf7bfd 	stp	x29, x30, [sp,#-16]!
ffff00000000238c:	910003fd 	mov	x29, sp
ffff000000002390:	b00004c0 	adrp	x0, ffff00000009b000 <thread_id_table+0x75d0>
ffff000000002394:	9137a000 	add	x0, x0, #0xde8
ffff000000002398:	52800181 	mov	w1, #0xc                   	// #12
ffff00000000239c:	b9000001 	str	w1, [x0]
ffff0000000023a0:	90000000 	adrp	x0, ffff000000002000 <fat32_getcluster>
ffff0000000023a4:	910c3000 	add	x0, x0, #0x30c
ffff0000000023a8:	2a0003e1 	mov	w1, w0
ffff0000000023ac:	b00004c0 	adrp	x0, ffff00000009b000 <thread_id_table+0x75d0>
ffff0000000023b0:	9137a000 	add	x0, x0, #0xde8
ffff0000000023b4:	b9000401 	str	w1, [x0,#4]
ffff0000000023b8:	90000000 	adrp	x0, ffff000000002000 <fat32_getcluster>
ffff0000000023bc:	91000000 	add	x0, x0, #0x0
ffff0000000023c0:	2a0003e1 	mov	w1, w0
ffff0000000023c4:	b00004c0 	adrp	x0, ffff00000009b000 <thread_id_table+0x75d0>
ffff0000000023c8:	9137a000 	add	x0, x0, #0xde8
ffff0000000023cc:	b9000801 	str	w1, [x0,#8]
ffff0000000023d0:	90000000 	adrp	x0, ffff000000002000 <fat32_getcluster>
ffff0000000023d4:	9105f000 	add	x0, x0, #0x17c
ffff0000000023d8:	2a0003e1 	mov	w1, w0
ffff0000000023dc:	b00004c0 	adrp	x0, ffff00000009b000 <thread_id_table+0x75d0>
ffff0000000023e0:	9137a000 	add	x0, x0, #0xde8
ffff0000000023e4:	b9000c01 	str	w1, [x0,#12]
ffff0000000023e8:	9400012f 	bl	ffff0000000028a4 <build_kernel_directory>
ffff0000000023ec:	f0000060 	adrp	x0, ffff000000011000 <irq_invalid_el1t+0x14>
ffff0000000023f0:	91286000 	add	x0, x0, #0xa18
ffff0000000023f4:	94000cc5 	bl	ffff000000005708 <tfp_printf>
ffff0000000023f8:	f0000060 	adrp	x0, ffff000000011000 <irq_invalid_el1t+0x14>
ffff0000000023fc:	91290000 	add	x0, x0, #0xa40
ffff000000002400:	94000cc2 	bl	ffff000000005708 <tfp_printf>
ffff000000002404:	b0000080 	adrp	x0, ffff000000013000 <sdCommandTable+0x110>
ffff000000002408:	910f2000 	add	x0, x0, #0x3c8
ffff00000000240c:	b9400000 	ldr	w0, [x0]
ffff000000002410:	7101001f 	cmp	w0, #0x40
ffff000000002414:	54000081 	b.ne	ffff000000002424 <fs_daemon+0x9c>
ffff000000002418:	b0000080 	adrp	x0, ffff000000013000 <sdCommandTable+0x110>
ffff00000000241c:	910f2000 	add	x0, x0, #0x3c8
ffff000000002420:	b900001f 	str	wzr, [x0]
ffff000000002424:	b0000080 	adrp	x0, ffff000000013000 <sdCommandTable+0x110>
ffff000000002428:	910f2000 	add	x0, x0, #0x3c8
ffff00000000242c:	b9400001 	ldr	w1, [x0]
ffff000000002430:	b0000080 	adrp	x0, ffff000000013000 <sdCommandTable+0x110>
ffff000000002434:	910b2000 	add	x0, x0, #0x2c8
ffff000000002438:	93407c21 	sxtw	x1, w1
ffff00000000243c:	b8617800 	ldr	w0, [x0,x1,lsl #2]
ffff000000002440:	7100041f 	cmp	w0, #0x1
ffff000000002444:	54000080 	b.eq	ffff000000002454 <fs_daemon+0xcc>
ffff000000002448:	7100081f 	cmp	w0, #0x2
ffff00000000244c:	54000140 	b.eq	ffff000000002474 <fs_daemon+0xec>
ffff000000002450:	14000011 	b	ffff000000002494 <fs_daemon+0x10c>
ffff000000002454:	b0000080 	adrp	x0, ffff000000013000 <sdCommandTable+0x110>
ffff000000002458:	910f2000 	add	x0, x0, #0x3c8
ffff00000000245c:	b9400000 	ldr	w0, [x0]
ffff000000002460:	11000401 	add	w1, w0, #0x1
ffff000000002464:	b0000080 	adrp	x0, ffff000000013000 <sdCommandTable+0x110>
ffff000000002468:	910f2000 	add	x0, x0, #0x3c8
ffff00000000246c:	b9000001 	str	w1, [x0]
ffff000000002470:	1400000a 	b	ffff000000002498 <fs_daemon+0x110>
ffff000000002474:	b0000080 	adrp	x0, ffff000000013000 <sdCommandTable+0x110>
ffff000000002478:	910f2000 	add	x0, x0, #0x3c8
ffff00000000247c:	b9400000 	ldr	w0, [x0]
ffff000000002480:	11000401 	add	w1, w0, #0x1
ffff000000002484:	b0000080 	adrp	x0, ffff000000013000 <sdCommandTable+0x110>
ffff000000002488:	910f2000 	add	x0, x0, #0x3c8
ffff00000000248c:	b9000001 	str	w1, [x0]
ffff000000002490:	14000002 	b	ffff000000002498 <fs_daemon+0x110>
ffff000000002494:	94000372 	bl	ffff00000000325c <schedule>
ffff000000002498:	17ffffdb 	b	ffff000000002404 <fs_daemon+0x7c>

ffff00000000249c <fat_getpartition>:
ffff00000000249c:	a9bd7bfd 	stp	x29, x30, [sp,#-48]!
ffff0000000024a0:	910003fd 	mov	x29, sp
ffff0000000024a4:	90000500 	adrp	x0, ffff0000000a2000 <_end>
ffff0000000024a8:	91000000 	add	x0, x0, #0x0
ffff0000000024ac:	f90013a0 	str	x0, [x29,#32]
ffff0000000024b0:	90000500 	adrp	x0, ffff0000000a2000 <_end>
ffff0000000024b4:	91000000 	add	x0, x0, #0x0
ffff0000000024b8:	f9000fa0 	str	x0, [x29,#24]
ffff0000000024bc:	90000500 	adrp	x0, ffff0000000a2000 <_end>
ffff0000000024c0:	91000000 	add	x0, x0, #0x0
ffff0000000024c4:	52800022 	mov	w2, #0x1                   	// #1
ffff0000000024c8:	aa0003e1 	mov	x1, x0
ffff0000000024cc:	52800000 	mov	w0, #0x0                   	// #0
ffff0000000024d0:	94002601 	bl	ffff00000000bcd4 <sd_readblock>
ffff0000000024d4:	7100001f 	cmp	w0, #0x0
ffff0000000024d8:	54001800 	b.eq	ffff0000000027d8 <fat_getpartition+0x33c>
ffff0000000024dc:	f94013a0 	ldr	x0, [x29,#32]
ffff0000000024e0:	9107f800 	add	x0, x0, #0x1fe
ffff0000000024e4:	39400000 	ldrb	w0, [x0]
ffff0000000024e8:	7101541f 	cmp	w0, #0x55
ffff0000000024ec:	540000c1 	b.ne	ffff000000002504 <fat_getpartition+0x68>
ffff0000000024f0:	f94013a0 	ldr	x0, [x29,#32]
ffff0000000024f4:	9107fc00 	add	x0, x0, #0x1ff
ffff0000000024f8:	39400000 	ldrb	w0, [x0]
ffff0000000024fc:	7102a81f 	cmp	w0, #0xaa
ffff000000002500:	540000c0 	b.eq	ffff000000002518 <fat_getpartition+0x7c>
ffff000000002504:	f0000060 	adrp	x0, ffff000000011000 <irq_invalid_el1t+0x14>
ffff000000002508:	9129c000 	add	x0, x0, #0xa70
ffff00000000250c:	940023c7 	bl	ffff00000000b428 <uart_puts>
ffff000000002510:	52800000 	mov	w0, #0x0                   	// #0
ffff000000002514:	140000b5 	b	ffff0000000027e8 <fat_getpartition+0x34c>
ffff000000002518:	b9002fbf 	str	wzr, [x29,#44]
ffff00000000251c:	14000063 	b	ffff0000000026a8 <fat_getpartition+0x20c>
ffff000000002520:	b9402fa0 	ldr	w0, [x29,#44]
ffff000000002524:	11070800 	add	w0, w0, #0x1c2
ffff000000002528:	93407c00 	sxtw	x0, w0
ffff00000000252c:	f94013a1 	ldr	x1, [x29,#32]
ffff000000002530:	8b000020 	add	x0, x1, x0
ffff000000002534:	39400000 	ldrb	w0, [x0]
ffff000000002538:	7100001f 	cmp	w0, #0x0
ffff00000000253c:	54000be0 	b.eq	ffff0000000026b8 <fat_getpartition+0x21c>
ffff000000002540:	b9402fa0 	ldr	w0, [x29,#44]
ffff000000002544:	11003c01 	add	w1, w0, #0xf
ffff000000002548:	7100001f 	cmp	w0, #0x0
ffff00000000254c:	1a80b020 	csel	w0, w1, w0, lt
ffff000000002550:	13047c00 	asr	w0, w0, #4
ffff000000002554:	2a0003e2 	mov	w2, w0
ffff000000002558:	b9402fa0 	ldr	w0, [x29,#44]
ffff00000000255c:	11003c01 	add	w1, w0, #0xf
ffff000000002560:	7100001f 	cmp	w0, #0x0
ffff000000002564:	1a80b020 	csel	w0, w1, w0, lt
ffff000000002568:	13047c00 	asr	w0, w0, #4
ffff00000000256c:	53175800 	lsl	w0, w0, #9
ffff000000002570:	2a0003e3 	mov	w3, w0
ffff000000002574:	b00004c0 	adrp	x0, ffff00000009b000 <thread_id_table+0x75d0>
ffff000000002578:	91298001 	add	x1, x0, #0xa60
ffff00000000257c:	93407c42 	sxtw	x2, w2
ffff000000002580:	d2800a80 	mov	x0, #0x54                  	// #84
ffff000000002584:	9b007c40 	mul	x0, x2, x0
ffff000000002588:	8b000020 	add	x0, x1, x0
ffff00000000258c:	b9000003 	str	w3, [x0]
ffff000000002590:	b9402fa0 	ldr	w0, [x29,#44]
ffff000000002594:	11003c01 	add	w1, w0, #0xf
ffff000000002598:	7100001f 	cmp	w0, #0x0
ffff00000000259c:	1a80b020 	csel	w0, w1, w0, lt
ffff0000000025a0:	13047c00 	asr	w0, w0, #4
ffff0000000025a4:	2a0003e2 	mov	w2, w0
ffff0000000025a8:	b9402fa0 	ldr	w0, [x29,#44]
ffff0000000025ac:	11070800 	add	w0, w0, #0x1c2
ffff0000000025b0:	93407c00 	sxtw	x0, w0
ffff0000000025b4:	f94013a1 	ldr	x1, [x29,#32]
ffff0000000025b8:	8b000020 	add	x0, x1, x0
ffff0000000025bc:	39400000 	ldrb	w0, [x0]
ffff0000000025c0:	2a0003e3 	mov	w3, w0
ffff0000000025c4:	b00004c0 	adrp	x0, ffff00000009b000 <thread_id_table+0x75d0>
ffff0000000025c8:	91298001 	add	x1, x0, #0xa60
ffff0000000025cc:	93407c42 	sxtw	x2, w2
ffff0000000025d0:	d2800a80 	mov	x0, #0x54                  	// #84
ffff0000000025d4:	9b007c40 	mul	x0, x2, x0
ffff0000000025d8:	8b000020 	add	x0, x1, x0
ffff0000000025dc:	91002000 	add	x0, x0, #0x8
ffff0000000025e0:	b9000003 	str	w3, [x0]
ffff0000000025e4:	b9402fa0 	ldr	w0, [x29,#44]
ffff0000000025e8:	11003c01 	add	w1, w0, #0xf
ffff0000000025ec:	7100001f 	cmp	w0, #0x0
ffff0000000025f0:	1a80b020 	csel	w0, w1, w0, lt
ffff0000000025f4:	13047c00 	asr	w0, w0, #4
ffff0000000025f8:	2a0003e4 	mov	w4, w0
ffff0000000025fc:	b9402fa0 	ldr	w0, [x29,#44]
ffff000000002600:	11071800 	add	w0, w0, #0x1c6
ffff000000002604:	93407c00 	sxtw	x0, w0
ffff000000002608:	f94013a1 	ldr	x1, [x29,#32]
ffff00000000260c:	8b000020 	add	x0, x1, x0
ffff000000002610:	39400000 	ldrb	w0, [x0]
ffff000000002614:	2a0003e2 	mov	w2, w0
ffff000000002618:	b9402fa0 	ldr	w0, [x29,#44]
ffff00000000261c:	11071c00 	add	w0, w0, #0x1c7
ffff000000002620:	93407c00 	sxtw	x0, w0
ffff000000002624:	f94013a1 	ldr	x1, [x29,#32]
ffff000000002628:	8b000020 	add	x0, x1, x0
ffff00000000262c:	39400000 	ldrb	w0, [x0]
ffff000000002630:	53185c00 	lsl	w0, w0, #8
ffff000000002634:	0b000041 	add	w1, w2, w0
ffff000000002638:	b9402fa0 	ldr	w0, [x29,#44]
ffff00000000263c:	11072000 	add	w0, w0, #0x1c8
ffff000000002640:	93407c00 	sxtw	x0, w0
ffff000000002644:	f94013a2 	ldr	x2, [x29,#32]
ffff000000002648:	8b000040 	add	x0, x2, x0
ffff00000000264c:	39400000 	ldrb	w0, [x0]
ffff000000002650:	53103c00 	lsl	w0, w0, #16
ffff000000002654:	0b000021 	add	w1, w1, w0
ffff000000002658:	b9402fa0 	ldr	w0, [x29,#44]
ffff00000000265c:	11072400 	add	w0, w0, #0x1c9
ffff000000002660:	93407c00 	sxtw	x0, w0
ffff000000002664:	f94013a2 	ldr	x2, [x29,#32]
ffff000000002668:	8b000040 	add	x0, x2, x0
ffff00000000266c:	39400000 	ldrb	w0, [x0]
ffff000000002670:	53081c00 	lsl	w0, w0, #24
ffff000000002674:	0b000020 	add	w0, w1, w0
ffff000000002678:	2a0003e3 	mov	w3, w0
ffff00000000267c:	b00004c0 	adrp	x0, ffff00000009b000 <thread_id_table+0x75d0>
ffff000000002680:	91298001 	add	x1, x0, #0xa60
ffff000000002684:	93407c82 	sxtw	x2, w4
ffff000000002688:	d2800a80 	mov	x0, #0x54                  	// #84
ffff00000000268c:	9b007c40 	mul	x0, x2, x0
ffff000000002690:	8b000020 	add	x0, x1, x0
ffff000000002694:	91001000 	add	x0, x0, #0x4
ffff000000002698:	b9000003 	str	w3, [x0]
ffff00000000269c:	b9402fa0 	ldr	w0, [x29,#44]
ffff0000000026a0:	11004000 	add	w0, w0, #0x10
ffff0000000026a4:	b9002fa0 	str	w0, [x29,#44]
ffff0000000026a8:	b9402fa0 	ldr	w0, [x29,#44]
ffff0000000026ac:	7100fc1f 	cmp	w0, #0x3f
ffff0000000026b0:	54fff38d 	b.le	ffff000000002520 <fat_getpartition+0x84>
ffff0000000026b4:	14000002 	b	ffff0000000026bc <fat_getpartition+0x220>
ffff0000000026b8:	d503201f 	nop
ffff0000000026bc:	b9002bbf 	str	wzr, [x29,#40]
ffff0000000026c0:	1400001d 	b	ffff000000002734 <fat_getpartition+0x298>
ffff0000000026c4:	b00004c0 	adrp	x0, ffff00000009b000 <thread_id_table+0x75d0>
ffff0000000026c8:	91298001 	add	x1, x0, #0xa60
ffff0000000026cc:	b9802ba2 	ldrsw	x2, [x29,#40]
ffff0000000026d0:	d2800a80 	mov	x0, #0x54                  	// #84
ffff0000000026d4:	9b007c40 	mul	x0, x2, x0
ffff0000000026d8:	8b000020 	add	x0, x1, x0
ffff0000000026dc:	91001000 	add	x0, x0, #0x4
ffff0000000026e0:	b9400003 	ldr	w3, [x0]
ffff0000000026e4:	b9402ba0 	ldr	w0, [x29,#40]
ffff0000000026e8:	53175800 	lsl	w0, w0, #9
ffff0000000026ec:	93407c01 	sxtw	x1, w0
ffff0000000026f0:	90000500 	adrp	x0, ffff0000000a2000 <_end>
ffff0000000026f4:	91000000 	add	x0, x0, #0x0
ffff0000000026f8:	8b000020 	add	x0, x1, x0
ffff0000000026fc:	52800022 	mov	w2, #0x1                   	// #1
ffff000000002700:	aa0003e1 	mov	x1, x0
ffff000000002704:	2a0303e0 	mov	w0, w3
ffff000000002708:	94002573 	bl	ffff00000000bcd4 <sd_readblock>
ffff00000000270c:	7100001f 	cmp	w0, #0x0
ffff000000002710:	540000c1 	b.ne	ffff000000002728 <fat_getpartition+0x28c>
ffff000000002714:	f0000060 	adrp	x0, ffff000000011000 <irq_invalid_el1t+0x14>
ffff000000002718:	912a4000 	add	x0, x0, #0xa90
ffff00000000271c:	94002343 	bl	ffff00000000b428 <uart_puts>
ffff000000002720:	52800000 	mov	w0, #0x0                   	// #0
ffff000000002724:	14000031 	b	ffff0000000027e8 <fat_getpartition+0x34c>
ffff000000002728:	b9402ba0 	ldr	w0, [x29,#40]
ffff00000000272c:	11000400 	add	w0, w0, #0x1
ffff000000002730:	b9002ba0 	str	w0, [x29,#40]
ffff000000002734:	b00004c0 	adrp	x0, ffff00000009b000 <thread_id_table+0x75d0>
ffff000000002738:	91298001 	add	x1, x0, #0xa60
ffff00000000273c:	b9802ba2 	ldrsw	x2, [x29,#40]
ffff000000002740:	d2800a80 	mov	x0, #0x54                  	// #84
ffff000000002744:	9b007c40 	mul	x0, x2, x0
ffff000000002748:	8b000020 	add	x0, x1, x0
ffff00000000274c:	91001000 	add	x0, x0, #0x4
ffff000000002750:	b9400000 	ldr	w0, [x0]
ffff000000002754:	7100001f 	cmp	w0, #0x0
ffff000000002758:	54fffb61 	b.ne	ffff0000000026c4 <fat_getpartition+0x228>
ffff00000000275c:	f9400fa0 	ldr	x0, [x29,#24]
ffff000000002760:	3940d800 	ldrb	w0, [x0,#54]
ffff000000002764:	7101181f 	cmp	w0, #0x46
ffff000000002768:	54000121 	b.ne	ffff00000000278c <fat_getpartition+0x2f0>
ffff00000000276c:	f9400fa0 	ldr	x0, [x29,#24]
ffff000000002770:	3940dc00 	ldrb	w0, [x0,#55]
ffff000000002774:	7101041f 	cmp	w0, #0x41
ffff000000002778:	540000a1 	b.ne	ffff00000000278c <fat_getpartition+0x2f0>
ffff00000000277c:	f9400fa0 	ldr	x0, [x29,#24]
ffff000000002780:	3940e000 	ldrb	w0, [x0,#56]
ffff000000002784:	7101501f 	cmp	w0, #0x54
ffff000000002788:	54000240 	b.eq	ffff0000000027d0 <fat_getpartition+0x334>
ffff00000000278c:	f9400fa0 	ldr	x0, [x29,#24]
ffff000000002790:	39414800 	ldrb	w0, [x0,#82]
ffff000000002794:	7101181f 	cmp	w0, #0x46
ffff000000002798:	54000121 	b.ne	ffff0000000027bc <fat_getpartition+0x320>
ffff00000000279c:	f9400fa0 	ldr	x0, [x29,#24]
ffff0000000027a0:	39414c00 	ldrb	w0, [x0,#83]
ffff0000000027a4:	7101041f 	cmp	w0, #0x41
ffff0000000027a8:	540000a1 	b.ne	ffff0000000027bc <fat_getpartition+0x320>
ffff0000000027ac:	f9400fa0 	ldr	x0, [x29,#24]
ffff0000000027b0:	39415000 	ldrb	w0, [x0,#84]
ffff0000000027b4:	7101501f 	cmp	w0, #0x54
ffff0000000027b8:	540000c0 	b.eq	ffff0000000027d0 <fat_getpartition+0x334>
ffff0000000027bc:	f0000060 	adrp	x0, ffff000000011000 <irq_invalid_el1t+0x14>
ffff0000000027c0:	912ae000 	add	x0, x0, #0xab8
ffff0000000027c4:	94002319 	bl	ffff00000000b428 <uart_puts>
ffff0000000027c8:	52800000 	mov	w0, #0x0                   	// #0
ffff0000000027cc:	14000007 	b	ffff0000000027e8 <fat_getpartition+0x34c>
ffff0000000027d0:	52800020 	mov	w0, #0x1                   	// #1
ffff0000000027d4:	14000005 	b	ffff0000000027e8 <fat_getpartition+0x34c>
ffff0000000027d8:	f0000060 	adrp	x0, ffff000000011000 <irq_invalid_el1t+0x14>
ffff0000000027dc:	912ba000 	add	x0, x0, #0xae8
ffff0000000027e0:	94000bca 	bl	ffff000000005708 <tfp_printf>
ffff0000000027e4:	52800000 	mov	w0, #0x0                   	// #0
ffff0000000027e8:	a8c37bfd 	ldp	x29, x30, [sp],#48
ffff0000000027ec:	d65f03c0 	ret

ffff0000000027f0 <fat_listdirectory>:
ffff0000000027f0:	d10043ff 	sub	sp, sp, #0x10
ffff0000000027f4:	f90007e0 	str	x0, [sp,#8]
ffff0000000027f8:	b00004c0 	adrp	x0, ffff00000009b000 <thread_id_table+0x75d0>
ffff0000000027fc:	91378000 	add	x0, x0, #0xde0
ffff000000002800:	f94007e1 	ldr	x1, [sp,#8]
ffff000000002804:	f9000001 	str	x1, [x0]
ffff000000002808:	d503201f 	nop
ffff00000000280c:	910043ff 	add	sp, sp, #0x10
ffff000000002810:	d65f03c0 	ret

ffff000000002814 <fs_type_support>:
ffff000000002814:	d10083ff 	sub	sp, sp, #0x20
ffff000000002818:	b9000fe0 	str	w0, [sp,#12]
ffff00000000281c:	b9001fff 	str	wzr, [sp,#28]
ffff000000002820:	14000013 	b	ffff00000000286c <fs_type_support+0x58>
ffff000000002824:	b00004c0 	adrp	x0, ffff00000009b000 <thread_id_table+0x75d0>
ffff000000002828:	9137a001 	add	x1, x0, #0xde8
ffff00000000282c:	b9801fe0 	ldrsw	x0, [sp,#28]
ffff000000002830:	d37cec00 	lsl	x0, x0, #4
ffff000000002834:	8b000020 	add	x0, x1, x0
ffff000000002838:	b9400001 	ldr	w1, [x0]
ffff00000000283c:	b9400fe0 	ldr	w0, [sp,#12]
ffff000000002840:	6b00003f 	cmp	w1, w0
ffff000000002844:	540000e1 	b.ne	ffff000000002860 <fs_type_support+0x4c>
ffff000000002848:	b9801fe0 	ldrsw	x0, [sp,#28]
ffff00000000284c:	d37cec01 	lsl	x1, x0, #4
ffff000000002850:	b00004c0 	adrp	x0, ffff00000009b000 <thread_id_table+0x75d0>
ffff000000002854:	9137a000 	add	x0, x0, #0xde8
ffff000000002858:	8b000020 	add	x0, x1, x0
ffff00000000285c:	14000010 	b	ffff00000000289c <fs_type_support+0x88>
ffff000000002860:	b9401fe0 	ldr	w0, [sp,#28]
ffff000000002864:	11000400 	add	w0, w0, #0x1
ffff000000002868:	b9001fe0 	str	w0, [sp,#28]
ffff00000000286c:	b00004c0 	adrp	x0, ffff00000009b000 <thread_id_table+0x75d0>
ffff000000002870:	9137a001 	add	x1, x0, #0xde8
ffff000000002874:	b9801fe0 	ldrsw	x0, [sp,#28]
ffff000000002878:	d37cec00 	lsl	x0, x0, #4
ffff00000000287c:	8b000020 	add	x0, x1, x0
ffff000000002880:	b9400000 	ldr	w0, [x0]
ffff000000002884:	7100001f 	cmp	w0, #0x0
ffff000000002888:	54000080 	b.eq	ffff000000002898 <fs_type_support+0x84>
ffff00000000288c:	b9401fe0 	ldr	w0, [sp,#28]
ffff000000002890:	71007c1f 	cmp	w0, #0x1f
ffff000000002894:	54fffc8d 	b.le	ffff000000002824 <fs_type_support+0x10>
ffff000000002898:	d2800000 	mov	x0, #0x0                   	// #0
ffff00000000289c:	910083ff 	add	sp, sp, #0x20
ffff0000000028a0:	d65f03c0 	ret

ffff0000000028a4 <build_kernel_directory>:
ffff0000000028a4:	a9b97bfd 	stp	x29, x30, [sp,#-112]!
ffff0000000028a8:	910003fd 	mov	x29, sp
ffff0000000028ac:	b9006fbf 	str	wzr, [x29,#108]
ffff0000000028b0:	b90057bf 	str	wzr, [x29,#84]
ffff0000000028b4:	b00004c0 	adrp	x0, ffff00000009b000 <thread_id_table+0x75d0>
ffff0000000028b8:	9128c000 	add	x0, x0, #0xa30
ffff0000000028bc:	d2800581 	mov	x1, #0x2c                  	// #44
ffff0000000028c0:	940037b6 	bl	ffff000000010798 <memzero>
ffff0000000028c4:	b9006bbf 	str	wzr, [x29,#104]
ffff0000000028c8:	140000ca 	b	ffff000000002bf0 <build_kernel_directory+0x34c>
ffff0000000028cc:	b00004c0 	adrp	x0, ffff00000009b000 <thread_id_table+0x75d0>
ffff0000000028d0:	91298001 	add	x1, x0, #0xa60
ffff0000000028d4:	b9806ba2 	ldrsw	x2, [x29,#104]
ffff0000000028d8:	d2800a80 	mov	x0, #0x54                  	// #84
ffff0000000028dc:	9b007c40 	mul	x0, x2, x0
ffff0000000028e0:	8b000020 	add	x0, x1, x0
ffff0000000028e4:	91002000 	add	x0, x0, #0x8
ffff0000000028e8:	b9400000 	ldr	w0, [x0]
ffff0000000028ec:	97ffffca 	bl	ffff000000002814 <fs_type_support>
ffff0000000028f0:	f90027a0 	str	x0, [x29,#72]
ffff0000000028f4:	f94027a0 	ldr	x0, [x29,#72]
ffff0000000028f8:	f100001f 	cmp	x0, #0x0
ffff0000000028fc:	54001740 	b.eq	ffff000000002be4 <build_kernel_directory+0x340>
ffff000000002900:	b00004c0 	adrp	x0, ffff00000009b000 <thread_id_table+0x75d0>
ffff000000002904:	91298001 	add	x1, x0, #0xa60
ffff000000002908:	b9806ba2 	ldrsw	x2, [x29,#104]
ffff00000000290c:	d2800a80 	mov	x0, #0x54                  	// #84
ffff000000002910:	9b007c40 	mul	x0, x2, x0
ffff000000002914:	8b000020 	add	x0, x1, x0
ffff000000002918:	b9400000 	ldr	w0, [x0]
ffff00000000291c:	2a0003e1 	mov	w1, w0
ffff000000002920:	90000500 	adrp	x0, ffff0000000a2000 <_end>
ffff000000002924:	91000000 	add	x0, x0, #0x0
ffff000000002928:	8b000020 	add	x0, x1, x0
ffff00000000292c:	f90023a0 	str	x0, [x29,#64]
ffff000000002930:	b9806ba1 	ldrsw	x1, [x29,#104]
ffff000000002934:	d2800a80 	mov	x0, #0x54                  	// #84
ffff000000002938:	9b007c21 	mul	x1, x1, x0
ffff00000000293c:	b00004c0 	adrp	x0, ffff00000009b000 <thread_id_table+0x75d0>
ffff000000002940:	91298000 	add	x0, x0, #0xa60
ffff000000002944:	8b000020 	add	x0, x1, x0
ffff000000002948:	f9001fa0 	str	x0, [x29,#56]
ffff00000000294c:	b00004c0 	adrp	x0, ffff00000009b000 <thread_id_table+0x75d0>
ffff000000002950:	91298001 	add	x1, x0, #0xa60
ffff000000002954:	b9806ba2 	ldrsw	x2, [x29,#104]
ffff000000002958:	d2800a80 	mov	x0, #0x54                  	// #84
ffff00000000295c:	9b007c40 	mul	x0, x2, x0
ffff000000002960:	8b000020 	add	x0, x1, x0
ffff000000002964:	91002000 	add	x0, x0, #0x8
ffff000000002968:	b9400000 	ldr	w0, [x0]
ffff00000000296c:	7100301f 	cmp	w0, #0xc
ffff000000002970:	54000a61 	b.ne	ffff000000002abc <build_kernel_directory+0x218>
ffff000000002974:	f94023a0 	ldr	x0, [x29,#64]
ffff000000002978:	b9402400 	ldr	w0, [x0,#36]
ffff00000000297c:	f94023a1 	ldr	x1, [x29,#64]
ffff000000002980:	79401c21 	ldrh	w1, [x1,#14]
ffff000000002984:	0b010000 	add	w0, w0, w1
ffff000000002988:	53175800 	lsl	w0, w0, #9
ffff00000000298c:	94000550 	bl	ffff000000003ecc <allocate_kernel_page>
ffff000000002990:	910063a2 	add	x2, x29, #0x18
ffff000000002994:	a9000440 	stp	x0, x1, [x2]
ffff000000002998:	b00004c0 	adrp	x0, ffff00000009b000 <thread_id_table+0x75d0>
ffff00000000299c:	91298001 	add	x1, x0, #0xa60
ffff0000000029a0:	b9806ba2 	ldrsw	x2, [x29,#104]
ffff0000000029a4:	d2800a80 	mov	x0, #0x54                  	// #84
ffff0000000029a8:	9b007c40 	mul	x0, x2, x0
ffff0000000029ac:	8b000020 	add	x0, x1, x0
ffff0000000029b0:	91001000 	add	x0, x0, #0x4
ffff0000000029b4:	b9400000 	ldr	w0, [x0]
ffff0000000029b8:	11000404 	add	w4, w0, #0x1
ffff0000000029bc:	f9400fa0 	ldr	x0, [x29,#24]
ffff0000000029c0:	aa0003e2 	mov	x2, x0
ffff0000000029c4:	f94023a0 	ldr	x0, [x29,#64]
ffff0000000029c8:	b9402400 	ldr	w0, [x0,#36]
ffff0000000029cc:	f94023a1 	ldr	x1, [x29,#64]
ffff0000000029d0:	79401c21 	ldrh	w1, [x1,#14]
ffff0000000029d4:	0b010000 	add	w0, w0, w1
ffff0000000029d8:	2a0003e3 	mov	w3, w0
ffff0000000029dc:	2a0403e1 	mov	w1, w4
ffff0000000029e0:	52800020 	mov	w0, #0x1                   	// #1
ffff0000000029e4:	94000d22 	bl	ffff000000005e6c <kservice_dev_read>
ffff0000000029e8:	b90057a0 	str	w0, [x29,#84]
ffff0000000029ec:	f9400fa1 	ldr	x1, [x29,#24]
ffff0000000029f0:	f94023a0 	ldr	x0, [x29,#64]
ffff0000000029f4:	79401c00 	ldrh	w0, [x0,#14]
ffff0000000029f8:	53175800 	lsl	w0, w0, #9
ffff0000000029fc:	93407c00 	sxtw	x0, w0
ffff000000002a00:	8b000020 	add	x0, x1, x0
ffff000000002a04:	d1080000 	sub	x0, x0, #0x200
ffff000000002a08:	f9001ba0 	str	x0, [x29,#48]
ffff000000002a0c:	b90067bf 	str	wzr, [x29,#100]
ffff000000002a10:	b90063bf 	str	wzr, [x29,#96]
ffff000000002a14:	1400001d 	b	ffff000000002a88 <build_kernel_directory+0x1e4>
ffff000000002a18:	b98067a0 	ldrsw	x0, [x29,#100]
ffff000000002a1c:	d37ef400 	lsl	x0, x0, #2
ffff000000002a20:	f9401ba1 	ldr	x1, [x29,#48]
ffff000000002a24:	8b000020 	add	x0, x1, x0
ffff000000002a28:	b9400000 	ldr	w0, [x0]
ffff000000002a2c:	7100001f 	cmp	w0, #0x0
ffff000000002a30:	54000261 	b.ne	ffff000000002a7c <build_kernel_directory+0x1d8>
ffff000000002a34:	b94063a0 	ldr	w0, [x29,#96]
ffff000000002a38:	11000401 	add	w1, w0, #0x1
ffff000000002a3c:	b90063a1 	str	w1, [x29,#96]
ffff000000002a40:	b94067a1 	ldr	w1, [x29,#100]
ffff000000002a44:	b00004c2 	adrp	x2, ffff00000009b000 <thread_id_table+0x75d0>
ffff000000002a48:	91298042 	add	x2, x2, #0xa60
ffff000000002a4c:	93407c00 	sxtw	x0, w0
ffff000000002a50:	b9806ba4 	ldrsw	x4, [x29,#104]
ffff000000002a54:	d28002a3 	mov	x3, #0x15                  	// #21
ffff000000002a58:	9b037c83 	mul	x3, x4, x3
ffff000000002a5c:	8b000060 	add	x0, x3, x0
ffff000000002a60:	91001000 	add	x0, x0, #0x4
ffff000000002a64:	d37ef400 	lsl	x0, x0, #2
ffff000000002a68:	8b000040 	add	x0, x2, x0
ffff000000002a6c:	b9000401 	str	w1, [x0,#4]
ffff000000002a70:	b94063a0 	ldr	w0, [x29,#96]
ffff000000002a74:	7100401f 	cmp	w0, #0x10
ffff000000002a78:	540001e0 	b.eq	ffff000000002ab4 <build_kernel_directory+0x210>
ffff000000002a7c:	b94067a0 	ldr	w0, [x29,#100]
ffff000000002a80:	11000400 	add	w0, w0, #0x1
ffff000000002a84:	b90067a0 	str	w0, [x29,#100]
ffff000000002a88:	f94023a0 	ldr	x0, [x29,#64]
ffff000000002a8c:	b9402400 	ldr	w0, [x0,#36]
ffff000000002a90:	f94023a1 	ldr	x1, [x29,#64]
ffff000000002a94:	79401c21 	ldrh	w1, [x1,#14]
ffff000000002a98:	4b010000 	sub	w0, w0, w1
ffff000000002a9c:	11000400 	add	w0, w0, #0x1
ffff000000002aa0:	531c6c01 	lsl	w1, w0, #4
ffff000000002aa4:	b94067a0 	ldr	w0, [x29,#100]
ffff000000002aa8:	6b00003f 	cmp	w1, w0
ffff000000002aac:	54fffb68 	b.hi	ffff000000002a18 <build_kernel_directory+0x174>
ffff000000002ab0:	14000002 	b	ffff000000002ab8 <build_kernel_directory+0x214>
ffff000000002ab4:	d503201f 	nop
ffff000000002ab8:	d503201f 	nop
ffff000000002abc:	f9400fa0 	ldr	x0, [x29,#24]
ffff000000002ac0:	2a0003e3 	mov	w3, w0
ffff000000002ac4:	b00004c0 	adrp	x0, ffff00000009b000 <thread_id_table+0x75d0>
ffff000000002ac8:	91298001 	add	x1, x0, #0xa60
ffff000000002acc:	b9806ba2 	ldrsw	x2, [x29,#104]
ffff000000002ad0:	d2800a80 	mov	x0, #0x54                  	// #84
ffff000000002ad4:	9b007c40 	mul	x0, x2, x0
ffff000000002ad8:	8b000020 	add	x0, x1, x0
ffff000000002adc:	91004000 	add	x0, x0, #0x10
ffff000000002ae0:	b9000003 	str	w3, [x0]
ffff000000002ae4:	d0ffffe0 	adrp	x0, ffff000000000000 <_start>
ffff000000002ae8:	91000001 	add	x1, x0, #0x0
ffff000000002aec:	f94027a0 	ldr	x0, [x29,#72]
ffff000000002af0:	b9400400 	ldr	w0, [x0,#4]
ffff000000002af4:	d0ffffe2 	adrp	x2, ffff000000000000 <_start>
ffff000000002af8:	91000042 	add	x2, x2, #0x0
ffff000000002afc:	4b020000 	sub	w0, w0, w2
ffff000000002b00:	2a0003e0 	mov	w0, w0
ffff000000002b04:	8b000020 	add	x0, x1, x0
ffff000000002b08:	f9401fa1 	ldr	x1, [x29,#56]
ffff000000002b0c:	94003bb4 	bl	ffff0000000119dc <bl_init>
ffff000000002b10:	9400007a 	bl	ffff000000002cf8 <build_root>
ffff000000002b14:	94000081 	bl	ffff000000002d18 <search_file>
ffff000000002b18:	f90017a0 	str	x0, [x29,#40]
ffff000000002b1c:	b9006fbf 	str	wzr, [x29,#108]
ffff000000002b20:	b9406ba0 	ldr	w0, [x29,#104]
ffff000000002b24:	7100001f 	cmp	w0, #0x0
ffff000000002b28:	54000281 	b.ne	ffff000000002b78 <build_kernel_directory+0x2d4>
ffff000000002b2c:	9400312d 	bl	ffff00000000efe0 <read_ksymbol>
ffff000000002b30:	14000012 	b	ffff000000002b78 <build_kernel_directory+0x2d4>
ffff000000002b34:	b9806fa0 	ldrsw	x0, [x29,#108]
ffff000000002b38:	f94017a1 	ldr	x1, [x29,#40]
ffff000000002b3c:	8b000020 	add	x0, x1, x0
ffff000000002b40:	39400004 	ldrb	w4, [x0]
ffff000000002b44:	b00004c0 	adrp	x0, ffff00000009b000 <thread_id_table+0x75d0>
ffff000000002b48:	9128c002 	add	x2, x0, #0xa30
ffff000000002b4c:	b9806fa0 	ldrsw	x0, [x29,#108]
ffff000000002b50:	b9806ba3 	ldrsw	x3, [x29,#104]
ffff000000002b54:	d2800161 	mov	x1, #0xb                   	// #11
ffff000000002b58:	9b017c61 	mul	x1, x3, x1
ffff000000002b5c:	8b010041 	add	x1, x2, x1
ffff000000002b60:	8b000020 	add	x0, x1, x0
ffff000000002b64:	2a0403e1 	mov	w1, w4
ffff000000002b68:	39000001 	strb	w1, [x0]
ffff000000002b6c:	b9406fa0 	ldr	w0, [x29,#108]
ffff000000002b70:	11000400 	add	w0, w0, #0x1
ffff000000002b74:	b9006fa0 	str	w0, [x29,#108]
ffff000000002b78:	b9806fa0 	ldrsw	x0, [x29,#108]
ffff000000002b7c:	f94017a1 	ldr	x1, [x29,#40]
ffff000000002b80:	8b000020 	add	x0, x1, x0
ffff000000002b84:	39400000 	ldrb	w0, [x0]
ffff000000002b88:	7100201f 	cmp	w0, #0x8
ffff000000002b8c:	540001a0 	b.eq	ffff000000002bc0 <build_kernel_directory+0x31c>
ffff000000002b90:	b9806fa0 	ldrsw	x0, [x29,#108]
ffff000000002b94:	f94017a1 	ldr	x1, [x29,#40]
ffff000000002b98:	8b000020 	add	x0, x1, x0
ffff000000002b9c:	39400000 	ldrb	w0, [x0]
ffff000000002ba0:	7100001f 	cmp	w0, #0x0
ffff000000002ba4:	540000e0 	b.eq	ffff000000002bc0 <build_kernel_directory+0x31c>
ffff000000002ba8:	b9806fa0 	ldrsw	x0, [x29,#108]
ffff000000002bac:	f94017a1 	ldr	x1, [x29,#40]
ffff000000002bb0:	8b000020 	add	x0, x1, x0
ffff000000002bb4:	39400000 	ldrb	w0, [x0]
ffff000000002bb8:	7100801f 	cmp	w0, #0x20
ffff000000002bbc:	54fffbc1 	b.ne	ffff000000002b34 <build_kernel_directory+0x290>
ffff000000002bc0:	b00004c0 	adrp	x0, ffff00000009b000 <thread_id_table+0x75d0>
ffff000000002bc4:	9128c002 	add	x2, x0, #0xa30
ffff000000002bc8:	b9806fa0 	ldrsw	x0, [x29,#108]
ffff000000002bcc:	b9806ba3 	ldrsw	x3, [x29,#104]
ffff000000002bd0:	d2800161 	mov	x1, #0xb                   	// #11
ffff000000002bd4:	9b017c61 	mul	x1, x3, x1
ffff000000002bd8:	8b010041 	add	x1, x2, x1
ffff000000002bdc:	8b000020 	add	x0, x1, x0
ffff000000002be0:	3900001f 	strb	wzr, [x0]
ffff000000002be4:	b9406ba0 	ldr	w0, [x29,#104]
ffff000000002be8:	11000400 	add	w0, w0, #0x1
ffff000000002bec:	b9006ba0 	str	w0, [x29,#104]
ffff000000002bf0:	b9406ba0 	ldr	w0, [x29,#104]
ffff000000002bf4:	71000c1f 	cmp	w0, #0x3
ffff000000002bf8:	54ffe6ad 	b.le	ffff0000000028cc <build_kernel_directory+0x28>
ffff000000002bfc:	b00004c0 	adrp	x0, ffff00000009b000 <thread_id_table+0x75d0>
ffff000000002c00:	912ec000 	add	x0, x0, #0xbb0
ffff000000002c04:	d2804601 	mov	x1, #0x230                 	// #560
ffff000000002c08:	940036e4 	bl	ffff000000010798 <memzero>
ffff000000002c0c:	b9005fbf 	str	wzr, [x29,#92]
ffff000000002c10:	b9005bbf 	str	wzr, [x29,#88]
ffff000000002c14:	14000033 	b	ffff000000002ce0 <build_kernel_directory+0x43c>
ffff000000002c18:	b00004c0 	adrp	x0, ffff00000009b000 <thread_id_table+0x75d0>
ffff000000002c1c:	9128c001 	add	x1, x0, #0xa30
ffff000000002c20:	b9805fa2 	ldrsw	x2, [x29,#92]
ffff000000002c24:	d2800160 	mov	x0, #0xb                   	// #11
ffff000000002c28:	9b007c40 	mul	x0, x2, x0
ffff000000002c2c:	8b000020 	add	x0, x1, x0
ffff000000002c30:	39400000 	ldrb	w0, [x0]
ffff000000002c34:	7100201f 	cmp	w0, #0x8
ffff000000002c38:	540004e0 	b.eq	ffff000000002cd4 <build_kernel_directory+0x430>
ffff000000002c3c:	b00004c0 	adrp	x0, ffff00000009b000 <thread_id_table+0x75d0>
ffff000000002c40:	9128c001 	add	x1, x0, #0xa30
ffff000000002c44:	b9805fa2 	ldrsw	x2, [x29,#92]
ffff000000002c48:	d2800160 	mov	x0, #0xb                   	// #11
ffff000000002c4c:	9b007c40 	mul	x0, x2, x0
ffff000000002c50:	8b000020 	add	x0, x1, x0
ffff000000002c54:	39400000 	ldrb	w0, [x0]
ffff000000002c58:	7100001f 	cmp	w0, #0x0
ffff000000002c5c:	540003c0 	b.eq	ffff000000002cd4 <build_kernel_directory+0x430>
ffff000000002c60:	b9805fa1 	ldrsw	x1, [x29,#92]
ffff000000002c64:	d2800160 	mov	x0, #0xb                   	// #11
ffff000000002c68:	9b007c21 	mul	x1, x1, x0
ffff000000002c6c:	b00004c0 	adrp	x0, ffff00000009b000 <thread_id_table+0x75d0>
ffff000000002c70:	9128c000 	add	x0, x0, #0xa30
ffff000000002c74:	8b000020 	add	x0, x1, x0
ffff000000002c78:	aa0003e3 	mov	x3, x0
ffff000000002c7c:	b9805ba1 	ldrsw	x1, [x29,#88]
ffff000000002c80:	d2800380 	mov	x0, #0x1c                  	// #28
ffff000000002c84:	9b007c21 	mul	x1, x1, x0
ffff000000002c88:	b00004c0 	adrp	x0, ffff00000009b000 <thread_id_table+0x75d0>
ffff000000002c8c:	912ec000 	add	x0, x0, #0xbb0
ffff000000002c90:	8b000020 	add	x0, x1, x0
ffff000000002c94:	d2800102 	mov	x2, #0x8                   	// #8
ffff000000002c98:	aa0003e1 	mov	x1, x0
ffff000000002c9c:	aa0303e0 	mov	x0, x3
ffff000000002ca0:	940036af 	bl	ffff00000001075c <memcpy>
ffff000000002ca4:	b00004c0 	adrp	x0, ffff00000009b000 <thread_id_table+0x75d0>
ffff000000002ca8:	912ec001 	add	x1, x0, #0xbb0
ffff000000002cac:	b9805fa2 	ldrsw	x2, [x29,#92]
ffff000000002cb0:	d2800380 	mov	x0, #0x1c                  	// #28
ffff000000002cb4:	9b007c40 	mul	x0, x2, x0
ffff000000002cb8:	8b000020 	add	x0, x1, x0
ffff000000002cbc:	91002c00 	add	x0, x0, #0xb
ffff000000002cc0:	52800201 	mov	w1, #0x10                  	// #16
ffff000000002cc4:	39000001 	strb	w1, [x0]
ffff000000002cc8:	b9405ba0 	ldr	w0, [x29,#88]
ffff000000002ccc:	11000400 	add	w0, w0, #0x1
ffff000000002cd0:	b9005ba0 	str	w0, [x29,#88]
ffff000000002cd4:	b9405fa0 	ldr	w0, [x29,#92]
ffff000000002cd8:	11000400 	add	w0, w0, #0x1
ffff000000002cdc:	b9005fa0 	str	w0, [x29,#92]
ffff000000002ce0:	b9405fa0 	ldr	w0, [x29,#92]
ffff000000002ce4:	71000c1f 	cmp	w0, #0x3
ffff000000002ce8:	54fff98d 	b.le	ffff000000002c18 <build_kernel_directory+0x374>
ffff000000002cec:	d503201f 	nop
ffff000000002cf0:	a8c77bfd 	ldp	x29, x30, [sp],#112
ffff000000002cf4:	d65f03c0 	ret

ffff000000002cf8 <build_root>:
ffff000000002cf8:	b00004c0 	adrp	x0, ffff00000009b000 <thread_id_table+0x75d0>
ffff000000002cfc:	91378000 	add	x0, x0, #0xde0
ffff000000002d00:	f9400001 	ldr	x1, [x0]
ffff000000002d04:	d00004c0 	adrp	x0, ffff00000009c000 <task+0x18>
ffff000000002d08:	9107a000 	add	x0, x0, #0x1e8
ffff000000002d0c:	f9000001 	str	x1, [x0]
ffff000000002d10:	d503201f 	nop
ffff000000002d14:	d65f03c0 	ret

ffff000000002d18 <search_file>:
ffff000000002d18:	a9be7bfd 	stp	x29, x30, [sp,#-32]!
ffff000000002d1c:	910003fd 	mov	x29, sp
ffff000000002d20:	b9001fbf 	str	wzr, [x29,#28]
ffff000000002d24:	b00004c0 	adrp	x0, ffff00000009b000 <thread_id_table+0x75d0>
ffff000000002d28:	912ec000 	add	x0, x0, #0xbb0
ffff000000002d2c:	d2804601 	mov	x1, #0x230                 	// #560
ffff000000002d30:	9400369a 	bl	ffff000000010798 <memzero>
ffff000000002d34:	1400005d 	b	ffff000000002ea8 <search_file+0x190>
ffff000000002d38:	d00004c0 	adrp	x0, ffff00000009c000 <task+0x18>
ffff000000002d3c:	9107a000 	add	x0, x0, #0x1e8
ffff000000002d40:	f9400000 	ldr	x0, [x0]
ffff000000002d44:	39400000 	ldrb	w0, [x0]
ffff000000002d48:	7103941f 	cmp	w0, #0xe5
ffff000000002d4c:	540009e0 	b.eq	ffff000000002e88 <search_file+0x170>
ffff000000002d50:	d00004c0 	adrp	x0, ffff00000009c000 <task+0x18>
ffff000000002d54:	9107a000 	add	x0, x0, #0x1e8
ffff000000002d58:	f9400000 	ldr	x0, [x0]
ffff000000002d5c:	39402c00 	ldrb	w0, [x0,#11]
ffff000000002d60:	71003c1f 	cmp	w0, #0xf
ffff000000002d64:	54000920 	b.eq	ffff000000002e88 <search_file+0x170>
ffff000000002d68:	d00004c0 	adrp	x0, ffff00000009c000 <task+0x18>
ffff000000002d6c:	9107a000 	add	x0, x0, #0x1e8
ffff000000002d70:	f9400000 	ldr	x0, [x0]
ffff000000002d74:	aa0003e3 	mov	x3, x0
ffff000000002d78:	b9801fa1 	ldrsw	x1, [x29,#28]
ffff000000002d7c:	d2800380 	mov	x0, #0x1c                  	// #28
ffff000000002d80:	9b007c21 	mul	x1, x1, x0
ffff000000002d84:	b00004c0 	adrp	x0, ffff00000009b000 <thread_id_table+0x75d0>
ffff000000002d88:	912ec000 	add	x0, x0, #0xbb0
ffff000000002d8c:	8b000020 	add	x0, x1, x0
ffff000000002d90:	d2800162 	mov	x2, #0xb                   	// #11
ffff000000002d94:	aa0003e1 	mov	x1, x0
ffff000000002d98:	aa0303e0 	mov	x0, x3
ffff000000002d9c:	94003670 	bl	ffff00000001075c <memcpy>
ffff000000002da0:	d00004c0 	adrp	x0, ffff00000009c000 <task+0x18>
ffff000000002da4:	9107a000 	add	x0, x0, #0x1e8
ffff000000002da8:	f9400000 	ldr	x0, [x0]
ffff000000002dac:	91002c00 	add	x0, x0, #0xb
ffff000000002db0:	aa0003e3 	mov	x3, x0
ffff000000002db4:	b9801fa1 	ldrsw	x1, [x29,#28]
ffff000000002db8:	d2800380 	mov	x0, #0x1c                  	// #28
ffff000000002dbc:	9b007c21 	mul	x1, x1, x0
ffff000000002dc0:	b00004c0 	adrp	x0, ffff00000009b000 <thread_id_table+0x75d0>
ffff000000002dc4:	912ec000 	add	x0, x0, #0xbb0
ffff000000002dc8:	8b000020 	add	x0, x1, x0
ffff000000002dcc:	91002c00 	add	x0, x0, #0xb
ffff000000002dd0:	d2800122 	mov	x2, #0x9                   	// #9
ffff000000002dd4:	aa0003e1 	mov	x1, x0
ffff000000002dd8:	aa0303e0 	mov	x0, x3
ffff000000002ddc:	94003660 	bl	ffff00000001075c <memcpy>
ffff000000002de0:	d00004c0 	adrp	x0, ffff00000009c000 <task+0x18>
ffff000000002de4:	9107a000 	add	x0, x0, #0x1e8
ffff000000002de8:	f9400000 	ldr	x0, [x0]
ffff000000002dec:	b9401c01 	ldr	w1, [x0,#28]
ffff000000002df0:	b00004c0 	adrp	x0, ffff00000009b000 <thread_id_table+0x75d0>
ffff000000002df4:	912ec002 	add	x2, x0, #0xbb0
ffff000000002df8:	b9801fa3 	ldrsw	x3, [x29,#28]
ffff000000002dfc:	d2800380 	mov	x0, #0x1c                  	// #28
ffff000000002e00:	9b007c60 	mul	x0, x3, x0
ffff000000002e04:	8b000040 	add	x0, x2, x0
ffff000000002e08:	91005000 	add	x0, x0, #0x14
ffff000000002e0c:	b9000001 	str	w1, [x0]
ffff000000002e10:	d00004c0 	adrp	x0, ffff00000009c000 <task+0x18>
ffff000000002e14:	9107a000 	add	x0, x0, #0x1e8
ffff000000002e18:	f9400000 	ldr	x0, [x0]
ffff000000002e1c:	79402803 	ldrh	w3, [x0,#20]
ffff000000002e20:	b00004c0 	adrp	x0, ffff00000009b000 <thread_id_table+0x75d0>
ffff000000002e24:	912ec001 	add	x1, x0, #0xbb0
ffff000000002e28:	b9801fa2 	ldrsw	x2, [x29,#28]
ffff000000002e2c:	d2800380 	mov	x0, #0x1c                  	// #28
ffff000000002e30:	9b007c40 	mul	x0, x2, x0
ffff000000002e34:	8b000020 	add	x0, x1, x0
ffff000000002e38:	91006000 	add	x0, x0, #0x18
ffff000000002e3c:	2a0303e1 	mov	w1, w3
ffff000000002e40:	79000001 	strh	w1, [x0]
ffff000000002e44:	d00004c0 	adrp	x0, ffff00000009c000 <task+0x18>
ffff000000002e48:	9107a000 	add	x0, x0, #0x1e8
ffff000000002e4c:	f9400000 	ldr	x0, [x0]
ffff000000002e50:	79403403 	ldrh	w3, [x0,#26]
ffff000000002e54:	b00004c0 	adrp	x0, ffff00000009b000 <thread_id_table+0x75d0>
ffff000000002e58:	912ec001 	add	x1, x0, #0xbb0
ffff000000002e5c:	b9801fa2 	ldrsw	x2, [x29,#28]
ffff000000002e60:	d2800380 	mov	x0, #0x1c                  	// #28
ffff000000002e64:	9b007c40 	mul	x0, x2, x0
ffff000000002e68:	8b000020 	add	x0, x1, x0
ffff000000002e6c:	91006800 	add	x0, x0, #0x1a
ffff000000002e70:	2a0303e1 	mov	w1, w3
ffff000000002e74:	79000001 	strh	w1, [x0]
ffff000000002e78:	b9401fa0 	ldr	w0, [x29,#28]
ffff000000002e7c:	11000400 	add	w0, w0, #0x1
ffff000000002e80:	b9001fa0 	str	w0, [x29,#28]
ffff000000002e84:	14000002 	b	ffff000000002e8c <search_file+0x174>
ffff000000002e88:	d503201f 	nop
ffff000000002e8c:	d00004c0 	adrp	x0, ffff00000009c000 <task+0x18>
ffff000000002e90:	9107a000 	add	x0, x0, #0x1e8
ffff000000002e94:	f9400000 	ldr	x0, [x0]
ffff000000002e98:	91008001 	add	x1, x0, #0x20
ffff000000002e9c:	d00004c0 	adrp	x0, ffff00000009c000 <task+0x18>
ffff000000002ea0:	9107a000 	add	x0, x0, #0x1e8
ffff000000002ea4:	f9000001 	str	x1, [x0]
ffff000000002ea8:	d00004c0 	adrp	x0, ffff00000009c000 <task+0x18>
ffff000000002eac:	9107a000 	add	x0, x0, #0x1e8
ffff000000002eb0:	f9400000 	ldr	x0, [x0]
ffff000000002eb4:	39400000 	ldrb	w0, [x0]
ffff000000002eb8:	7100001f 	cmp	w0, #0x0
ffff000000002ebc:	54fff3e1 	b.ne	ffff000000002d38 <search_file+0x20>
ffff000000002ec0:	b00004c0 	adrp	x0, ffff00000009b000 <thread_id_table+0x75d0>
ffff000000002ec4:	912ec000 	add	x0, x0, #0xbb0
ffff000000002ec8:	a8c27bfd 	ldp	x29, x30, [sp],#32
ffff000000002ecc:	d65f03c0 	ret

ffff000000002ed0 <enable_interrupt_controller>:
ffff000000002ed0:	a9bf7bfd 	stp	x29, x30, [sp,#-16]!
ffff000000002ed4:	910003fd 	mov	x29, sp
ffff000000002ed8:	52800041 	mov	w1, #0x2                   	// #2
ffff000000002edc:	d2964200 	mov	x0, #0xb210                	// #45584
ffff000000002ee0:	f2a7e000 	movk	x0, #0x3f00, lsl #16
ffff000000002ee4:	f2ffffe0 	movk	x0, #0xffff, lsl #48
ffff000000002ee8:	94003a97 	bl	ffff000000011944 <put32>
ffff000000002eec:	d503201f 	nop
ffff000000002ef0:	a8c17bfd 	ldp	x29, x30, [sp],#16
ffff000000002ef4:	d65f03c0 	ret

ffff000000002ef8 <show_invalid_entry_message>:
ffff000000002ef8:	a9bc7bfd 	stp	x29, x30, [sp,#-64]!
ffff000000002efc:	910003fd 	mov	x29, sp
ffff000000002f00:	b9002fa0 	str	w0, [x29,#44]
ffff000000002f04:	f90013a1 	str	x1, [x29,#32]
ffff000000002f08:	f9000fa2 	str	x2, [x29,#24]
ffff000000002f0c:	90000080 	adrp	x0, ffff000000012000 <sys_call_table+0x1c8>
ffff000000002f10:	912ca000 	add	x0, x0, #0xb28
ffff000000002f14:	b9802fa1 	ldrsw	x1, [x29,#44]
ffff000000002f18:	f8617801 	ldr	x1, [x0,x1,lsl #3]
ffff000000002f1c:	f0000060 	adrp	x0, ffff000000011000 <irq_invalid_el1t+0x14>
ffff000000002f20:	9132a000 	add	x0, x0, #0xca8
ffff000000002f24:	f9400fa3 	ldr	x3, [x29,#24]
ffff000000002f28:	f94013a2 	ldr	x2, [x29,#32]
ffff000000002f2c:	940009f7 	bl	ffff000000005708 <tfp_printf>
ffff000000002f30:	97fffb10 	bl	ffff000000001b70 <sp_info>
ffff000000002f34:	7140041f 	cmp	w0, #0x1, lsl #12
ffff000000002f38:	540000ed 	b.le	ffff000000002f54 <show_invalid_entry_message+0x5c>
ffff000000002f3c:	b9003fbf 	str	wzr, [x29,#60]
ffff000000002f40:	f0000060 	adrp	x0, ffff000000011000 <irq_invalid_el1t+0x14>
ffff000000002f44:	91332000 	add	x0, x0, #0xcc8
ffff000000002f48:	940009f0 	bl	ffff000000005708 <tfp_printf>
ffff000000002f4c:	b9803fa0 	ldrsw	x0, [x29,#60]
ffff000000002f50:	940005df 	bl	ffff0000000046cc <_thread_exit>
ffff000000002f54:	d503201f 	nop
ffff000000002f58:	a8c47bfd 	ldp	x29, x30, [sp],#64
ffff000000002f5c:	d65f03c0 	ret

ffff000000002f60 <handle_irq>:
ffff000000002f60:	a9be7bfd 	stp	x29, x30, [sp,#-32]!
ffff000000002f64:	910003fd 	mov	x29, sp
ffff000000002f68:	d2964080 	mov	x0, #0xb204                	// #45572
ffff000000002f6c:	f2a7e000 	movk	x0, #0x3f00, lsl #16
ffff000000002f70:	f2ffffe0 	movk	x0, #0xffff, lsl #48
ffff000000002f74:	94003a76 	bl	ffff00000001194c <get32>
ffff000000002f78:	b9001fa0 	str	w0, [x29,#28]
ffff000000002f7c:	b9401fa0 	ldr	w0, [x29,#28]
ffff000000002f80:	7100081f 	cmp	w0, #0x2
ffff000000002f84:	54000040 	b.eq	ffff000000002f8c <handle_irq+0x2c>
ffff000000002f88:	14000003 	b	ffff000000002f94 <handle_irq+0x34>
ffff000000002f8c:	9400037b 	bl	ffff000000003d78 <handle_timer_irq>
ffff000000002f90:	d503201f 	nop
ffff000000002f94:	d503201f 	nop
ffff000000002f98:	a8c27bfd 	ldp	x29, x30, [sp],#32
ffff000000002f9c:	d65f03c0 	ret

ffff000000002fa0 <preempt_disable>:
ffff000000002fa0:	90000080 	adrp	x0, ffff000000012000 <sys_call_table+0x1c8>
ffff000000002fa4:	913b0000 	add	x0, x0, #0xec0
ffff000000002fa8:	f9400000 	ldr	x0, [x0]
ffff000000002fac:	f9401000 	ldr	x0, [x0,#32]
ffff000000002fb0:	90000081 	adrp	x1, ffff000000012000 <sys_call_table+0x1c8>
ffff000000002fb4:	913b0021 	add	x1, x1, #0xec0
ffff000000002fb8:	f9400021 	ldr	x1, [x1]
ffff000000002fbc:	f9401021 	ldr	x1, [x1,#32]
ffff000000002fc0:	f9400021 	ldr	x1, [x1]
ffff000000002fc4:	91000421 	add	x1, x1, #0x1
ffff000000002fc8:	f9000001 	str	x1, [x0]
ffff000000002fcc:	d503201f 	nop
ffff000000002fd0:	d65f03c0 	ret

ffff000000002fd4 <preempt_enable>:
ffff000000002fd4:	90000080 	adrp	x0, ffff000000012000 <sys_call_table+0x1c8>
ffff000000002fd8:	913b0000 	add	x0, x0, #0xec0
ffff000000002fdc:	f9400000 	ldr	x0, [x0]
ffff000000002fe0:	f9401000 	ldr	x0, [x0,#32]
ffff000000002fe4:	90000081 	adrp	x1, ffff000000012000 <sys_call_table+0x1c8>
ffff000000002fe8:	913b0021 	add	x1, x1, #0xec0
ffff000000002fec:	f9400021 	ldr	x1, [x1]
ffff000000002ff0:	f9401021 	ldr	x1, [x1,#32]
ffff000000002ff4:	f9400021 	ldr	x1, [x1]
ffff000000002ff8:	d1000421 	sub	x1, x1, #0x1
ffff000000002ffc:	f9000001 	str	x1, [x0]
ffff000000003000:	d503201f 	nop
ffff000000003004:	d65f03c0 	ret

ffff000000003008 <is_running>:
ffff000000003008:	d10043ff 	sub	sp, sp, #0x10
ffff00000000300c:	f90007e0 	str	x0, [sp,#8]
ffff000000003010:	f94007e0 	ldr	x0, [sp,#8]
ffff000000003014:	f9400400 	ldr	x0, [x0,#8]
ffff000000003018:	f9400000 	ldr	x0, [x0]
ffff00000000301c:	f100001f 	cmp	x0, #0x0
ffff000000003020:	54000160 	b.eq	ffff00000000304c <is_running+0x44>
ffff000000003024:	f94007e0 	ldr	x0, [sp,#8]
ffff000000003028:	f9400400 	ldr	x0, [x0,#8]
ffff00000000302c:	f9400000 	ldr	x0, [x0]
ffff000000003030:	f100081f 	cmp	x0, #0x2
ffff000000003034:	540000c0 	b.eq	ffff00000000304c <is_running+0x44>
ffff000000003038:	f94007e0 	ldr	x0, [sp,#8]
ffff00000000303c:	f9400400 	ldr	x0, [x0,#8]
ffff000000003040:	f9400000 	ldr	x0, [x0]
ffff000000003044:	f1000c1f 	cmp	x0, #0x3
ffff000000003048:	54000061 	b.ne	ffff000000003054 <is_running+0x4c>
ffff00000000304c:	52800020 	mov	w0, #0x1                   	// #1
ffff000000003050:	14000002 	b	ffff000000003058 <is_running+0x50>
ffff000000003054:	52800000 	mov	w0, #0x0                   	// #0
ffff000000003058:	910043ff 	add	sp, sp, #0x10
ffff00000000305c:	d65f03c0 	ret

ffff000000003060 <_schedule>:
ffff000000003060:	a9bf7bfd 	stp	x29, x30, [sp,#-16]!
ffff000000003064:	910003fd 	mov	x29, sp
ffff000000003068:	97ffffce 	bl	ffff000000002fa0 <preempt_disable>
ffff00000000306c:	90000080 	adrp	x0, ffff000000013000 <sdCommandTable+0x110>
ffff000000003070:	9117e000 	add	x0, x0, #0x5f8
ffff000000003074:	b9400001 	ldr	w1, [x0]
ffff000000003078:	f0000060 	adrp	x0, ffff000000012000 <sys_call_table+0x1c8>
ffff00000000307c:	913b2000 	add	x0, x0, #0xec8
ffff000000003080:	93407c21 	sxtw	x1, w1
ffff000000003084:	f8617800 	ldr	x0, [x0,x1,lsl #3]
ffff000000003088:	f9400800 	ldr	x0, [x0,#16]
ffff00000000308c:	90000081 	adrp	x1, ffff000000013000 <sdCommandTable+0x110>
ffff000000003090:	9117e021 	add	x1, x1, #0x5f8
ffff000000003094:	b9400022 	ldr	w2, [x1]
ffff000000003098:	f0000061 	adrp	x1, ffff000000012000 <sys_call_table+0x1c8>
ffff00000000309c:	913b2021 	add	x1, x1, #0xec8
ffff0000000030a0:	93407c42 	sxtw	x2, w2
ffff0000000030a4:	f8627821 	ldr	x1, [x1,x2,lsl #3]
ffff0000000030a8:	f9400821 	ldr	x1, [x1,#16]
ffff0000000030ac:	f9400021 	ldr	x1, [x1]
ffff0000000030b0:	9341fc22 	asr	x2, x1, #1
ffff0000000030b4:	90000081 	adrp	x1, ffff000000013000 <sdCommandTable+0x110>
ffff0000000030b8:	9117e021 	add	x1, x1, #0x5f8
ffff0000000030bc:	b9400023 	ldr	w3, [x1]
ffff0000000030c0:	f0000061 	adrp	x1, ffff000000012000 <sys_call_table+0x1c8>
ffff0000000030c4:	913b2021 	add	x1, x1, #0xec8
ffff0000000030c8:	93407c63 	sxtw	x3, w3
ffff0000000030cc:	f8637821 	ldr	x1, [x1,x3,lsl #3]
ffff0000000030d0:	f9400c21 	ldr	x1, [x1,#24]
ffff0000000030d4:	f9400021 	ldr	x1, [x1]
ffff0000000030d8:	8b010041 	add	x1, x2, x1
ffff0000000030dc:	f9000001 	str	x1, [x0]
ffff0000000030e0:	1400001e 	b	ffff000000003158 <_schedule+0xf8>
ffff0000000030e4:	90000080 	adrp	x0, ffff000000013000 <sdCommandTable+0x110>
ffff0000000030e8:	9117e000 	add	x0, x0, #0x5f8
ffff0000000030ec:	b9400003 	ldr	w3, [x0]
ffff0000000030f0:	90000080 	adrp	x0, ffff000000013000 <sdCommandTable+0x110>
ffff0000000030f4:	9117e000 	add	x0, x0, #0x5f8
ffff0000000030f8:	b9400001 	ldr	w1, [x0]
ffff0000000030fc:	f0000060 	adrp	x0, ffff000000012000 <sys_call_table+0x1c8>
ffff000000003100:	913b6000 	add	x0, x0, #0xed8
ffff000000003104:	93407c21 	sxtw	x1, w1
ffff000000003108:	f8617802 	ldr	x2, [x0,x1,lsl #3]
ffff00000000310c:	f0000060 	adrp	x0, ffff000000012000 <sys_call_table+0x1c8>
ffff000000003110:	913b2000 	add	x0, x0, #0xec8
ffff000000003114:	93407c61 	sxtw	x1, w3
ffff000000003118:	f8217802 	str	x2, [x0,x1,lsl #3]
ffff00000000311c:	90000080 	adrp	x0, ffff000000013000 <sdCommandTable+0x110>
ffff000000003120:	9117e000 	add	x0, x0, #0x5f8
ffff000000003124:	b9400000 	ldr	w0, [x0]
ffff000000003128:	11000401 	add	w1, w0, #0x1
ffff00000000312c:	90000080 	adrp	x0, ffff000000013000 <sdCommandTable+0x110>
ffff000000003130:	9117e000 	add	x0, x0, #0x5f8
ffff000000003134:	b9000001 	str	w1, [x0]
ffff000000003138:	90000080 	adrp	x0, ffff000000013000 <sdCommandTable+0x110>
ffff00000000313c:	9117e000 	add	x0, x0, #0x5f8
ffff000000003140:	b9400000 	ldr	w0, [x0]
ffff000000003144:	7100081f 	cmp	w0, #0x2
ffff000000003148:	54000081 	b.ne	ffff000000003158 <_schedule+0xf8>
ffff00000000314c:	90000080 	adrp	x0, ffff000000013000 <sdCommandTable+0x110>
ffff000000003150:	9117e000 	add	x0, x0, #0x5f8
ffff000000003154:	b900001f 	str	wzr, [x0]
ffff000000003158:	90000080 	adrp	x0, ffff000000013000 <sdCommandTable+0x110>
ffff00000000315c:	9117e000 	add	x0, x0, #0x5f8
ffff000000003160:	b9400001 	ldr	w1, [x0]
ffff000000003164:	f0000060 	adrp	x0, ffff000000012000 <sys_call_table+0x1c8>
ffff000000003168:	913b2000 	add	x0, x0, #0xec8
ffff00000000316c:	93407c21 	sxtw	x1, w1
ffff000000003170:	f8617800 	ldr	x0, [x0,x1,lsl #3]
ffff000000003174:	f9404000 	ldr	x0, [x0,#128]
ffff000000003178:	f100001f 	cmp	x0, #0x0
ffff00000000317c:	54fffb40 	b.eq	ffff0000000030e4 <_schedule+0x84>
ffff000000003180:	90000080 	adrp	x0, ffff000000013000 <sdCommandTable+0x110>
ffff000000003184:	9117e000 	add	x0, x0, #0x5f8
ffff000000003188:	b9400001 	ldr	w1, [x0]
ffff00000000318c:	f0000060 	adrp	x0, ffff000000012000 <sys_call_table+0x1c8>
ffff000000003190:	913b2000 	add	x0, x0, #0xec8
ffff000000003194:	93407c21 	sxtw	x1, w1
ffff000000003198:	f8617800 	ldr	x0, [x0,x1,lsl #3]
ffff00000000319c:	f9404000 	ldr	x0, [x0,#128]
ffff0000000031a0:	97ffff9a 	bl	ffff000000003008 <is_running>
ffff0000000031a4:	7100001f 	cmp	w0, #0x0
ffff0000000031a8:	54000221 	b.ne	ffff0000000031ec <_schedule+0x18c>
ffff0000000031ac:	90000080 	adrp	x0, ffff000000013000 <sdCommandTable+0x110>
ffff0000000031b0:	9117e000 	add	x0, x0, #0x5f8
ffff0000000031b4:	b9400003 	ldr	w3, [x0]
ffff0000000031b8:	90000080 	adrp	x0, ffff000000013000 <sdCommandTable+0x110>
ffff0000000031bc:	9117e000 	add	x0, x0, #0x5f8
ffff0000000031c0:	b9400001 	ldr	w1, [x0]
ffff0000000031c4:	f0000060 	adrp	x0, ffff000000012000 <sys_call_table+0x1c8>
ffff0000000031c8:	913b2000 	add	x0, x0, #0xec8
ffff0000000031cc:	93407c21 	sxtw	x1, w1
ffff0000000031d0:	f8617800 	ldr	x0, [x0,x1,lsl #3]
ffff0000000031d4:	f9404002 	ldr	x2, [x0,#128]
ffff0000000031d8:	f0000060 	adrp	x0, ffff000000012000 <sys_call_table+0x1c8>
ffff0000000031dc:	913b2000 	add	x0, x0, #0xec8
ffff0000000031e0:	93407c61 	sxtw	x1, w3
ffff0000000031e4:	f8217802 	str	x2, [x0,x1,lsl #3]
ffff0000000031e8:	17ffffbe 	b	ffff0000000030e0 <_schedule+0x80>
ffff0000000031ec:	d503201f 	nop
ffff0000000031f0:	90000080 	adrp	x0, ffff000000013000 <sdCommandTable+0x110>
ffff0000000031f4:	9117e000 	add	x0, x0, #0x5f8
ffff0000000031f8:	b9400003 	ldr	w3, [x0]
ffff0000000031fc:	90000080 	adrp	x0, ffff000000013000 <sdCommandTable+0x110>
ffff000000003200:	9117e000 	add	x0, x0, #0x5f8
ffff000000003204:	b9400001 	ldr	w1, [x0]
ffff000000003208:	f0000060 	adrp	x0, ffff000000012000 <sys_call_table+0x1c8>
ffff00000000320c:	913b2000 	add	x0, x0, #0xec8
ffff000000003210:	93407c21 	sxtw	x1, w1
ffff000000003214:	f8617800 	ldr	x0, [x0,x1,lsl #3]
ffff000000003218:	f9404002 	ldr	x2, [x0,#128]
ffff00000000321c:	f0000060 	adrp	x0, ffff000000012000 <sys_call_table+0x1c8>
ffff000000003220:	913b2000 	add	x0, x0, #0xec8
ffff000000003224:	93407c61 	sxtw	x1, w3
ffff000000003228:	f8217802 	str	x2, [x0,x1,lsl #3]
ffff00000000322c:	90000080 	adrp	x0, ffff000000013000 <sdCommandTable+0x110>
ffff000000003230:	9117e000 	add	x0, x0, #0x5f8
ffff000000003234:	b9400001 	ldr	w1, [x0]
ffff000000003238:	f0000060 	adrp	x0, ffff000000012000 <sys_call_table+0x1c8>
ffff00000000323c:	913b2000 	add	x0, x0, #0xec8
ffff000000003240:	93407c21 	sxtw	x1, w1
ffff000000003244:	f8617800 	ldr	x0, [x0,x1,lsl #3]
ffff000000003248:	94000010 	bl	ffff000000003288 <switch_to>
ffff00000000324c:	97ffff62 	bl	ffff000000002fd4 <preempt_enable>
ffff000000003250:	d503201f 	nop
ffff000000003254:	a8c17bfd 	ldp	x29, x30, [sp],#16
ffff000000003258:	d65f03c0 	ret

ffff00000000325c <schedule>:
ffff00000000325c:	a9bf7bfd 	stp	x29, x30, [sp,#-16]!
ffff000000003260:	910003fd 	mov	x29, sp
ffff000000003264:	f0000060 	adrp	x0, ffff000000012000 <sys_call_table+0x1c8>
ffff000000003268:	913b0000 	add	x0, x0, #0xec0
ffff00000000326c:	f9400000 	ldr	x0, [x0]
ffff000000003270:	f9400800 	ldr	x0, [x0,#16]
ffff000000003274:	f900001f 	str	xzr, [x0]
ffff000000003278:	97ffff7a 	bl	ffff000000003060 <_schedule>
ffff00000000327c:	d503201f 	nop
ffff000000003280:	a8c17bfd 	ldp	x29, x30, [sp],#16
ffff000000003284:	d65f03c0 	ret

ffff000000003288 <switch_to>:
ffff000000003288:	a9be7bfd 	stp	x29, x30, [sp,#-32]!
ffff00000000328c:	910003fd 	mov	x29, sp
ffff000000003290:	f9000fa0 	str	x0, [x29,#24]
ffff000000003294:	f0000060 	adrp	x0, ffff000000012000 <sys_call_table+0x1c8>
ffff000000003298:	913b0000 	add	x0, x0, #0xec0
ffff00000000329c:	f9400001 	ldr	x1, [x0]
ffff0000000032a0:	f9400fa0 	ldr	x0, [x29,#24]
ffff0000000032a4:	eb00003f 	cmp	x1, x0
ffff0000000032a8:	54000be0 	b.eq	ffff000000003424 <switch_to+0x19c>
ffff0000000032ac:	90000080 	adrp	x0, ffff000000013000 <sdCommandTable+0x110>
ffff0000000032b0:	9117f000 	add	x0, x0, #0x5fc
ffff0000000032b4:	b9400000 	ldr	w0, [x0]
ffff0000000032b8:	7100001f 	cmp	w0, #0x0
ffff0000000032bc:	54000541 	b.ne	ffff000000003364 <switch_to+0xdc>
ffff0000000032c0:	52820000 	mov	w0, #0x1000                	// #4096
ffff0000000032c4:	94000302 	bl	ffff000000003ecc <allocate_kernel_page>
ffff0000000032c8:	b00004c2 	adrp	x2, ffff00000009c000 <task+0x18>
ffff0000000032cc:	91082042 	add	x2, x2, #0x208
ffff0000000032d0:	a9000440 	stp	x0, x1, [x2]
ffff0000000032d4:	52820000 	mov	w0, #0x1000                	// #4096
ffff0000000032d8:	940002fd 	bl	ffff000000003ecc <allocate_kernel_page>
ffff0000000032dc:	b00004c2 	adrp	x2, ffff00000009c000 <task+0x18>
ffff0000000032e0:	9108a042 	add	x2, x2, #0x228
ffff0000000032e4:	a9000440 	stp	x0, x1, [x2]
ffff0000000032e8:	b00004c0 	adrp	x0, ffff00000009c000 <task+0x18>
ffff0000000032ec:	91082000 	add	x0, x0, #0x208
ffff0000000032f0:	f9400001 	ldr	x1, [x0]
ffff0000000032f4:	b00004c0 	adrp	x0, ffff00000009c000 <task+0x18>
ffff0000000032f8:	9107e000 	add	x0, x0, #0x1f8
ffff0000000032fc:	f9000001 	str	x1, [x0]
ffff000000003300:	b00004c0 	adrp	x0, ffff00000009c000 <task+0x18>
ffff000000003304:	9108a000 	add	x0, x0, #0x228
ffff000000003308:	f9400001 	ldr	x1, [x0]
ffff00000000330c:	b00004c0 	adrp	x0, ffff00000009c000 <task+0x18>
ffff000000003310:	91086000 	add	x0, x0, #0x218
ffff000000003314:	f9000001 	str	x1, [x0]
ffff000000003318:	b00004c0 	adrp	x0, ffff00000009c000 <task+0x18>
ffff00000000331c:	9107e000 	add	x0, x0, #0x1f8
ffff000000003320:	f9400000 	ldr	x0, [x0]
ffff000000003324:	aa0003e1 	mov	x1, x0
ffff000000003328:	b00004c0 	adrp	x0, ffff00000009c000 <task+0x18>
ffff00000000332c:	9108e000 	add	x0, x0, #0x238
ffff000000003330:	f9000001 	str	x1, [x0]
ffff000000003334:	b00004c0 	adrp	x0, ffff00000009c000 <task+0x18>
ffff000000003338:	91086000 	add	x0, x0, #0x218
ffff00000000333c:	f9400000 	ldr	x0, [x0]
ffff000000003340:	aa0003e1 	mov	x1, x0
ffff000000003344:	b00004c0 	adrp	x0, ffff00000009c000 <task+0x18>
ffff000000003348:	91090000 	add	x0, x0, #0x240
ffff00000000334c:	f9000001 	str	x1, [x0]
ffff000000003350:	90000080 	adrp	x0, ffff000000013000 <sdCommandTable+0x110>
ffff000000003354:	9117f000 	add	x0, x0, #0x5fc
ffff000000003358:	52800021 	mov	w1, #0x1                   	// #1
ffff00000000335c:	b9000001 	str	w1, [x0]
ffff000000003360:	1400000e 	b	ffff000000003398 <switch_to+0x110>
ffff000000003364:	b00004c0 	adrp	x0, ffff00000009c000 <task+0x18>
ffff000000003368:	9108e000 	add	x0, x0, #0x238
ffff00000000336c:	f9400001 	ldr	x1, [x0]
ffff000000003370:	b00004c0 	adrp	x0, ffff00000009c000 <task+0x18>
ffff000000003374:	91092000 	add	x0, x0, #0x248
ffff000000003378:	f9400000 	ldr	x0, [x0]
ffff00000000337c:	f9400000 	ldr	x0, [x0]
ffff000000003380:	aa0103e3 	mov	x3, x1
ffff000000003384:	aa0003e1 	mov	x1, x0
ffff000000003388:	d2800d00 	mov	x0, #0x68                  	// #104
ffff00000000338c:	aa0003e2 	mov	x2, x0
ffff000000003390:	aa0303e0 	mov	x0, x3
ffff000000003394:	940034f2 	bl	ffff00000001075c <memcpy>
ffff000000003398:	f0000060 	adrp	x0, ffff000000012000 <sys_call_table+0x1c8>
ffff00000000339c:	913b0000 	add	x0, x0, #0xec0
ffff0000000033a0:	f9400001 	ldr	x1, [x0]
ffff0000000033a4:	b00004c0 	adrp	x0, ffff00000009c000 <task+0x18>
ffff0000000033a8:	91092000 	add	x0, x0, #0x248
ffff0000000033ac:	f9000001 	str	x1, [x0]
ffff0000000033b0:	f0000060 	adrp	x0, ffff000000012000 <sys_call_table+0x1c8>
ffff0000000033b4:	913b0000 	add	x0, x0, #0xec0
ffff0000000033b8:	f9400fa1 	ldr	x1, [x29,#24]
ffff0000000033bc:	f9000001 	str	x1, [x0]
ffff0000000033c0:	f9400fa0 	ldr	x0, [x29,#24]
ffff0000000033c4:	f9401800 	ldr	x0, [x0,#48]
ffff0000000033c8:	f9400000 	ldr	x0, [x0]
ffff0000000033cc:	94003965 	bl	ffff000000011960 <set_pgd>
ffff0000000033d0:	f9400fa0 	ldr	x0, [x29,#24]
ffff0000000033d4:	f9400001 	ldr	x1, [x0]
ffff0000000033d8:	b00004c0 	adrp	x0, ffff00000009c000 <task+0x18>
ffff0000000033dc:	91090000 	add	x0, x0, #0x240
ffff0000000033e0:	f9400000 	ldr	x0, [x0]
ffff0000000033e4:	aa0103e3 	mov	x3, x1
ffff0000000033e8:	aa0003e1 	mov	x1, x0
ffff0000000033ec:	d2800d00 	mov	x0, #0x68                  	// #104
ffff0000000033f0:	aa0003e2 	mov	x2, x0
ffff0000000033f4:	aa0303e0 	mov	x0, x3
ffff0000000033f8:	940034d9 	bl	ffff00000001075c <memcpy>
ffff0000000033fc:	b00004c0 	adrp	x0, ffff00000009c000 <task+0x18>
ffff000000003400:	9108e000 	add	x0, x0, #0x238
ffff000000003404:	f9400002 	ldr	x2, [x0]
ffff000000003408:	b00004c0 	adrp	x0, ffff00000009c000 <task+0x18>
ffff00000000340c:	91090000 	add	x0, x0, #0x240
ffff000000003410:	f9400000 	ldr	x0, [x0]
ffff000000003414:	aa0003e1 	mov	x1, x0
ffff000000003418:	aa0203e0 	mov	x0, x2
ffff00000000341c:	940034bc 	bl	ffff00000001070c <cpu_switch_to>
ffff000000003420:	14000002 	b	ffff000000003428 <switch_to+0x1a0>
ffff000000003424:	d503201f 	nop
ffff000000003428:	a8c27bfd 	ldp	x29, x30, [sp],#32
ffff00000000342c:	d65f03c0 	ret

ffff000000003430 <schedule_tail>:
ffff000000003430:	a9bf7bfd 	stp	x29, x30, [sp,#-16]!
ffff000000003434:	910003fd 	mov	x29, sp
ffff000000003438:	97fffee7 	bl	ffff000000002fd4 <preempt_enable>
ffff00000000343c:	d503201f 	nop
ffff000000003440:	a8c17bfd 	ldp	x29, x30, [sp],#16
ffff000000003444:	d65f03c0 	ret

ffff000000003448 <timer_tick>:
ffff000000003448:	a9bf7bfd 	stp	x29, x30, [sp,#-16]!
ffff00000000344c:	910003fd 	mov	x29, sp
ffff000000003450:	f0000060 	adrp	x0, ffff000000012000 <sys_call_table+0x1c8>
ffff000000003454:	913b0000 	add	x0, x0, #0xec0
ffff000000003458:	f9400000 	ldr	x0, [x0]
ffff00000000345c:	f9400800 	ldr	x0, [x0,#16]
ffff000000003460:	f9400001 	ldr	x1, [x0]
ffff000000003464:	d1000421 	sub	x1, x1, #0x1
ffff000000003468:	f9000001 	str	x1, [x0]
ffff00000000346c:	f0000060 	adrp	x0, ffff000000012000 <sys_call_table+0x1c8>
ffff000000003470:	913b0000 	add	x0, x0, #0xec0
ffff000000003474:	f9400000 	ldr	x0, [x0]
ffff000000003478:	f9400800 	ldr	x0, [x0,#16]
ffff00000000347c:	f9400000 	ldr	x0, [x0]
ffff000000003480:	f100001f 	cmp	x0, #0x0
ffff000000003484:	5400022c 	b.gt	ffff0000000034c8 <timer_tick+0x80>
ffff000000003488:	f0000060 	adrp	x0, ffff000000012000 <sys_call_table+0x1c8>
ffff00000000348c:	913b0000 	add	x0, x0, #0xec0
ffff000000003490:	f9400000 	ldr	x0, [x0]
ffff000000003494:	f9401000 	ldr	x0, [x0,#32]
ffff000000003498:	f9400000 	ldr	x0, [x0]
ffff00000000349c:	f100001f 	cmp	x0, #0x0
ffff0000000034a0:	5400014c 	b.gt	ffff0000000034c8 <timer_tick+0x80>
ffff0000000034a4:	f0000060 	adrp	x0, ffff000000012000 <sys_call_table+0x1c8>
ffff0000000034a8:	913b0000 	add	x0, x0, #0xec0
ffff0000000034ac:	f9400000 	ldr	x0, [x0]
ffff0000000034b0:	f9400800 	ldr	x0, [x0,#16]
ffff0000000034b4:	f900001f 	str	xzr, [x0]
ffff0000000034b8:	94003491 	bl	ffff0000000106fc <enable_irq>
ffff0000000034bc:	97fffee9 	bl	ffff000000003060 <_schedule>
ffff0000000034c0:	94003491 	bl	ffff000000010704 <disable_irq>
ffff0000000034c4:	14000002 	b	ffff0000000034cc <timer_tick+0x84>
ffff0000000034c8:	d503201f 	nop
ffff0000000034cc:	a8c17bfd 	ldp	x29, x30, [sp],#16
ffff0000000034d0:	d65f03c0 	ret

ffff0000000034d4 <timer3_tick>:
ffff0000000034d4:	d503201f 	nop
ffff0000000034d8:	d65f03c0 	ret

ffff0000000034dc <exit_process>:
ffff0000000034dc:	a9be7bfd 	stp	x29, x30, [sp,#-32]!
ffff0000000034e0:	910003fd 	mov	x29, sp
ffff0000000034e4:	97fffeaf 	bl	ffff000000002fa0 <preempt_disable>
ffff0000000034e8:	b9001fbf 	str	wzr, [x29,#28]
ffff0000000034ec:	14000004 	b	ffff0000000034fc <exit_process+0x20>
ffff0000000034f0:	b9401fa0 	ldr	w0, [x29,#28]
ffff0000000034f4:	11000400 	add	w0, w0, #0x1
ffff0000000034f8:	b9001fa0 	str	w0, [x29,#28]
ffff0000000034fc:	b9401fa0 	ldr	w0, [x29,#28]
ffff000000003500:	7100fc1f 	cmp	w0, #0x3f
ffff000000003504:	54ffff6d 	b.le	ffff0000000034f0 <exit_process+0x14>
ffff000000003508:	97fffeb3 	bl	ffff000000002fd4 <preempt_enable>
ffff00000000350c:	97ffff54 	bl	ffff00000000325c <schedule>
ffff000000003510:	d503201f 	nop
ffff000000003514:	a8c27bfd 	ldp	x29, x30, [sp],#32
ffff000000003518:	d65f03c0 	ret

ffff00000000351c <pm_daemon>:
ffff00000000351c:	a9be7bfd 	stp	x29, x30, [sp,#-32]!
ffff000000003520:	910003fd 	mov	x29, sp
ffff000000003524:	d0000060 	adrp	x0, ffff000000011000 <irq_invalid_el1t+0x14>
ffff000000003528:	91338000 	add	x0, x0, #0xce0
ffff00000000352c:	94000877 	bl	ffff000000005708 <tfp_printf>
ffff000000003530:	d0000060 	adrp	x0, ffff000000011000 <irq_invalid_el1t+0x14>
ffff000000003534:	91342000 	add	x0, x0, #0xd08
ffff000000003538:	94000874 	bl	ffff000000005708 <tfp_printf>
ffff00000000353c:	140000d9 	b	ffff0000000038a0 <pm_daemon+0x384>
ffff000000003540:	90000080 	adrp	x0, ffff000000013000 <sdCommandTable+0x110>
ffff000000003544:	91309000 	add	x0, x0, #0xc24
ffff000000003548:	b9400002 	ldr	w2, [x0]
ffff00000000354c:	90000080 	adrp	x0, ffff000000013000 <sdCommandTable+0x110>
ffff000000003550:	91182001 	add	x1, x0, #0x608
ffff000000003554:	93407c42 	sxtw	x2, w2
ffff000000003558:	d2800300 	mov	x0, #0x18                  	// #24
ffff00000000355c:	9b007c40 	mul	x0, x2, x0
ffff000000003560:	8b000020 	add	x0, x1, x0
ffff000000003564:	b9400000 	ldr	w0, [x0]
ffff000000003568:	7100081f 	cmp	w0, #0x2
ffff00000000356c:	54000820 	b.eq	ffff000000003670 <pm_daemon+0x154>
ffff000000003570:	71000c1f 	cmp	w0, #0x3
ffff000000003574:	54000cc0 	b.eq	ffff00000000370c <pm_daemon+0x1f0>
ffff000000003578:	7100041f 	cmp	w0, #0x1
ffff00000000357c:	54001901 	b.ne	ffff00000000389c <pm_daemon+0x380>
ffff000000003580:	90000080 	adrp	x0, ffff000000013000 <sdCommandTable+0x110>
ffff000000003584:	91309000 	add	x0, x0, #0xc24
ffff000000003588:	b9400002 	ldr	w2, [x0]
ffff00000000358c:	90000080 	adrp	x0, ffff000000013000 <sdCommandTable+0x110>
ffff000000003590:	91182001 	add	x1, x0, #0x608
ffff000000003594:	93407c42 	sxtw	x2, w2
ffff000000003598:	d2800300 	mov	x0, #0x18                  	// #24
ffff00000000359c:	9b007c40 	mul	x0, x2, x0
ffff0000000035a0:	8b000020 	add	x0, x1, x0
ffff0000000035a4:	91001000 	add	x0, x0, #0x4
ffff0000000035a8:	b9400001 	ldr	w1, [x0]
ffff0000000035ac:	900004c0 	adrp	x0, ffff00000009b000 <thread_id_table+0x75d0>
ffff0000000035b0:	913fa000 	add	x0, x0, #0xfe8
ffff0000000035b4:	93407c21 	sxtw	x1, w1
ffff0000000035b8:	f8617800 	ldr	x0, [x0,x1,lsl #3]
ffff0000000035bc:	f9000fa0 	str	x0, [x29,#24]
ffff0000000035c0:	90000080 	adrp	x0, ffff000000013000 <sdCommandTable+0x110>
ffff0000000035c4:	91309000 	add	x0, x0, #0xc24
ffff0000000035c8:	b9400002 	ldr	w2, [x0]
ffff0000000035cc:	f9400fa0 	ldr	x0, [x29,#24]
ffff0000000035d0:	91080000 	add	x0, x0, #0x200
ffff0000000035d4:	d1028003 	sub	x3, x0, #0xa0
ffff0000000035d8:	90000080 	adrp	x0, ffff000000013000 <sdCommandTable+0x110>
ffff0000000035dc:	91182001 	add	x1, x0, #0x608
ffff0000000035e0:	93407c42 	sxtw	x2, w2
ffff0000000035e4:	d2800300 	mov	x0, #0x18                  	// #24
ffff0000000035e8:	9b007c40 	mul	x0, x2, x0
ffff0000000035ec:	8b000020 	add	x0, x1, x0
ffff0000000035f0:	aa0303e2 	mov	x2, x3
ffff0000000035f4:	aa0003e3 	mov	x3, x0
ffff0000000035f8:	a9400460 	ldp	x0, x1, [x3]
ffff0000000035fc:	a9000440 	stp	x0, x1, [x2]
ffff000000003600:	f9400860 	ldr	x0, [x3,#16]
ffff000000003604:	f9000840 	str	x0, [x2,#16]
ffff000000003608:	90000080 	adrp	x0, ffff000000013000 <sdCommandTable+0x110>
ffff00000000360c:	91309000 	add	x0, x0, #0xc24
ffff000000003610:	b9400002 	ldr	w2, [x0]
ffff000000003614:	90000080 	adrp	x0, ffff000000013000 <sdCommandTable+0x110>
ffff000000003618:	91182001 	add	x1, x0, #0x608
ffff00000000361c:	93407c42 	sxtw	x2, w2
ffff000000003620:	d2800300 	mov	x0, #0x18                  	// #24
ffff000000003624:	9b007c40 	mul	x0, x2, x0
ffff000000003628:	8b000020 	add	x0, x1, x0
ffff00000000362c:	b900001f 	str	wzr, [x0]
ffff000000003630:	90000080 	adrp	x0, ffff000000013000 <sdCommandTable+0x110>
ffff000000003634:	91309000 	add	x0, x0, #0xc24
ffff000000003638:	b9400000 	ldr	w0, [x0]
ffff00000000363c:	11000401 	add	w1, w0, #0x1
ffff000000003640:	90000080 	adrp	x0, ffff000000013000 <sdCommandTable+0x110>
ffff000000003644:	91309000 	add	x0, x0, #0xc24
ffff000000003648:	b9000001 	str	w1, [x0]
ffff00000000364c:	90000080 	adrp	x0, ffff000000013000 <sdCommandTable+0x110>
ffff000000003650:	91309000 	add	x0, x0, #0xc24
ffff000000003654:	b9400000 	ldr	w0, [x0]
ffff000000003658:	7101001f 	cmp	w0, #0x40
ffff00000000365c:	54001221 	b.ne	ffff0000000038a0 <pm_daemon+0x384>
ffff000000003660:	90000080 	adrp	x0, ffff000000013000 <sdCommandTable+0x110>
ffff000000003664:	91309000 	add	x0, x0, #0xc24
ffff000000003668:	b900001f 	str	wzr, [x0]
ffff00000000366c:	1400008d 	b	ffff0000000038a0 <pm_daemon+0x384>
ffff000000003670:	90000080 	adrp	x0, ffff000000013000 <sdCommandTable+0x110>
ffff000000003674:	91309000 	add	x0, x0, #0xc24
ffff000000003678:	b9400002 	ldr	w2, [x0]
ffff00000000367c:	90000080 	adrp	x0, ffff000000013000 <sdCommandTable+0x110>
ffff000000003680:	91182001 	add	x1, x0, #0x608
ffff000000003684:	93407c42 	sxtw	x2, w2
ffff000000003688:	d2800300 	mov	x0, #0x18                  	// #24
ffff00000000368c:	9b007c40 	mul	x0, x2, x0
ffff000000003690:	8b000020 	add	x0, x1, x0
ffff000000003694:	91001000 	add	x0, x0, #0x4
ffff000000003698:	b9400001 	ldr	w1, [x0]
ffff00000000369c:	900004c0 	adrp	x0, ffff00000009b000 <thread_id_table+0x75d0>
ffff0000000036a0:	913fa000 	add	x0, x0, #0xfe8
ffff0000000036a4:	93407c21 	sxtw	x1, w1
ffff0000000036a8:	f8617800 	ldr	x0, [x0,x1,lsl #3]
ffff0000000036ac:	f9000fa0 	str	x0, [x29,#24]
ffff0000000036b0:	90000080 	adrp	x0, ffff000000013000 <sdCommandTable+0x110>
ffff0000000036b4:	91309000 	add	x0, x0, #0xc24
ffff0000000036b8:	b9400000 	ldr	w0, [x0]
ffff0000000036bc:	11000402 	add	w2, w0, #0x1
ffff0000000036c0:	90000081 	adrp	x1, ffff000000013000 <sdCommandTable+0x110>
ffff0000000036c4:	91309021 	add	x1, x1, #0xc24
ffff0000000036c8:	b9000022 	str	w2, [x1]
ffff0000000036cc:	90000081 	adrp	x1, ffff000000013000 <sdCommandTable+0x110>
ffff0000000036d0:	91182021 	add	x1, x1, #0x608
ffff0000000036d4:	93407c02 	sxtw	x2, w0
ffff0000000036d8:	d2800300 	mov	x0, #0x18                  	// #24
ffff0000000036dc:	9b007c40 	mul	x0, x2, x0
ffff0000000036e0:	8b000020 	add	x0, x1, x0
ffff0000000036e4:	b900001f 	str	wzr, [x0]
ffff0000000036e8:	90000080 	adrp	x0, ffff000000013000 <sdCommandTable+0x110>
ffff0000000036ec:	91309000 	add	x0, x0, #0xc24
ffff0000000036f0:	b9400000 	ldr	w0, [x0]
ffff0000000036f4:	7101001f 	cmp	w0, #0x40
ffff0000000036f8:	54000d41 	b.ne	ffff0000000038a0 <pm_daemon+0x384>
ffff0000000036fc:	90000080 	adrp	x0, ffff000000013000 <sdCommandTable+0x110>
ffff000000003700:	91309000 	add	x0, x0, #0xc24
ffff000000003704:	b900001f 	str	wzr, [x0]
ffff000000003708:	14000066 	b	ffff0000000038a0 <pm_daemon+0x384>
ffff00000000370c:	90000080 	adrp	x0, ffff000000013000 <sdCommandTable+0x110>
ffff000000003710:	91309000 	add	x0, x0, #0xc24
ffff000000003714:	b9400002 	ldr	w2, [x0]
ffff000000003718:	90000080 	adrp	x0, ffff000000013000 <sdCommandTable+0x110>
ffff00000000371c:	91182001 	add	x1, x0, #0x608
ffff000000003720:	93407c42 	sxtw	x2, w2
ffff000000003724:	d2800300 	mov	x0, #0x18                  	// #24
ffff000000003728:	9b007c40 	mul	x0, x2, x0
ffff00000000372c:	8b000020 	add	x0, x1, x0
ffff000000003730:	91002000 	add	x0, x0, #0x8
ffff000000003734:	f9400000 	ldr	x0, [x0]
ffff000000003738:	f9000fa0 	str	x0, [x29,#24]
ffff00000000373c:	f9400fa0 	ldr	x0, [x29,#24]
ffff000000003740:	f9404401 	ldr	x1, [x0,#136]
ffff000000003744:	f9400fa0 	ldr	x0, [x29,#24]
ffff000000003748:	eb00003f 	cmp	x1, x0
ffff00000000374c:	54000381 	b.ne	ffff0000000037bc <pm_daemon+0x2a0>
ffff000000003750:	14000017 	b	ffff0000000037ac <pm_daemon+0x290>
ffff000000003754:	f9400fa0 	ldr	x0, [x29,#24]
ffff000000003758:	f9403c00 	ldr	x0, [x0,#120]
ffff00000000375c:	f9400fa1 	ldr	x1, [x29,#24]
ffff000000003760:	f9404021 	ldr	x1, [x1,#128]
ffff000000003764:	f9004001 	str	x1, [x0,#128]
ffff000000003768:	f9400fa0 	ldr	x0, [x29,#24]
ffff00000000376c:	f9404000 	ldr	x0, [x0,#128]
ffff000000003770:	f100001f 	cmp	x0, #0x0
ffff000000003774:	540000c0 	b.eq	ffff00000000378c <pm_daemon+0x270>
ffff000000003778:	f9400fa0 	ldr	x0, [x29,#24]
ffff00000000377c:	f9404000 	ldr	x0, [x0,#128]
ffff000000003780:	f9400fa1 	ldr	x1, [x29,#24]
ffff000000003784:	f9403c21 	ldr	x1, [x1,#120]
ffff000000003788:	f9003c01 	str	x1, [x0,#120]
ffff00000000378c:	f9400fa0 	ldr	x0, [x29,#24]
ffff000000003790:	94000298 	bl	ffff0000000041f0 <free_page>
ffff000000003794:	f9400fa0 	ldr	x0, [x29,#24]
ffff000000003798:	f9400000 	ldr	x0, [x0]
ffff00000000379c:	94000295 	bl	ffff0000000041f0 <free_page>
ffff0000000037a0:	f9400fa0 	ldr	x0, [x29,#24]
ffff0000000037a4:	f9404c00 	ldr	x0, [x0,#152]
ffff0000000037a8:	f9000fa0 	str	x0, [x29,#24]
ffff0000000037ac:	f9400fa0 	ldr	x0, [x29,#24]
ffff0000000037b0:	f100001f 	cmp	x0, #0x0
ffff0000000037b4:	54fffd01 	b.ne	ffff000000003754 <pm_daemon+0x238>
ffff0000000037b8:	14000022 	b	ffff000000003840 <pm_daemon+0x324>
ffff0000000037bc:	f9400fa0 	ldr	x0, [x29,#24]
ffff0000000037c0:	f9403c00 	ldr	x0, [x0,#120]
ffff0000000037c4:	f9400fa1 	ldr	x1, [x29,#24]
ffff0000000037c8:	f9404021 	ldr	x1, [x1,#128]
ffff0000000037cc:	f9004001 	str	x1, [x0,#128]
ffff0000000037d0:	f9400fa0 	ldr	x0, [x29,#24]
ffff0000000037d4:	f9404000 	ldr	x0, [x0,#128]
ffff0000000037d8:	f100001f 	cmp	x0, #0x0
ffff0000000037dc:	540000c0 	b.eq	ffff0000000037f4 <pm_daemon+0x2d8>
ffff0000000037e0:	f9400fa0 	ldr	x0, [x29,#24]
ffff0000000037e4:	f9404000 	ldr	x0, [x0,#128]
ffff0000000037e8:	f9400fa1 	ldr	x1, [x29,#24]
ffff0000000037ec:	f9403c21 	ldr	x1, [x1,#120]
ffff0000000037f0:	f9003c01 	str	x1, [x0,#120]
ffff0000000037f4:	f9400fa0 	ldr	x0, [x29,#24]
ffff0000000037f8:	f9404800 	ldr	x0, [x0,#144]
ffff0000000037fc:	f9400fa1 	ldr	x1, [x29,#24]
ffff000000003800:	f9404c21 	ldr	x1, [x1,#152]
ffff000000003804:	f9004c01 	str	x1, [x0,#152]
ffff000000003808:	f9400fa0 	ldr	x0, [x29,#24]
ffff00000000380c:	f9404c00 	ldr	x0, [x0,#152]
ffff000000003810:	f100001f 	cmp	x0, #0x0
ffff000000003814:	540000c0 	b.eq	ffff00000000382c <pm_daemon+0x310>
ffff000000003818:	f9400fa0 	ldr	x0, [x29,#24]
ffff00000000381c:	f9404000 	ldr	x0, [x0,#128]
ffff000000003820:	f9400fa1 	ldr	x1, [x29,#24]
ffff000000003824:	f9404821 	ldr	x1, [x1,#144]
ffff000000003828:	f9003c01 	str	x1, [x0,#120]
ffff00000000382c:	f9400fa0 	ldr	x0, [x29,#24]
ffff000000003830:	94000270 	bl	ffff0000000041f0 <free_page>
ffff000000003834:	f9400fa0 	ldr	x0, [x29,#24]
ffff000000003838:	f9400000 	ldr	x0, [x0]
ffff00000000383c:	9400026d 	bl	ffff0000000041f0 <free_page>
ffff000000003840:	90000080 	adrp	x0, ffff000000013000 <sdCommandTable+0x110>
ffff000000003844:	91309000 	add	x0, x0, #0xc24
ffff000000003848:	b9400000 	ldr	w0, [x0]
ffff00000000384c:	11000402 	add	w2, w0, #0x1
ffff000000003850:	90000081 	adrp	x1, ffff000000013000 <sdCommandTable+0x110>
ffff000000003854:	91309021 	add	x1, x1, #0xc24
ffff000000003858:	b9000022 	str	w2, [x1]
ffff00000000385c:	90000081 	adrp	x1, ffff000000013000 <sdCommandTable+0x110>
ffff000000003860:	91182021 	add	x1, x1, #0x608
ffff000000003864:	93407c02 	sxtw	x2, w0
ffff000000003868:	d2800300 	mov	x0, #0x18                  	// #24
ffff00000000386c:	9b007c40 	mul	x0, x2, x0
ffff000000003870:	8b000020 	add	x0, x1, x0
ffff000000003874:	b900001f 	str	wzr, [x0]
ffff000000003878:	90000080 	adrp	x0, ffff000000013000 <sdCommandTable+0x110>
ffff00000000387c:	91309000 	add	x0, x0, #0xc24
ffff000000003880:	b9400000 	ldr	w0, [x0]
ffff000000003884:	7101001f 	cmp	w0, #0x40
ffff000000003888:	540000c1 	b.ne	ffff0000000038a0 <pm_daemon+0x384>
ffff00000000388c:	90000080 	adrp	x0, ffff000000013000 <sdCommandTable+0x110>
ffff000000003890:	91309000 	add	x0, x0, #0xc24
ffff000000003894:	b900001f 	str	wzr, [x0]
ffff000000003898:	14000002 	b	ffff0000000038a0 <pm_daemon+0x384>
ffff00000000389c:	d503201f 	nop
ffff0000000038a0:	90000080 	adrp	x0, ffff000000013000 <sdCommandTable+0x110>
ffff0000000038a4:	91309000 	add	x0, x0, #0xc24
ffff0000000038a8:	b9400002 	ldr	w2, [x0]
ffff0000000038ac:	90000080 	adrp	x0, ffff000000013000 <sdCommandTable+0x110>
ffff0000000038b0:	91182001 	add	x1, x0, #0x608
ffff0000000038b4:	93407c42 	sxtw	x2, w2
ffff0000000038b8:	d2800300 	mov	x0, #0x18                  	// #24
ffff0000000038bc:	9b007c40 	mul	x0, x2, x0
ffff0000000038c0:	8b000020 	add	x0, x1, x0
ffff0000000038c4:	b9400000 	ldr	w0, [x0]
ffff0000000038c8:	7100001f 	cmp	w0, #0x0
ffff0000000038cc:	54ffe3a1 	b.ne	ffff000000003540 <pm_daemon+0x24>
ffff0000000038d0:	1400004d 	b	ffff000000003a04 <pm_daemon+0x4e8>
ffff0000000038d4:	90000080 	adrp	x0, ffff000000013000 <sdCommandTable+0x110>
ffff0000000038d8:	91180000 	add	x0, x0, #0x600
ffff0000000038dc:	b9400002 	ldr	w2, [x0]
ffff0000000038e0:	b00004c0 	adrp	x0, ffff00000009c000 <task+0x18>
ffff0000000038e4:	91098001 	add	x1, x0, #0x260
ffff0000000038e8:	93407c42 	sxtw	x2, w2
ffff0000000038ec:	d2800300 	mov	x0, #0x18                  	// #24
ffff0000000038f0:	9b007c40 	mul	x0, x2, x0
ffff0000000038f4:	8b000020 	add	x0, x1, x0
ffff0000000038f8:	b9400000 	ldr	w0, [x0]
ffff0000000038fc:	7100041f 	cmp	w0, #0x1
ffff000000003900:	54000801 	b.ne	ffff000000003a00 <pm_daemon+0x4e4>
ffff000000003904:	d0000060 	adrp	x0, ffff000000011000 <irq_invalid_el1t+0x14>
ffff000000003908:	9134e000 	add	x0, x0, #0xd38
ffff00000000390c:	9400077f 	bl	ffff000000005708 <tfp_printf>
ffff000000003910:	90000080 	adrp	x0, ffff000000013000 <sdCommandTable+0x110>
ffff000000003914:	91180000 	add	x0, x0, #0x600
ffff000000003918:	b9400002 	ldr	w2, [x0]
ffff00000000391c:	b00004c0 	adrp	x0, ffff00000009c000 <task+0x18>
ffff000000003920:	91098001 	add	x1, x0, #0x260
ffff000000003924:	93407c42 	sxtw	x2, w2
ffff000000003928:	d2800300 	mov	x0, #0x18                  	// #24
ffff00000000392c:	9b007c40 	mul	x0, x2, x0
ffff000000003930:	8b000020 	add	x0, x1, x0
ffff000000003934:	91001000 	add	x0, x0, #0x4
ffff000000003938:	b9400001 	ldr	w1, [x0]
ffff00000000393c:	900004c0 	adrp	x0, ffff00000009b000 <thread_id_table+0x75d0>
ffff000000003940:	913fa000 	add	x0, x0, #0xfe8
ffff000000003944:	93407c21 	sxtw	x1, w1
ffff000000003948:	f8617800 	ldr	x0, [x0,x1,lsl #3]
ffff00000000394c:	f9000fa0 	str	x0, [x29,#24]
ffff000000003950:	90000080 	adrp	x0, ffff000000013000 <sdCommandTable+0x110>
ffff000000003954:	91180000 	add	x0, x0, #0x600
ffff000000003958:	b9400002 	ldr	w2, [x0]
ffff00000000395c:	f9400fa0 	ldr	x0, [x29,#24]
ffff000000003960:	91080000 	add	x0, x0, #0x200
ffff000000003964:	d1028003 	sub	x3, x0, #0xa0
ffff000000003968:	b00004c0 	adrp	x0, ffff00000009c000 <task+0x18>
ffff00000000396c:	91098001 	add	x1, x0, #0x260
ffff000000003970:	93407c42 	sxtw	x2, w2
ffff000000003974:	d2800300 	mov	x0, #0x18                  	// #24
ffff000000003978:	9b007c40 	mul	x0, x2, x0
ffff00000000397c:	8b000020 	add	x0, x1, x0
ffff000000003980:	aa0303e2 	mov	x2, x3
ffff000000003984:	aa0003e3 	mov	x3, x0
ffff000000003988:	a9400460 	ldp	x0, x1, [x3]
ffff00000000398c:	a9000440 	stp	x0, x1, [x2]
ffff000000003990:	f9400860 	ldr	x0, [x3,#16]
ffff000000003994:	f9000840 	str	x0, [x2,#16]
ffff000000003998:	90000080 	adrp	x0, ffff000000013000 <sdCommandTable+0x110>
ffff00000000399c:	91180000 	add	x0, x0, #0x600
ffff0000000039a0:	b9400002 	ldr	w2, [x0]
ffff0000000039a4:	b00004c0 	adrp	x0, ffff00000009c000 <task+0x18>
ffff0000000039a8:	91098001 	add	x1, x0, #0x260
ffff0000000039ac:	93407c42 	sxtw	x2, w2
ffff0000000039b0:	d2800300 	mov	x0, #0x18                  	// #24
ffff0000000039b4:	9b007c40 	mul	x0, x2, x0
ffff0000000039b8:	8b000020 	add	x0, x1, x0
ffff0000000039bc:	b900001f 	str	wzr, [x0]
ffff0000000039c0:	90000080 	adrp	x0, ffff000000013000 <sdCommandTable+0x110>
ffff0000000039c4:	91180000 	add	x0, x0, #0x600
ffff0000000039c8:	b9400000 	ldr	w0, [x0]
ffff0000000039cc:	11000401 	add	w1, w0, #0x1
ffff0000000039d0:	90000080 	adrp	x0, ffff000000013000 <sdCommandTable+0x110>
ffff0000000039d4:	91180000 	add	x0, x0, #0x600
ffff0000000039d8:	b9000001 	str	w1, [x0]
ffff0000000039dc:	90000080 	adrp	x0, ffff000000013000 <sdCommandTable+0x110>
ffff0000000039e0:	91180000 	add	x0, x0, #0x600
ffff0000000039e4:	b9400000 	ldr	w0, [x0]
ffff0000000039e8:	7101001f 	cmp	w0, #0x40
ffff0000000039ec:	540000c1 	b.ne	ffff000000003a04 <pm_daemon+0x4e8>
ffff0000000039f0:	90000080 	adrp	x0, ffff000000013000 <sdCommandTable+0x110>
ffff0000000039f4:	91180000 	add	x0, x0, #0x600
ffff0000000039f8:	b900001f 	str	wzr, [x0]
ffff0000000039fc:	14000002 	b	ffff000000003a04 <pm_daemon+0x4e8>
ffff000000003a00:	d503201f 	nop
ffff000000003a04:	90000080 	adrp	x0, ffff000000013000 <sdCommandTable+0x110>
ffff000000003a08:	91180000 	add	x0, x0, #0x600
ffff000000003a0c:	b9400002 	ldr	w2, [x0]
ffff000000003a10:	b00004c0 	adrp	x0, ffff00000009c000 <task+0x18>
ffff000000003a14:	91098001 	add	x1, x0, #0x260
ffff000000003a18:	93407c42 	sxtw	x2, w2
ffff000000003a1c:	d2800300 	mov	x0, #0x18                  	// #24
ffff000000003a20:	9b007c40 	mul	x0, x2, x0
ffff000000003a24:	8b000020 	add	x0, x1, x0
ffff000000003a28:	b9400000 	ldr	w0, [x0]
ffff000000003a2c:	7100001f 	cmp	w0, #0x0
ffff000000003a30:	54fff521 	b.ne	ffff0000000038d4 <pm_daemon+0x3b8>
ffff000000003a34:	97fffe0a 	bl	ffff00000000325c <schedule>
ffff000000003a38:	17fffec1 	b	ffff00000000353c <pm_daemon+0x20>

ffff000000003a3c <reply>:
ffff000000003a3c:	d10083ff 	sub	sp, sp, #0x20
ffff000000003a40:	f90007e0 	str	x0, [sp,#8]
ffff000000003a44:	f94007e0 	ldr	x0, [sp,#8]
ffff000000003a48:	f9000fe0 	str	x0, [sp,#24]
ffff000000003a4c:	f9400fe0 	ldr	x0, [sp,#24]
ffff000000003a50:	52800021 	mov	w1, #0x1                   	// #1
ffff000000003a54:	b9017801 	str	w1, [x0,#376]
ffff000000003a58:	d503201f 	nop
ffff000000003a5c:	910083ff 	add	sp, sp, #0x20
ffff000000003a60:	d65f03c0 	ret

ffff000000003a64 <accept_reply>:
ffff000000003a64:	a9bf7bfd 	stp	x29, x30, [sp,#-16]!
ffff000000003a68:	910003fd 	mov	x29, sp
ffff000000003a6c:	14000002 	b	ffff000000003a74 <accept_reply+0x10>
ffff000000003a70:	97fffdfb 	bl	ffff00000000325c <schedule>
ffff000000003a74:	f0000060 	adrp	x0, ffff000000012000 <sys_call_table+0x1c8>
ffff000000003a78:	913b0000 	add	x0, x0, #0xec0
ffff000000003a7c:	f9400000 	ldr	x0, [x0]
ffff000000003a80:	b9417800 	ldr	w0, [x0,#376]
ffff000000003a84:	7100001f 	cmp	w0, #0x0
ffff000000003a88:	54ffff40 	b.eq	ffff000000003a70 <accept_reply+0xc>
ffff000000003a8c:	f0000060 	adrp	x0, ffff000000012000 <sys_call_table+0x1c8>
ffff000000003a90:	913b0000 	add	x0, x0, #0xec0
ffff000000003a94:	f9400000 	ldr	x0, [x0]
ffff000000003a98:	b901781f 	str	wzr, [x0,#376]
ffff000000003a9c:	d503201f 	nop
ffff000000003aa0:	a8c17bfd 	ldp	x29, x30, [sp],#16
ffff000000003aa4:	d65f03c0 	ret

ffff000000003aa8 <recieve_msg>:
ffff000000003aa8:	a9bb7bfd 	stp	x29, x30, [sp,#-80]!
ffff000000003aac:	910003fd 	mov	x29, sp
ffff000000003ab0:	f9000bf3 	str	x19, [sp,#16]
ffff000000003ab4:	aa0803f3 	mov	x19, x8
ffff000000003ab8:	b9002fa0 	str	w0, [x29,#44]
ffff000000003abc:	b9402fa0 	ldr	w0, [x29,#44]
ffff000000003ac0:	7100041f 	cmp	w0, #0x1
ffff000000003ac4:	54000481 	b.ne	ffff000000003b54 <recieve_msg+0xac>
ffff000000003ac8:	14000002 	b	ffff000000003ad0 <recieve_msg+0x28>
ffff000000003acc:	97fffde4 	bl	ffff00000000325c <schedule>
ffff000000003ad0:	f0000060 	adrp	x0, ffff000000012000 <sys_call_table+0x1c8>
ffff000000003ad4:	913b0000 	add	x0, x0, #0xec0
ffff000000003ad8:	f9400000 	ldr	x0, [x0]
ffff000000003adc:	b9416000 	ldr	w0, [x0,#352]
ffff000000003ae0:	7100001f 	cmp	w0, #0x0
ffff000000003ae4:	54ffff40 	b.eq	ffff000000003acc <recieve_msg+0x24>
ffff000000003ae8:	f0000060 	adrp	x0, ffff000000012000 <sys_call_table+0x1c8>
ffff000000003aec:	913b0000 	add	x0, x0, #0xec0
ffff000000003af0:	f9400000 	ldr	x0, [x0]
ffff000000003af4:	91080000 	add	x0, x0, #0x200
ffff000000003af8:	d1028000 	sub	x0, x0, #0xa0
ffff000000003afc:	9100e3a2 	add	x2, x29, #0x38
ffff000000003b00:	aa0003e3 	mov	x3, x0
ffff000000003b04:	a9400460 	ldp	x0, x1, [x3]
ffff000000003b08:	a9000440 	stp	x0, x1, [x2]
ffff000000003b0c:	f9400860 	ldr	x0, [x3,#16]
ffff000000003b10:	f9000840 	str	x0, [x2,#16]
ffff000000003b14:	f0000060 	adrp	x0, ffff000000012000 <sys_call_table+0x1c8>
ffff000000003b18:	913b0000 	add	x0, x0, #0xec0
ffff000000003b1c:	f9400000 	ldr	x0, [x0]
ffff000000003b20:	b901601f 	str	wzr, [x0,#352]
ffff000000003b24:	f0000060 	adrp	x0, ffff000000012000 <sys_call_table+0x1c8>
ffff000000003b28:	913b0000 	add	x0, x0, #0xec0
ffff000000003b2c:	f9400000 	ldr	x0, [x0]
ffff000000003b30:	f940b400 	ldr	x0, [x0,#360]
ffff000000003b34:	97ffffc2 	bl	ffff000000003a3c <reply>
ffff000000003b38:	aa1303e3 	mov	x3, x19
ffff000000003b3c:	9100e3a2 	add	x2, x29, #0x38
ffff000000003b40:	a9400440 	ldp	x0, x1, [x2]
ffff000000003b44:	a9000460 	stp	x0, x1, [x3]
ffff000000003b48:	f9400840 	ldr	x0, [x2,#16]
ffff000000003b4c:	f9000860 	str	x0, [x3,#16]
ffff000000003b50:	14000010 	b	ffff000000003b90 <recieve_msg+0xe8>
ffff000000003b54:	b9402fa0 	ldr	w0, [x29,#44]
ffff000000003b58:	7100081f 	cmp	w0, #0x2
ffff000000003b5c:	54000181 	b.ne	ffff000000003b8c <recieve_msg+0xe4>
ffff000000003b60:	f0000060 	adrp	x0, ffff000000012000 <sys_call_table+0x1c8>
ffff000000003b64:	913b0000 	add	x0, x0, #0xec0
ffff000000003b68:	f9400000 	ldr	x0, [x0]
ffff000000003b6c:	91028000 	add	x0, x0, #0xa0
ffff000000003b70:	aa1303e2 	mov	x2, x19
ffff000000003b74:	aa0003e3 	mov	x3, x0
ffff000000003b78:	a9400460 	ldp	x0, x1, [x3]
ffff000000003b7c:	a9000440 	stp	x0, x1, [x2]
ffff000000003b80:	f9400860 	ldr	x0, [x3,#16]
ffff000000003b84:	f9000840 	str	x0, [x2,#16]
ffff000000003b88:	14000002 	b	ffff000000003b90 <recieve_msg+0xe8>
ffff000000003b8c:	d503201f 	nop
ffff000000003b90:	aa1303e0 	mov	x0, x19
ffff000000003b94:	f9400bf3 	ldr	x19, [sp,#16]
ffff000000003b98:	a8c57bfd 	ldp	x29, x30, [sp],#80
ffff000000003b9c:	d65f03c0 	ret

ffff000000003ba0 <send_msg>:
ffff000000003ba0:	a9be7bfd 	stp	x29, x30, [sp,#-32]!
ffff000000003ba4:	910003fd 	mov	x29, sp
ffff000000003ba8:	b9001fa0 	str	w0, [x29,#28]
ffff000000003bac:	b9001ba1 	str	w1, [x29,#24]
ffff000000003bb0:	b90017a2 	str	w2, [x29,#20]
ffff000000003bb4:	90000080 	adrp	x0, ffff000000013000 <sdCommandTable+0x110>
ffff000000003bb8:	91308000 	add	x0, x0, #0xc20
ffff000000003bbc:	b9400002 	ldr	w2, [x0]
ffff000000003bc0:	90000080 	adrp	x0, ffff000000013000 <sdCommandTable+0x110>
ffff000000003bc4:	91182001 	add	x1, x0, #0x608
ffff000000003bc8:	93407c42 	sxtw	x2, w2
ffff000000003bcc:	d2800300 	mov	x0, #0x18                  	// #24
ffff000000003bd0:	9b007c40 	mul	x0, x2, x0
ffff000000003bd4:	8b000020 	add	x0, x1, x0
ffff000000003bd8:	b9400000 	ldr	w0, [x0]
ffff000000003bdc:	7100001f 	cmp	w0, #0x0
ffff000000003be0:	540000a0 	b.eq	ffff000000003bf4 <send_msg+0x54>
ffff000000003be4:	d0000060 	adrp	x0, ffff000000011000 <irq_invalid_el1t+0x14>
ffff000000003be8:	91358000 	add	x0, x0, #0xd60
ffff000000003bec:	940006c7 	bl	ffff000000005708 <tfp_printf>
ffff000000003bf0:	14000041 	b	ffff000000003cf4 <send_msg+0x154>
ffff000000003bf4:	90000080 	adrp	x0, ffff000000013000 <sdCommandTable+0x110>
ffff000000003bf8:	91308000 	add	x0, x0, #0xc20
ffff000000003bfc:	b9400002 	ldr	w2, [x0]
ffff000000003c00:	90000080 	adrp	x0, ffff000000013000 <sdCommandTable+0x110>
ffff000000003c04:	91182001 	add	x1, x0, #0x608
ffff000000003c08:	93407c42 	sxtw	x2, w2
ffff000000003c0c:	d2800300 	mov	x0, #0x18                  	// #24
ffff000000003c10:	9b007c40 	mul	x0, x2, x0
ffff000000003c14:	8b000020 	add	x0, x1, x0
ffff000000003c18:	b9401fa1 	ldr	w1, [x29,#28]
ffff000000003c1c:	b9000001 	str	w1, [x0]
ffff000000003c20:	90000080 	adrp	x0, ffff000000013000 <sdCommandTable+0x110>
ffff000000003c24:	91308000 	add	x0, x0, #0xc20
ffff000000003c28:	b9400002 	ldr	w2, [x0]
ffff000000003c2c:	90000080 	adrp	x0, ffff000000013000 <sdCommandTable+0x110>
ffff000000003c30:	91182001 	add	x1, x0, #0x608
ffff000000003c34:	93407c42 	sxtw	x2, w2
ffff000000003c38:	d2800300 	mov	x0, #0x18                  	// #24
ffff000000003c3c:	9b007c40 	mul	x0, x2, x0
ffff000000003c40:	8b000020 	add	x0, x1, x0
ffff000000003c44:	91001000 	add	x0, x0, #0x4
ffff000000003c48:	b9401ba1 	ldr	w1, [x29,#24]
ffff000000003c4c:	b9000001 	str	w1, [x0]
ffff000000003c50:	90000080 	adrp	x0, ffff000000013000 <sdCommandTable+0x110>
ffff000000003c54:	91308000 	add	x0, x0, #0xc20
ffff000000003c58:	b9400003 	ldr	w3, [x0]
ffff000000003c5c:	f0000060 	adrp	x0, ffff000000012000 <sys_call_table+0x1c8>
ffff000000003c60:	913b0000 	add	x0, x0, #0xec0
ffff000000003c64:	f9400001 	ldr	x1, [x0]
ffff000000003c68:	90000080 	adrp	x0, ffff000000013000 <sdCommandTable+0x110>
ffff000000003c6c:	91182002 	add	x2, x0, #0x608
ffff000000003c70:	93407c63 	sxtw	x3, w3
ffff000000003c74:	d2800300 	mov	x0, #0x18                  	// #24
ffff000000003c78:	9b007c60 	mul	x0, x3, x0
ffff000000003c7c:	8b000040 	add	x0, x2, x0
ffff000000003c80:	91002000 	add	x0, x0, #0x8
ffff000000003c84:	f9000001 	str	x1, [x0]
ffff000000003c88:	90000080 	adrp	x0, ffff000000013000 <sdCommandTable+0x110>
ffff000000003c8c:	91308000 	add	x0, x0, #0xc20
ffff000000003c90:	b9400002 	ldr	w2, [x0]
ffff000000003c94:	90000080 	adrp	x0, ffff000000013000 <sdCommandTable+0x110>
ffff000000003c98:	91182001 	add	x1, x0, #0x608
ffff000000003c9c:	93407c42 	sxtw	x2, w2
ffff000000003ca0:	d2800300 	mov	x0, #0x18                  	// #24
ffff000000003ca4:	9b007c40 	mul	x0, x2, x0
ffff000000003ca8:	8b000020 	add	x0, x1, x0
ffff000000003cac:	91004000 	add	x0, x0, #0x10
ffff000000003cb0:	b94017a1 	ldr	w1, [x29,#20]
ffff000000003cb4:	b9000001 	str	w1, [x0]
ffff000000003cb8:	90000080 	adrp	x0, ffff000000013000 <sdCommandTable+0x110>
ffff000000003cbc:	91308000 	add	x0, x0, #0xc20
ffff000000003cc0:	b9400000 	ldr	w0, [x0]
ffff000000003cc4:	11000401 	add	w1, w0, #0x1
ffff000000003cc8:	90000080 	adrp	x0, ffff000000013000 <sdCommandTable+0x110>
ffff000000003ccc:	91308000 	add	x0, x0, #0xc20
ffff000000003cd0:	b9000001 	str	w1, [x0]
ffff000000003cd4:	90000080 	adrp	x0, ffff000000013000 <sdCommandTable+0x110>
ffff000000003cd8:	91308000 	add	x0, x0, #0xc20
ffff000000003cdc:	b9400000 	ldr	w0, [x0]
ffff000000003ce0:	7101001f 	cmp	w0, #0x40
ffff000000003ce4:	54000081 	b.ne	ffff000000003cf4 <send_msg+0x154>
ffff000000003ce8:	90000080 	adrp	x0, ffff000000013000 <sdCommandTable+0x110>
ffff000000003cec:	91308000 	add	x0, x0, #0xc20
ffff000000003cf0:	b900001f 	str	wzr, [x0]
ffff000000003cf4:	d503201f 	nop
ffff000000003cf8:	a8c27bfd 	ldp	x29, x30, [sp],#32
ffff000000003cfc:	d65f03c0 	ret

ffff000000003d00 <timer_init>:
ffff000000003d00:	a9bf7bfd 	stp	x29, x30, [sp,#-16]!
ffff000000003d04:	910003fd 	mov	x29, sp
ffff000000003d08:	d2860080 	mov	x0, #0x3004                	// #12292
ffff000000003d0c:	f2a7e000 	movk	x0, #0x3f00, lsl #16
ffff000000003d10:	f2ffffe0 	movk	x0, #0xffff, lsl #48
ffff000000003d14:	9400370e 	bl	ffff00000001194c <get32>
ffff000000003d18:	2a0003e1 	mov	w1, w0
ffff000000003d1c:	90000080 	adrp	x0, ffff000000013000 <sdCommandTable+0x110>
ffff000000003d20:	9130a000 	add	x0, x0, #0xc28
ffff000000003d24:	b9000001 	str	w1, [x0]
ffff000000003d28:	90000080 	adrp	x0, ffff000000013000 <sdCommandTable+0x110>
ffff000000003d2c:	9130a000 	add	x0, x0, #0xc28
ffff000000003d30:	b9400001 	ldr	w1, [x0]
ffff000000003d34:	5281a800 	mov	w0, #0xd40                 	// #3392
ffff000000003d38:	72a00060 	movk	w0, #0x3, lsl #16
ffff000000003d3c:	0b000021 	add	w1, w1, w0
ffff000000003d40:	90000080 	adrp	x0, ffff000000013000 <sdCommandTable+0x110>
ffff000000003d44:	9130a000 	add	x0, x0, #0xc28
ffff000000003d48:	b9000001 	str	w1, [x0]
ffff000000003d4c:	90000080 	adrp	x0, ffff000000013000 <sdCommandTable+0x110>
ffff000000003d50:	9130a000 	add	x0, x0, #0xc28
ffff000000003d54:	b9400000 	ldr	w0, [x0]
ffff000000003d58:	2a0003e1 	mov	w1, w0
ffff000000003d5c:	d2860200 	mov	x0, #0x3010                	// #12304
ffff000000003d60:	f2a7e000 	movk	x0, #0x3f00, lsl #16
ffff000000003d64:	f2ffffe0 	movk	x0, #0xffff, lsl #48
ffff000000003d68:	940036f7 	bl	ffff000000011944 <put32>
ffff000000003d6c:	d503201f 	nop
ffff000000003d70:	a8c17bfd 	ldp	x29, x30, [sp],#16
ffff000000003d74:	d65f03c0 	ret

ffff000000003d78 <handle_timer_irq>:
ffff000000003d78:	a9bf7bfd 	stp	x29, x30, [sp,#-16]!
ffff000000003d7c:	910003fd 	mov	x29, sp
ffff000000003d80:	90000080 	adrp	x0, ffff000000013000 <sdCommandTable+0x110>
ffff000000003d84:	9130a000 	add	x0, x0, #0xc28
ffff000000003d88:	b9400001 	ldr	w1, [x0]
ffff000000003d8c:	5281a800 	mov	w0, #0xd40                 	// #3392
ffff000000003d90:	72a00060 	movk	w0, #0x3, lsl #16
ffff000000003d94:	0b000021 	add	w1, w1, w0
ffff000000003d98:	90000080 	adrp	x0, ffff000000013000 <sdCommandTable+0x110>
ffff000000003d9c:	9130a000 	add	x0, x0, #0xc28
ffff000000003da0:	b9000001 	str	w1, [x0]
ffff000000003da4:	90000080 	adrp	x0, ffff000000013000 <sdCommandTable+0x110>
ffff000000003da8:	9130a000 	add	x0, x0, #0xc28
ffff000000003dac:	b9400000 	ldr	w0, [x0]
ffff000000003db0:	2a0003e1 	mov	w1, w0
ffff000000003db4:	d2860200 	mov	x0, #0x3010                	// #12304
ffff000000003db8:	f2a7e000 	movk	x0, #0x3f00, lsl #16
ffff000000003dbc:	f2ffffe0 	movk	x0, #0xffff, lsl #48
ffff000000003dc0:	940036e1 	bl	ffff000000011944 <put32>
ffff000000003dc4:	52800041 	mov	w1, #0x2                   	// #2
ffff000000003dc8:	d2860000 	mov	x0, #0x3000                	// #12288
ffff000000003dcc:	f2a7e000 	movk	x0, #0x3f00, lsl #16
ffff000000003dd0:	f2ffffe0 	movk	x0, #0xffff, lsl #48
ffff000000003dd4:	940036dc 	bl	ffff000000011944 <put32>
ffff000000003dd8:	97fffd9c 	bl	ffff000000003448 <timer_tick>
ffff000000003ddc:	d503201f 	nop
ffff000000003de0:	a8c17bfd 	ldp	x29, x30, [sp],#16
ffff000000003de4:	d65f03c0 	ret

ffff000000003de8 <get_system_timer>:
ffff000000003de8:	a9be7bfd 	stp	x29, x30, [sp,#-32]!
ffff000000003dec:	910003fd 	mov	x29, sp
ffff000000003df0:	12800000 	mov	w0, #0xffffffff            	// #-1
ffff000000003df4:	b9001fa0 	str	w0, [x29,#28]
ffff000000003df8:	d2860100 	mov	x0, #0x3008                	// #12296
ffff000000003dfc:	f2a7e000 	movk	x0, #0x3f00, lsl #16
ffff000000003e00:	f2ffffe0 	movk	x0, #0xffff, lsl #48
ffff000000003e04:	940036d2 	bl	ffff00000001194c <get32>
ffff000000003e08:	b9001fa0 	str	w0, [x29,#28]
ffff000000003e0c:	d2860080 	mov	x0, #0x3004                	// #12292
ffff000000003e10:	f2a7e000 	movk	x0, #0x3f00, lsl #16
ffff000000003e14:	f2ffffe0 	movk	x0, #0xffff, lsl #48
ffff000000003e18:	940036cd 	bl	ffff00000001194c <get32>
ffff000000003e1c:	b9001ba0 	str	w0, [x29,#24]
ffff000000003e20:	d2860100 	mov	x0, #0x3008                	// #12296
ffff000000003e24:	f2a7e000 	movk	x0, #0x3f00, lsl #16
ffff000000003e28:	f2ffffe0 	movk	x0, #0xffff, lsl #48
ffff000000003e2c:	940036c8 	bl	ffff00000001194c <get32>
ffff000000003e30:	2a0003e1 	mov	w1, w0
ffff000000003e34:	b9401fa0 	ldr	w0, [x29,#28]
ffff000000003e38:	6b00003f 	cmp	w1, w0
ffff000000003e3c:	54000160 	b.eq	ffff000000003e68 <get_system_timer+0x80>
ffff000000003e40:	d2860100 	mov	x0, #0x3008                	// #12296
ffff000000003e44:	f2a7e000 	movk	x0, #0x3f00, lsl #16
ffff000000003e48:	f2ffffe0 	movk	x0, #0xffff, lsl #48
ffff000000003e4c:	940036c0 	bl	ffff00000001194c <get32>
ffff000000003e50:	b9001fa0 	str	w0, [x29,#28]
ffff000000003e54:	d2860080 	mov	x0, #0x3004                	// #12292
ffff000000003e58:	f2a7e000 	movk	x0, #0x3f00, lsl #16
ffff000000003e5c:	f2ffffe0 	movk	x0, #0xffff, lsl #48
ffff000000003e60:	940036bb 	bl	ffff00000001194c <get32>
ffff000000003e64:	b9001ba0 	str	w0, [x29,#24]
ffff000000003e68:	b9401fa0 	ldr	w0, [x29,#28]
ffff000000003e6c:	d3607c01 	lsl	x1, x0, #32
ffff000000003e70:	b9401ba0 	ldr	w0, [x29,#24]
ffff000000003e74:	aa000020 	orr	x0, x1, x0
ffff000000003e78:	a8c27bfd 	ldp	x29, x30, [sp],#32
ffff000000003e7c:	d65f03c0 	ret

ffff000000003e80 <wait_msec_st>:
ffff000000003e80:	a9bd7bfd 	stp	x29, x30, [sp,#-48]!
ffff000000003e84:	910003fd 	mov	x29, sp
ffff000000003e88:	b9001fa0 	str	w0, [x29,#28]
ffff000000003e8c:	97ffffd7 	bl	ffff000000003de8 <get_system_timer>
ffff000000003e90:	f90017a0 	str	x0, [x29,#40]
ffff000000003e94:	f94017a0 	ldr	x0, [x29,#40]
ffff000000003e98:	f100001f 	cmp	x0, #0x0
ffff000000003e9c:	54000120 	b.eq	ffff000000003ec0 <wait_msec_st+0x40>
ffff000000003ea0:	d503201f 	nop
ffff000000003ea4:	97ffffd1 	bl	ffff000000003de8 <get_system_timer>
ffff000000003ea8:	aa0003e2 	mov	x2, x0
ffff000000003eac:	b9401fa1 	ldr	w1, [x29,#28]
ffff000000003eb0:	f94017a0 	ldr	x0, [x29,#40]
ffff000000003eb4:	8b000020 	add	x0, x1, x0
ffff000000003eb8:	eb00005f 	cmp	x2, x0
ffff000000003ebc:	54ffff43 	b.cc	ffff000000003ea4 <wait_msec_st+0x24>
ffff000000003ec0:	d503201f 	nop
ffff000000003ec4:	a8c37bfd 	ldp	x29, x30, [sp],#48
ffff000000003ec8:	d65f03c0 	ret

ffff000000003ecc <allocate_kernel_page>:
ffff000000003ecc:	a9bc7bfd 	stp	x29, x30, [sp,#-64]!
ffff000000003ed0:	910003fd 	mov	x29, sp
ffff000000003ed4:	b9001fa0 	str	w0, [x29,#28]
ffff000000003ed8:	b9401fa0 	ldr	w0, [x29,#28]
ffff000000003edc:	12002c00 	and	w0, w0, #0xfff
ffff000000003ee0:	7100001f 	cmp	w0, #0x0
ffff000000003ee4:	54000120 	b.eq	ffff000000003f08 <allocate_kernel_page+0x3c>
ffff000000003ee8:	b9401fa0 	ldr	w0, [x29,#28]
ffff000000003eec:	113ffc01 	add	w1, w0, #0xfff
ffff000000003ef0:	7100001f 	cmp	w0, #0x0
ffff000000003ef4:	1a80b020 	csel	w0, w1, w0, lt
ffff000000003ef8:	130c7c00 	asr	w0, w0, #12
ffff000000003efc:	11000400 	add	w0, w0, #0x1
ffff000000003f00:	b9003fa0 	str	w0, [x29,#60]
ffff000000003f04:	14000007 	b	ffff000000003f20 <allocate_kernel_page+0x54>
ffff000000003f08:	b9401fa0 	ldr	w0, [x29,#28]
ffff000000003f0c:	113ffc01 	add	w1, w0, #0xfff
ffff000000003f10:	7100001f 	cmp	w0, #0x0
ffff000000003f14:	1a80b020 	csel	w0, w1, w0, lt
ffff000000003f18:	130c7c00 	asr	w0, w0, #12
ffff000000003f1c:	b9003fa0 	str	w0, [x29,#60]
ffff000000003f20:	b9403fa0 	ldr	w0, [x29,#60]
ffff000000003f24:	9400005a 	bl	ffff00000000408c <get_free_page>
ffff000000003f28:	f9001ba0 	str	x0, [x29,#48]
ffff000000003f2c:	f9401ba0 	ldr	x0, [x29,#48]
ffff000000003f30:	f100001f 	cmp	x0, #0x0
ffff000000003f34:	540000a1 	b.ne	ffff000000003f48 <allocate_kernel_page+0x7c>
ffff000000003f38:	f90013bf 	str	xzr, [x29,#32]
ffff000000003f3c:	b9002bbf 	str	wzr, [x29,#40]
ffff000000003f40:	a94207a0 	ldp	x0, x1, [x29,#32]
ffff000000003f44:	14000008 	b	ffff000000003f64 <allocate_kernel_page+0x98>
ffff000000003f48:	f9401ba1 	ldr	x1, [x29,#48]
ffff000000003f4c:	d2ffffe0 	mov	x0, #0xffff000000000000    	// #-281474976710656
ffff000000003f50:	8b000020 	add	x0, x1, x0
ffff000000003f54:	f90013a0 	str	x0, [x29,#32]
ffff000000003f58:	b9403fa0 	ldr	w0, [x29,#60]
ffff000000003f5c:	b9002ba0 	str	w0, [x29,#40]
ffff000000003f60:	a94207a0 	ldp	x0, x1, [x29,#32]
ffff000000003f64:	a8c47bfd 	ldp	x29, x30, [sp],#64
ffff000000003f68:	d65f03c0 	ret

ffff000000003f6c <allocate_pcb_space>:
ffff000000003f6c:	a9be7bfd 	stp	x29, x30, [sp,#-32]!
ffff000000003f70:	910003fd 	mov	x29, sp
ffff000000003f74:	d0000460 	adrp	x0, ffff000000091000 <mem_map+0x7d3d0>
ffff000000003f78:	9110c000 	add	x0, x0, #0x430
ffff000000003f7c:	b9400000 	ldr	w0, [x0]
ffff000000003f80:	7100001f 	cmp	w0, #0x0
ffff000000003f84:	54000101 	b.ne	ffff000000003fa4 <allocate_pcb_space+0x38>
ffff000000003f88:	52800020 	mov	w0, #0x1                   	// #1
ffff000000003f8c:	94000040 	bl	ffff00000000408c <get_free_page>
ffff000000003f90:	f9000fa0 	str	x0, [x29,#24]
ffff000000003f94:	d0000460 	adrp	x0, ffff000000091000 <mem_map+0x7d3d0>
ffff000000003f98:	9110c000 	add	x0, x0, #0x430
ffff000000003f9c:	52800021 	mov	w1, #0x1                   	// #1
ffff000000003fa0:	b9000001 	str	w1, [x0]
ffff000000003fa4:	d0000460 	adrp	x0, ffff000000091000 <mem_map+0x7d3d0>
ffff000000003fa8:	9110d000 	add	x0, x0, #0x434
ffff000000003fac:	b9400000 	ldr	w0, [x0]
ffff000000003fb0:	7101001f 	cmp	w0, #0x40
ffff000000003fb4:	540000e1 	b.ne	ffff000000003fd0 <allocate_pcb_space+0x64>
ffff000000003fb8:	52800020 	mov	w0, #0x1                   	// #1
ffff000000003fbc:	94000034 	bl	ffff00000000408c <get_free_page>
ffff000000003fc0:	f9000fa0 	str	x0, [x29,#24]
ffff000000003fc4:	d0000460 	adrp	x0, ffff000000091000 <mem_map+0x7d3d0>
ffff000000003fc8:	9110d000 	add	x0, x0, #0x434
ffff000000003fcc:	b900001f 	str	wzr, [x0]
ffff000000003fd0:	d0000460 	adrp	x0, ffff000000091000 <mem_map+0x7d3d0>
ffff000000003fd4:	9110d000 	add	x0, x0, #0x434
ffff000000003fd8:	b9400000 	ldr	w0, [x0]
ffff000000003fdc:	531a6400 	lsl	w0, w0, #6
ffff000000003fe0:	93407c01 	sxtw	x1, w0
ffff000000003fe4:	f9400fa0 	ldr	x0, [x29,#24]
ffff000000003fe8:	8b000020 	add	x0, x1, x0
ffff000000003fec:	f100001f 	cmp	x0, #0x0
ffff000000003ff0:	54000061 	b.ne	ffff000000003ffc <allocate_pcb_space+0x90>
ffff000000003ff4:	d2800000 	mov	x0, #0x0                   	// #0
ffff000000003ff8:	1400000e 	b	ffff000000004030 <allocate_pcb_space+0xc4>
ffff000000003ffc:	d0000460 	adrp	x0, ffff000000091000 <mem_map+0x7d3d0>
ffff000000004000:	9110d000 	add	x0, x0, #0x434
ffff000000004004:	b9400000 	ldr	w0, [x0]
ffff000000004008:	11000402 	add	w2, w0, #0x1
ffff00000000400c:	b0000461 	adrp	x1, ffff000000091000 <mem_map+0x7d3d0>
ffff000000004010:	9110d021 	add	x1, x1, #0x434
ffff000000004014:	b9000022 	str	w2, [x1]
ffff000000004018:	531a6400 	lsl	w0, w0, #6
ffff00000000401c:	93407c01 	sxtw	x1, w0
ffff000000004020:	f9400fa0 	ldr	x0, [x29,#24]
ffff000000004024:	8b000021 	add	x1, x1, x0
ffff000000004028:	d2ffffe0 	mov	x0, #0xffff000000000000    	// #-281474976710656
ffff00000000402c:	8b000020 	add	x0, x1, x0
ffff000000004030:	a8c27bfd 	ldp	x29, x30, [sp],#32
ffff000000004034:	d65f03c0 	ret

ffff000000004038 <allocate_user_page>:
ffff000000004038:	a9bd7bfd 	stp	x29, x30, [sp,#-48]!
ffff00000000403c:	910003fd 	mov	x29, sp
ffff000000004040:	f9000fa0 	str	x0, [x29,#24]
ffff000000004044:	f9000ba1 	str	x1, [x29,#16]
ffff000000004048:	52800020 	mov	w0, #0x1                   	// #1
ffff00000000404c:	94000010 	bl	ffff00000000408c <get_free_page>
ffff000000004050:	f90017a0 	str	x0, [x29,#40]
ffff000000004054:	f94017a0 	ldr	x0, [x29,#40]
ffff000000004058:	f100001f 	cmp	x0, #0x0
ffff00000000405c:	54000061 	b.ne	ffff000000004068 <allocate_user_page+0x30>
ffff000000004060:	d2800000 	mov	x0, #0x0                   	// #0
ffff000000004064:	14000008 	b	ffff000000004084 <allocate_user_page+0x4c>
ffff000000004068:	f94017a2 	ldr	x2, [x29,#40]
ffff00000000406c:	f9400ba1 	ldr	x1, [x29,#16]
ffff000000004070:	f9400fa0 	ldr	x0, [x29,#24]
ffff000000004074:	940000b3 	bl	ffff000000004340 <map_page>
ffff000000004078:	f94017a1 	ldr	x1, [x29,#40]
ffff00000000407c:	d2ffffe0 	mov	x0, #0xffff000000000000    	// #-281474976710656
ffff000000004080:	8b000020 	add	x0, x1, x0
ffff000000004084:	a8c37bfd 	ldp	x29, x30, [sp],#48
ffff000000004088:	d65f03c0 	ret

ffff00000000408c <get_free_page>:
ffff00000000408c:	a9bc7bfd 	stp	x29, x30, [sp,#-64]!
ffff000000004090:	910003fd 	mov	x29, sp
ffff000000004094:	b9001fa0 	str	w0, [x29,#28]
ffff000000004098:	52800020 	mov	w0, #0x1                   	// #1
ffff00000000409c:	b9003fa0 	str	w0, [x29,#60]
ffff0000000040a0:	b0000460 	adrp	x0, ffff000000091000 <mem_map+0x7d3d0>
ffff0000000040a4:	9110e000 	add	x0, x0, #0x438
ffff0000000040a8:	d2800001 	mov	x1, #0x0                   	// #0
ffff0000000040ac:	9400038a 	bl	ffff000000004ed4 <_thread_mutex_init>
ffff0000000040b0:	b0000460 	adrp	x0, ffff000000091000 <mem_map+0x7d3d0>
ffff0000000040b4:	9110e000 	add	x0, x0, #0x438
ffff0000000040b8:	940001a6 	bl	ffff000000004750 <_thread_mutex_lock>
ffff0000000040bc:	b9003bbf 	str	wzr, [x29,#56]
ffff0000000040c0:	14000041 	b	ffff0000000041c4 <get_free_page+0x138>
ffff0000000040c4:	52800020 	mov	w0, #0x1                   	// #1
ffff0000000040c8:	b9003fa0 	str	w0, [x29,#60]
ffff0000000040cc:	b90037bf 	str	wzr, [x29,#52]
ffff0000000040d0:	1400000f 	b	ffff00000000410c <get_free_page+0x80>
ffff0000000040d4:	b9403ba1 	ldr	w1, [x29,#56]
ffff0000000040d8:	b94037a0 	ldr	w0, [x29,#52]
ffff0000000040dc:	0b000021 	add	w1, w1, w0
ffff0000000040e0:	f0000060 	adrp	x0, ffff000000013000 <sdCommandTable+0x110>
ffff0000000040e4:	9130c000 	add	x0, x0, #0xc30
ffff0000000040e8:	93407c21 	sxtw	x1, w1
ffff0000000040ec:	78617800 	ldrh	w0, [x0,x1,lsl #1]
ffff0000000040f0:	7100001f 	cmp	w0, #0x0
ffff0000000040f4:	54000060 	b.eq	ffff000000004100 <get_free_page+0x74>
ffff0000000040f8:	b9003fbf 	str	wzr, [x29,#60]
ffff0000000040fc:	14000008 	b	ffff00000000411c <get_free_page+0x90>
ffff000000004100:	b94037a0 	ldr	w0, [x29,#52]
ffff000000004104:	11000400 	add	w0, w0, #0x1
ffff000000004108:	b90037a0 	str	w0, [x29,#52]
ffff00000000410c:	b94037a1 	ldr	w1, [x29,#52]
ffff000000004110:	b9401fa0 	ldr	w0, [x29,#28]
ffff000000004114:	6b00003f 	cmp	w1, w0
ffff000000004118:	54fffdeb 	b.lt	ffff0000000040d4 <get_free_page+0x48>
ffff00000000411c:	b9403fa0 	ldr	w0, [x29,#60]
ffff000000004120:	7100041f 	cmp	w0, #0x1
ffff000000004124:	540004a1 	b.ne	ffff0000000041b8 <get_free_page+0x12c>
ffff000000004128:	b90033bf 	str	wzr, [x29,#48]
ffff00000000412c:	1400000c 	b	ffff00000000415c <get_free_page+0xd0>
ffff000000004130:	b9403ba1 	ldr	w1, [x29,#56]
ffff000000004134:	b94033a0 	ldr	w0, [x29,#48]
ffff000000004138:	0b000021 	add	w1, w1, w0
ffff00000000413c:	f0000060 	adrp	x0, ffff000000013000 <sdCommandTable+0x110>
ffff000000004140:	9130c000 	add	x0, x0, #0xc30
ffff000000004144:	93407c21 	sxtw	x1, w1
ffff000000004148:	52800022 	mov	w2, #0x1                   	// #1
ffff00000000414c:	78217802 	strh	w2, [x0,x1,lsl #1]
ffff000000004150:	b94033a0 	ldr	w0, [x29,#48]
ffff000000004154:	11000400 	add	w0, w0, #0x1
ffff000000004158:	b90033a0 	str	w0, [x29,#48]
ffff00000000415c:	b94033a1 	ldr	w1, [x29,#48]
ffff000000004160:	b9401fa0 	ldr	w0, [x29,#28]
ffff000000004164:	6b00003f 	cmp	w1, w0
ffff000000004168:	54fffe4b 	b.lt	ffff000000004130 <get_free_page+0xa4>
ffff00000000416c:	b9403ba0 	ldr	w0, [x29,#56]
ffff000000004170:	11100000 	add	w0, w0, #0x400
ffff000000004174:	53144c00 	lsl	w0, w0, #12
ffff000000004178:	93407c00 	sxtw	x0, w0
ffff00000000417c:	f90017a0 	str	x0, [x29,#40]
ffff000000004180:	f94017a1 	ldr	x1, [x29,#40]
ffff000000004184:	d2ffffe0 	mov	x0, #0xffff000000000000    	// #-281474976710656
ffff000000004188:	8b000022 	add	x2, x1, x0
ffff00000000418c:	b9401fa0 	ldr	w0, [x29,#28]
ffff000000004190:	53144c00 	lsl	w0, w0, #12
ffff000000004194:	93407c00 	sxtw	x0, w0
ffff000000004198:	aa0003e1 	mov	x1, x0
ffff00000000419c:	aa0203e0 	mov	x0, x2
ffff0000000041a0:	9400317e 	bl	ffff000000010798 <memzero>
ffff0000000041a4:	b0000460 	adrp	x0, ffff000000091000 <mem_map+0x7d3d0>
ffff0000000041a8:	9110e000 	add	x0, x0, #0x438
ffff0000000041ac:	940001de 	bl	ffff000000004924 <_thread_mutex_unlock>
ffff0000000041b0:	f94017a0 	ldr	x0, [x29,#40]
ffff0000000041b4:	1400000d 	b	ffff0000000041e8 <get_free_page+0x15c>
ffff0000000041b8:	b9403ba0 	ldr	w0, [x29,#56]
ffff0000000041bc:	11000400 	add	w0, w0, #0x1
ffff0000000041c0:	b9003ba0 	str	w0, [x29,#56]
ffff0000000041c4:	b9403ba1 	ldr	w1, [x29,#56]
ffff0000000041c8:	529d7fe0 	mov	w0, #0xebff                	// #60415
ffff0000000041cc:	72a00060 	movk	w0, #0x3, lsl #16
ffff0000000041d0:	6b00003f 	cmp	w1, w0
ffff0000000041d4:	54fff78d 	b.le	ffff0000000040c4 <get_free_page+0x38>
ffff0000000041d8:	b0000460 	adrp	x0, ffff000000091000 <mem_map+0x7d3d0>
ffff0000000041dc:	9110e000 	add	x0, x0, #0x438
ffff0000000041e0:	940001d1 	bl	ffff000000004924 <_thread_mutex_unlock>
ffff0000000041e4:	d2800000 	mov	x0, #0x0                   	// #0
ffff0000000041e8:	a8c47bfd 	ldp	x29, x30, [sp],#64
ffff0000000041ec:	d65f03c0 	ret

ffff0000000041f0 <free_page>:
ffff0000000041f0:	d10083ff 	sub	sp, sp, #0x20
ffff0000000041f4:	f90007e0 	str	x0, [sp,#8]
ffff0000000041f8:	f94007e0 	ldr	x0, [sp,#8]
ffff0000000041fc:	d1500000 	sub	x0, x0, #0x400, lsl #12
ffff000000004200:	d34cfc00 	lsr	x0, x0, #12
ffff000000004204:	b9001fe0 	str	w0, [sp,#28]
ffff000000004208:	f0000060 	adrp	x0, ffff000000013000 <sdCommandTable+0x110>
ffff00000000420c:	9130c000 	add	x0, x0, #0xc30
ffff000000004210:	b9801fe1 	ldrsw	x1, [sp,#28]
ffff000000004214:	7821781f 	strh	wzr, [x0,x1,lsl #1]
ffff000000004218:	d503201f 	nop
ffff00000000421c:	910083ff 	add	sp, sp, #0x20
ffff000000004220:	d65f03c0 	ret

ffff000000004224 <map_table_entry>:
ffff000000004224:	d100c3ff 	sub	sp, sp, #0x30
ffff000000004228:	f9000fe0 	str	x0, [sp,#24]
ffff00000000422c:	f9000be1 	str	x1, [sp,#16]
ffff000000004230:	f90007e2 	str	x2, [sp,#8]
ffff000000004234:	f9400be0 	ldr	x0, [sp,#16]
ffff000000004238:	d34cfc00 	lsr	x0, x0, #12
ffff00000000423c:	f90017e0 	str	x0, [sp,#40]
ffff000000004240:	f94017e0 	ldr	x0, [sp,#40]
ffff000000004244:	92402000 	and	x0, x0, #0x1ff
ffff000000004248:	f90017e0 	str	x0, [sp,#40]
ffff00000000424c:	f94007e1 	ldr	x1, [sp,#8]
ffff000000004250:	d2808a60 	mov	x0, #0x453                 	// #1107
ffff000000004254:	aa000020 	orr	x0, x1, x0
ffff000000004258:	f90013e0 	str	x0, [sp,#32]
ffff00000000425c:	f94017e0 	ldr	x0, [sp,#40]
ffff000000004260:	d37df000 	lsl	x0, x0, #3
ffff000000004264:	f9400fe1 	ldr	x1, [sp,#24]
ffff000000004268:	8b000020 	add	x0, x1, x0
ffff00000000426c:	f94013e1 	ldr	x1, [sp,#32]
ffff000000004270:	f9000001 	str	x1, [x0]
ffff000000004274:	d503201f 	nop
ffff000000004278:	9100c3ff 	add	sp, sp, #0x30
ffff00000000427c:	d65f03c0 	ret

ffff000000004280 <map_table>:
ffff000000004280:	a9bb7bfd 	stp	x29, x30, [sp,#-80]!
ffff000000004284:	910003fd 	mov	x29, sp
ffff000000004288:	f90017a0 	str	x0, [x29,#40]
ffff00000000428c:	f90013a1 	str	x1, [x29,#32]
ffff000000004290:	f9000fa2 	str	x2, [x29,#24]
ffff000000004294:	f9000ba3 	str	x3, [x29,#16]
ffff000000004298:	f94013a0 	ldr	x0, [x29,#32]
ffff00000000429c:	2a0003e1 	mov	w1, w0
ffff0000000042a0:	f9400fa0 	ldr	x0, [x29,#24]
ffff0000000042a4:	9ac12400 	lsr	x0, x0, x1
ffff0000000042a8:	f90027a0 	str	x0, [x29,#72]
ffff0000000042ac:	f94027a0 	ldr	x0, [x29,#72]
ffff0000000042b0:	92402000 	and	x0, x0, #0x1ff
ffff0000000042b4:	f90027a0 	str	x0, [x29,#72]
ffff0000000042b8:	f94027a0 	ldr	x0, [x29,#72]
ffff0000000042bc:	d37df000 	lsl	x0, x0, #3
ffff0000000042c0:	f94017a1 	ldr	x1, [x29,#40]
ffff0000000042c4:	8b000020 	add	x0, x1, x0
ffff0000000042c8:	f9400000 	ldr	x0, [x0]
ffff0000000042cc:	f100001f 	cmp	x0, #0x0
ffff0000000042d0:	54000241 	b.ne	ffff000000004318 <map_table+0x98>
ffff0000000042d4:	f9400ba0 	ldr	x0, [x29,#16]
ffff0000000042d8:	52800021 	mov	w1, #0x1                   	// #1
ffff0000000042dc:	b9000001 	str	w1, [x0]
ffff0000000042e0:	52800020 	mov	w0, #0x1                   	// #1
ffff0000000042e4:	97ffff6a 	bl	ffff00000000408c <get_free_page>
ffff0000000042e8:	f90023a0 	str	x0, [x29,#64]
ffff0000000042ec:	f94023a0 	ldr	x0, [x29,#64]
ffff0000000042f0:	b2400400 	orr	x0, x0, #0x3
ffff0000000042f4:	f9001fa0 	str	x0, [x29,#56]
ffff0000000042f8:	f94027a0 	ldr	x0, [x29,#72]
ffff0000000042fc:	d37df000 	lsl	x0, x0, #3
ffff000000004300:	f94017a1 	ldr	x1, [x29,#40]
ffff000000004304:	8b000020 	add	x0, x1, x0
ffff000000004308:	f9401fa1 	ldr	x1, [x29,#56]
ffff00000000430c:	f9000001 	str	x1, [x0]
ffff000000004310:	f94023a0 	ldr	x0, [x29,#64]
ffff000000004314:	14000009 	b	ffff000000004338 <map_table+0xb8>
ffff000000004318:	f9400ba0 	ldr	x0, [x29,#16]
ffff00000000431c:	b900001f 	str	wzr, [x0]
ffff000000004320:	f94027a0 	ldr	x0, [x29,#72]
ffff000000004324:	d37df000 	lsl	x0, x0, #3
ffff000000004328:	f94017a1 	ldr	x1, [x29,#40]
ffff00000000432c:	8b000020 	add	x0, x1, x0
ffff000000004330:	f9400000 	ldr	x0, [x0]
ffff000000004334:	9274cc00 	and	x0, x0, #0xfffffffffffff000
ffff000000004338:	a8c57bfd 	ldp	x29, x30, [sp],#80
ffff00000000433c:	d65f03c0 	ret

ffff000000004340 <map_page>:
ffff000000004340:	a9b97bfd 	stp	x29, x30, [sp,#-112]!
ffff000000004344:	910003fd 	mov	x29, sp
ffff000000004348:	f90017a0 	str	x0, [x29,#40]
ffff00000000434c:	f90013a1 	str	x1, [x29,#32]
ffff000000004350:	f9000fa2 	str	x2, [x29,#24]
ffff000000004354:	f94017a0 	ldr	x0, [x29,#40]
ffff000000004358:	f9404800 	ldr	x0, [x0,#144]
ffff00000000435c:	f100001f 	cmp	x0, #0x0
ffff000000004360:	540002a1 	b.ne	ffff0000000043b4 <map_page+0x74>
ffff000000004364:	52800020 	mov	w0, #0x1                   	// #1
ffff000000004368:	97ffff49 	bl	ffff00000000408c <get_free_page>
ffff00000000436c:	aa0003e1 	mov	x1, x0
ffff000000004370:	f94017a0 	ldr	x0, [x29,#40]
ffff000000004374:	f9004801 	str	x1, [x0,#144]
ffff000000004378:	f94017a0 	ldr	x0, [x29,#40]
ffff00000000437c:	b941a000 	ldr	w0, [x0,#416]
ffff000000004380:	11000401 	add	w1, w0, #0x1
ffff000000004384:	f94017a0 	ldr	x0, [x29,#40]
ffff000000004388:	b901a001 	str	w1, [x0,#416]
ffff00000000438c:	f94017a0 	ldr	x0, [x29,#40]
ffff000000004390:	b941a003 	ldr	w3, [x0,#416]
ffff000000004394:	f94017a0 	ldr	x0, [x29,#40]
ffff000000004398:	f9404801 	ldr	x1, [x0,#144]
ffff00000000439c:	f94017a2 	ldr	x2, [x29,#40]
ffff0000000043a0:	93407c60 	sxtw	x0, w3
ffff0000000043a4:	9100d000 	add	x0, x0, #0x34
ffff0000000043a8:	d37df000 	lsl	x0, x0, #3
ffff0000000043ac:	8b000040 	add	x0, x2, x0
ffff0000000043b0:	f9000401 	str	x1, [x0,#8]
ffff0000000043b4:	f94017a0 	ldr	x0, [x29,#40]
ffff0000000043b8:	f9404800 	ldr	x0, [x0,#144]
ffff0000000043bc:	f90037a0 	str	x0, [x29,#104]
ffff0000000043c0:	f94037a1 	ldr	x1, [x29,#104]
ffff0000000043c4:	d2ffffe0 	mov	x0, #0xffff000000000000    	// #-281474976710656
ffff0000000043c8:	8b000020 	add	x0, x1, x0
ffff0000000043cc:	aa0003e4 	mov	x4, x0
ffff0000000043d0:	910133a0 	add	x0, x29, #0x4c
ffff0000000043d4:	aa0003e3 	mov	x3, x0
ffff0000000043d8:	f94013a2 	ldr	x2, [x29,#32]
ffff0000000043dc:	d28004e1 	mov	x1, #0x27                  	// #39
ffff0000000043e0:	aa0403e0 	mov	x0, x4
ffff0000000043e4:	97ffffa7 	bl	ffff000000004280 <map_table>
ffff0000000043e8:	f90033a0 	str	x0, [x29,#96]
ffff0000000043ec:	b9404fa0 	ldr	w0, [x29,#76]
ffff0000000043f0:	7100001f 	cmp	w0, #0x0
ffff0000000043f4:	540001e0 	b.eq	ffff000000004430 <map_page+0xf0>
ffff0000000043f8:	f94017a0 	ldr	x0, [x29,#40]
ffff0000000043fc:	b941a000 	ldr	w0, [x0,#416]
ffff000000004400:	11000401 	add	w1, w0, #0x1
ffff000000004404:	f94017a0 	ldr	x0, [x29,#40]
ffff000000004408:	b901a001 	str	w1, [x0,#416]
ffff00000000440c:	f94017a0 	ldr	x0, [x29,#40]
ffff000000004410:	b941a000 	ldr	w0, [x0,#416]
ffff000000004414:	f94017a1 	ldr	x1, [x29,#40]
ffff000000004418:	93407c00 	sxtw	x0, w0
ffff00000000441c:	9100d000 	add	x0, x0, #0x34
ffff000000004420:	d37df000 	lsl	x0, x0, #3
ffff000000004424:	8b000020 	add	x0, x1, x0
ffff000000004428:	f94033a1 	ldr	x1, [x29,#96]
ffff00000000442c:	f9000401 	str	x1, [x0,#8]
ffff000000004430:	f94033a1 	ldr	x1, [x29,#96]
ffff000000004434:	d2ffffe0 	mov	x0, #0xffff000000000000    	// #-281474976710656
ffff000000004438:	8b000020 	add	x0, x1, x0
ffff00000000443c:	aa0003e4 	mov	x4, x0
ffff000000004440:	910133a0 	add	x0, x29, #0x4c
ffff000000004444:	aa0003e3 	mov	x3, x0
ffff000000004448:	f94013a2 	ldr	x2, [x29,#32]
ffff00000000444c:	d28003c1 	mov	x1, #0x1e                  	// #30
ffff000000004450:	aa0403e0 	mov	x0, x4
ffff000000004454:	97ffff8b 	bl	ffff000000004280 <map_table>
ffff000000004458:	f9002fa0 	str	x0, [x29,#88]
ffff00000000445c:	b9404fa0 	ldr	w0, [x29,#76]
ffff000000004460:	7100001f 	cmp	w0, #0x0
ffff000000004464:	540001e0 	b.eq	ffff0000000044a0 <map_page+0x160>
ffff000000004468:	f94017a0 	ldr	x0, [x29,#40]
ffff00000000446c:	b941a000 	ldr	w0, [x0,#416]
ffff000000004470:	11000401 	add	w1, w0, #0x1
ffff000000004474:	f94017a0 	ldr	x0, [x29,#40]
ffff000000004478:	b901a001 	str	w1, [x0,#416]
ffff00000000447c:	f94017a0 	ldr	x0, [x29,#40]
ffff000000004480:	b941a000 	ldr	w0, [x0,#416]
ffff000000004484:	f94017a1 	ldr	x1, [x29,#40]
ffff000000004488:	93407c00 	sxtw	x0, w0
ffff00000000448c:	9100d000 	add	x0, x0, #0x34
ffff000000004490:	d37df000 	lsl	x0, x0, #3
ffff000000004494:	8b000020 	add	x0, x1, x0
ffff000000004498:	f9402fa1 	ldr	x1, [x29,#88]
ffff00000000449c:	f9000401 	str	x1, [x0,#8]
ffff0000000044a0:	f9402fa1 	ldr	x1, [x29,#88]
ffff0000000044a4:	d2ffffe0 	mov	x0, #0xffff000000000000    	// #-281474976710656
ffff0000000044a8:	8b000020 	add	x0, x1, x0
ffff0000000044ac:	aa0003e4 	mov	x4, x0
ffff0000000044b0:	910133a0 	add	x0, x29, #0x4c
ffff0000000044b4:	aa0003e3 	mov	x3, x0
ffff0000000044b8:	f94013a2 	ldr	x2, [x29,#32]
ffff0000000044bc:	d28002a1 	mov	x1, #0x15                  	// #21
ffff0000000044c0:	aa0403e0 	mov	x0, x4
ffff0000000044c4:	97ffff6f 	bl	ffff000000004280 <map_table>
ffff0000000044c8:	f9002ba0 	str	x0, [x29,#80]
ffff0000000044cc:	b9404fa0 	ldr	w0, [x29,#76]
ffff0000000044d0:	7100001f 	cmp	w0, #0x0
ffff0000000044d4:	540001e0 	b.eq	ffff000000004510 <map_page+0x1d0>
ffff0000000044d8:	f94017a0 	ldr	x0, [x29,#40]
ffff0000000044dc:	b941a000 	ldr	w0, [x0,#416]
ffff0000000044e0:	11000401 	add	w1, w0, #0x1
ffff0000000044e4:	f94017a0 	ldr	x0, [x29,#40]
ffff0000000044e8:	b901a001 	str	w1, [x0,#416]
ffff0000000044ec:	f94017a0 	ldr	x0, [x29,#40]
ffff0000000044f0:	b941a000 	ldr	w0, [x0,#416]
ffff0000000044f4:	f94017a1 	ldr	x1, [x29,#40]
ffff0000000044f8:	93407c00 	sxtw	x0, w0
ffff0000000044fc:	9100d000 	add	x0, x0, #0x34
ffff000000004500:	d37df000 	lsl	x0, x0, #3
ffff000000004504:	8b000020 	add	x0, x1, x0
ffff000000004508:	f9402ba1 	ldr	x1, [x29,#80]
ffff00000000450c:	f9000401 	str	x1, [x0,#8]
ffff000000004510:	f9402ba1 	ldr	x1, [x29,#80]
ffff000000004514:	d2ffffe0 	mov	x0, #0xffff000000000000    	// #-281474976710656
ffff000000004518:	8b000020 	add	x0, x1, x0
ffff00000000451c:	f9400fa2 	ldr	x2, [x29,#24]
ffff000000004520:	f94013a1 	ldr	x1, [x29,#32]
ffff000000004524:	97ffff40 	bl	ffff000000004224 <map_table_entry>
ffff000000004528:	f9400fa0 	ldr	x0, [x29,#24]
ffff00000000452c:	f9001fa0 	str	x0, [x29,#56]
ffff000000004530:	f94013a0 	ldr	x0, [x29,#32]
ffff000000004534:	f90023a0 	str	x0, [x29,#64]
ffff000000004538:	f94017a0 	ldr	x0, [x29,#40]
ffff00000000453c:	b9409800 	ldr	w0, [x0,#152]
ffff000000004540:	11000402 	add	w2, w0, #0x1
ffff000000004544:	f94017a1 	ldr	x1, [x29,#40]
ffff000000004548:	b9009822 	str	w2, [x1,#152]
ffff00000000454c:	f94017a1 	ldr	x1, [x29,#40]
ffff000000004550:	93407c00 	sxtw	x0, w0
ffff000000004554:	91002800 	add	x0, x0, #0xa
ffff000000004558:	d37cec00 	lsl	x0, x0, #4
ffff00000000455c:	8b000022 	add	x2, x1, x0
ffff000000004560:	9100e3a0 	add	x0, x29, #0x38
ffff000000004564:	a9400400 	ldp	x0, x1, [x0]
ffff000000004568:	a9000440 	stp	x0, x1, [x2]
ffff00000000456c:	d503201f 	nop
ffff000000004570:	a8c77bfd 	ldp	x29, x30, [sp],#112
ffff000000004574:	d65f03c0 	ret

ffff000000004578 <copy_virt_memory>:
ffff000000004578:	a9bc7bfd 	stp	x29, x30, [sp,#-64]!
ffff00000000457c:	910003fd 	mov	x29, sp
ffff000000004580:	f9000fa0 	str	x0, [x29,#24]
ffff000000004584:	d0000060 	adrp	x0, ffff000000012000 <sys_call_table+0x1c8>
ffff000000004588:	913b0000 	add	x0, x0, #0xec0
ffff00000000458c:	f9400000 	ldr	x0, [x0]
ffff000000004590:	f9400000 	ldr	x0, [x0]
ffff000000004594:	f9001ba0 	str	x0, [x29,#48]
ffff000000004598:	b9003fbf 	str	wzr, [x29,#60]
ffff00000000459c:	1400001e 	b	ffff000000004614 <copy_virt_memory+0x9c>
ffff0000000045a0:	f9401ba1 	ldr	x1, [x29,#48]
ffff0000000045a4:	b9803fa0 	ldrsw	x0, [x29,#60]
ffff0000000045a8:	91002800 	add	x0, x0, #0xa
ffff0000000045ac:	d37cec00 	lsl	x0, x0, #4
ffff0000000045b0:	8b000020 	add	x0, x1, x0
ffff0000000045b4:	91002000 	add	x0, x0, #0x8
ffff0000000045b8:	f9400000 	ldr	x0, [x0]
ffff0000000045bc:	aa0003e1 	mov	x1, x0
ffff0000000045c0:	f9400fa0 	ldr	x0, [x29,#24]
ffff0000000045c4:	97fffe9d 	bl	ffff000000004038 <allocate_user_page>
ffff0000000045c8:	f90017a0 	str	x0, [x29,#40]
ffff0000000045cc:	f94017a0 	ldr	x0, [x29,#40]
ffff0000000045d0:	f100001f 	cmp	x0, #0x0
ffff0000000045d4:	54000061 	b.ne	ffff0000000045e0 <copy_virt_memory+0x68>
ffff0000000045d8:	12800000 	mov	w0, #0xffffffff            	// #-1
ffff0000000045dc:	14000014 	b	ffff00000000462c <copy_virt_memory+0xb4>
ffff0000000045e0:	f9401ba1 	ldr	x1, [x29,#48]
ffff0000000045e4:	b9803fa0 	ldrsw	x0, [x29,#60]
ffff0000000045e8:	91002800 	add	x0, x0, #0xa
ffff0000000045ec:	d37cec00 	lsl	x0, x0, #4
ffff0000000045f0:	8b000020 	add	x0, x1, x0
ffff0000000045f4:	91002000 	add	x0, x0, #0x8
ffff0000000045f8:	f9400000 	ldr	x0, [x0]
ffff0000000045fc:	d2820002 	mov	x2, #0x1000                	// #4096
ffff000000004600:	f94017a1 	ldr	x1, [x29,#40]
ffff000000004604:	94003056 	bl	ffff00000001075c <memcpy>
ffff000000004608:	b9403fa0 	ldr	w0, [x29,#60]
ffff00000000460c:	11000400 	add	w0, w0, #0x1
ffff000000004610:	b9003fa0 	str	w0, [x29,#60]
ffff000000004614:	f9401ba0 	ldr	x0, [x29,#48]
ffff000000004618:	b9409801 	ldr	w1, [x0,#152]
ffff00000000461c:	b9403fa0 	ldr	w0, [x29,#60]
ffff000000004620:	6b00003f 	cmp	w1, w0
ffff000000004624:	54fffbec 	b.gt	ffff0000000045a0 <copy_virt_memory+0x28>
ffff000000004628:	52800000 	mov	w0, #0x0                   	// #0
ffff00000000462c:	a8c47bfd 	ldp	x29, x30, [sp],#64
ffff000000004630:	d65f03c0 	ret

ffff000000004634 <do_mem_abort>:
ffff000000004634:	a9bd7bfd 	stp	x29, x30, [sp,#-48]!
ffff000000004638:	910003fd 	mov	x29, sp
ffff00000000463c:	f9000fa0 	str	x0, [x29,#24]
ffff000000004640:	f9000ba1 	str	x1, [x29,#16]
ffff000000004644:	f9400ba0 	ldr	x0, [x29,#16]
ffff000000004648:	92401400 	and	x0, x0, #0x3f
ffff00000000464c:	f90017a0 	str	x0, [x29,#40]
ffff000000004650:	f94017a0 	ldr	x0, [x29,#40]
ffff000000004654:	927e0c00 	and	x0, x0, #0x3c
ffff000000004658:	f100101f 	cmp	x0, #0x4
ffff00000000465c:	540002c1 	b.ne	ffff0000000046b4 <do_mem_abort+0x80>
ffff000000004660:	52800020 	mov	w0, #0x1                   	// #1
ffff000000004664:	97fffe8a 	bl	ffff00000000408c <get_free_page>
ffff000000004668:	f90013a0 	str	x0, [x29,#32]
ffff00000000466c:	f94013a0 	ldr	x0, [x29,#32]
ffff000000004670:	f100001f 	cmp	x0, #0x0
ffff000000004674:	54000061 	b.ne	ffff000000004680 <do_mem_abort+0x4c>
ffff000000004678:	12800000 	mov	w0, #0xffffffff            	// #-1
ffff00000000467c:	14000012 	b	ffff0000000046c4 <do_mem_abort+0x90>
ffff000000004680:	d0000060 	adrp	x0, ffff000000012000 <sys_call_table+0x1c8>
ffff000000004684:	913b0000 	add	x0, x0, #0xec0
ffff000000004688:	f9400000 	ldr	x0, [x0]
ffff00000000468c:	f9400000 	ldr	x0, [x0]
ffff000000004690:	aa0003e3 	mov	x3, x0
ffff000000004694:	f9400fa0 	ldr	x0, [x29,#24]
ffff000000004698:	9274cc00 	and	x0, x0, #0xfffffffffffff000
ffff00000000469c:	f94013a2 	ldr	x2, [x29,#32]
ffff0000000046a0:	aa0003e1 	mov	x1, x0
ffff0000000046a4:	aa0303e0 	mov	x0, x3
ffff0000000046a8:	97ffff26 	bl	ffff000000004340 <map_page>
ffff0000000046ac:	52800000 	mov	w0, #0x0                   	// #0
ffff0000000046b0:	14000005 	b	ffff0000000046c4 <do_mem_abort+0x90>
ffff0000000046b4:	b0000060 	adrp	x0, ffff000000011000 <irq_invalid_el1t+0x14>
ffff0000000046b8:	91364000 	add	x0, x0, #0xd90
ffff0000000046bc:	94000413 	bl	ffff000000005708 <tfp_printf>
ffff0000000046c0:	12800000 	mov	w0, #0xffffffff            	// #-1
ffff0000000046c4:	a8c37bfd 	ldp	x29, x30, [sp],#48
ffff0000000046c8:	d65f03c0 	ret

ffff0000000046cc <_thread_exit>:
ffff0000000046cc:	a9bd7bfd 	stp	x29, x30, [sp,#-48]!
ffff0000000046d0:	910003fd 	mov	x29, sp
ffff0000000046d4:	f9000fa0 	str	x0, [x29,#24]
ffff0000000046d8:	d0000060 	adrp	x0, ffff000000012000 <sys_call_table+0x1c8>
ffff0000000046dc:	913b0000 	add	x0, x0, #0xec0
ffff0000000046e0:	f9400000 	ldr	x0, [x0]
ffff0000000046e4:	f90017a0 	str	x0, [x29,#40]
ffff0000000046e8:	f94017a0 	ldr	x0, [x29,#40]
ffff0000000046ec:	f9403400 	ldr	x0, [x0,#104]
ffff0000000046f0:	f100001f 	cmp	x0, #0x0
ffff0000000046f4:	540000c0 	b.eq	ffff00000000470c <_thread_exit+0x40>
ffff0000000046f8:	f94017a0 	ldr	x0, [x29,#40]
ffff0000000046fc:	f9403400 	ldr	x0, [x0,#104]
ffff000000004700:	f90013a0 	str	x0, [x29,#32]
ffff000000004704:	f94013a0 	ldr	x0, [x29,#32]
ffff000000004708:	f900041f 	str	xzr, [x0,#8]
ffff00000000470c:	9400005c 	bl	ffff00000000487c <thread_id_self>
ffff000000004710:	52800002 	mov	w2, #0x0                   	// #0
ffff000000004714:	2a0003e1 	mov	w1, w0
ffff000000004718:	52800060 	mov	w0, #0x3                   	// #3
ffff00000000471c:	97fffd21 	bl	ffff000000003ba0 <send_msg>
ffff000000004720:	b0000060 	adrp	x0, ffff000000011000 <irq_invalid_el1t+0x14>
ffff000000004724:	91366000 	add	x0, x0, #0xd98
ffff000000004728:	f94017a1 	ldr	x1, [x29,#40]
ffff00000000472c:	940003f7 	bl	ffff000000005708 <tfp_printf>
ffff000000004730:	f94017a0 	ldr	x0, [x29,#40]
ffff000000004734:	f9400400 	ldr	x0, [x0,#8]
ffff000000004738:	d2800081 	mov	x1, #0x4                   	// #4
ffff00000000473c:	f9000001 	str	x1, [x0]
ffff000000004740:	97fffac7 	bl	ffff00000000325c <schedule>
ffff000000004744:	d503201f 	nop
ffff000000004748:	a8c37bfd 	ldp	x29, x30, [sp],#48
ffff00000000474c:	d65f03c0 	ret

ffff000000004750 <_thread_mutex_lock>:
ffff000000004750:	a9bd7bfd 	stp	x29, x30, [sp,#-48]!
ffff000000004754:	910003fd 	mov	x29, sp
ffff000000004758:	f9000fa0 	str	x0, [x29,#24]
ffff00000000475c:	14000013 	b	ffff0000000047a8 <_thread_mutex_lock+0x58>
ffff000000004760:	f9400fa0 	ldr	x0, [x29,#24]
ffff000000004764:	b9400800 	ldr	w0, [x0,#8]
ffff000000004768:	7100001f 	cmp	w0, #0x0
ffff00000000476c:	54000061 	b.ne	ffff000000004778 <_thread_mutex_lock+0x28>
ffff000000004770:	97fffabb 	bl	ffff00000000325c <schedule>
ffff000000004774:	1400000d 	b	ffff0000000047a8 <_thread_mutex_lock+0x58>
ffff000000004778:	97fff4b3 	bl	ffff000000001a44 <thread_self>
ffff00000000477c:	b9002fa0 	str	w0, [x29,#44]
ffff000000004780:	f9400fa0 	ldr	x0, [x29,#24]
ffff000000004784:	f9400800 	ldr	x0, [x0,#16]
ffff000000004788:	b9802fa1 	ldrsw	x1, [x29,#44]
ffff00000000478c:	eb01001f 	cmp	x0, x1
ffff000000004790:	54000180 	b.eq	ffff0000000047c0 <_thread_mutex_lock+0x70>
ffff000000004794:	f9400fa0 	ldr	x0, [x29,#24]
ffff000000004798:	b9402fa1 	ldr	w1, [x29,#44]
ffff00000000479c:	94000012 	bl	ffff0000000047e4 <thread_enqueue>
ffff0000000047a0:	b9402fa0 	ldr	w0, [x29,#44]
ffff0000000047a4:	94000054 	bl	ffff0000000048f4 <thread_block>
ffff0000000047a8:	f9400fa0 	ldr	x0, [x29,#24]
ffff0000000047ac:	91006000 	add	x0, x0, #0x18
ffff0000000047b0:	9400347a 	bl	ffff000000011998 <try_lock>
ffff0000000047b4:	7100001f 	cmp	w0, #0x0
ffff0000000047b8:	54fffd41 	b.ne	ffff000000004760 <_thread_mutex_lock+0x10>
ffff0000000047bc:	14000002 	b	ffff0000000047c4 <_thread_mutex_lock+0x74>
ffff0000000047c0:	d503201f 	nop
ffff0000000047c4:	9400002e 	bl	ffff00000000487c <thread_id_self>
ffff0000000047c8:	93407c00 	sxtw	x0, w0
ffff0000000047cc:	aa0003e1 	mov	x1, x0
ffff0000000047d0:	f9400fa0 	ldr	x0, [x29,#24]
ffff0000000047d4:	f9000801 	str	x1, [x0,#16]
ffff0000000047d8:	52800000 	mov	w0, #0x0                   	// #0
ffff0000000047dc:	a8c37bfd 	ldp	x29, x30, [sp],#48
ffff0000000047e0:	d65f03c0 	ret

ffff0000000047e4 <thread_enqueue>:
ffff0000000047e4:	d10043ff 	sub	sp, sp, #0x10
ffff0000000047e8:	f90007e0 	str	x0, [sp,#8]
ffff0000000047ec:	b90007e1 	str	w1, [sp,#4]
ffff0000000047f0:	14000005 	b	ffff000000004804 <thread_enqueue+0x20>
ffff0000000047f4:	f94007e0 	ldr	x0, [sp,#8]
ffff0000000047f8:	f9400000 	ldr	x0, [x0]
ffff0000000047fc:	f9403c00 	ldr	x0, [x0,#120]
ffff000000004800:	f90007e0 	str	x0, [sp,#8]
ffff000000004804:	f94007e0 	ldr	x0, [sp,#8]
ffff000000004808:	f9400000 	ldr	x0, [x0]
ffff00000000480c:	f100001f 	cmp	x0, #0x0
ffff000000004810:	54ffff21 	b.ne	ffff0000000047f4 <thread_enqueue+0x10>
ffff000000004814:	f0000460 	adrp	x0, ffff000000093000 <intFileIORecord+0xed0>
ffff000000004818:	9128c000 	add	x0, x0, #0xa30
ffff00000000481c:	b98007e1 	ldrsw	x1, [sp,#4]
ffff000000004820:	f8617801 	ldr	x1, [x0,x1,lsl #3]
ffff000000004824:	f94007e0 	ldr	x0, [sp,#8]
ffff000000004828:	f9000001 	str	x1, [x0]
ffff00000000482c:	d503201f 	nop
ffff000000004830:	910043ff 	add	sp, sp, #0x10
ffff000000004834:	d65f03c0 	ret

ffff000000004838 <thread_cond_timewait>:
ffff000000004838:	a9bd7bfd 	stp	x29, x30, [sp,#-48]!
ffff00000000483c:	910003fd 	mov	x29, sp
ffff000000004840:	f90017a0 	str	x0, [x29,#40]
ffff000000004844:	f90013a1 	str	x1, [x29,#32]
ffff000000004848:	b9001fa2 	str	w2, [x29,#28]
ffff00000000484c:	b9401fa2 	ldr	w2, [x29,#28]
ffff000000004850:	f94013a1 	ldr	x1, [x29,#32]
ffff000000004854:	f94017a0 	ldr	x0, [x29,#40]
ffff000000004858:	94000018 	bl	ffff0000000048b8 <thread_cond_timedwait_internal>
ffff00000000485c:	a8c37bfd 	ldp	x29, x30, [sp],#48
ffff000000004860:	d65f03c0 	ret

ffff000000004864 <thread_yield>:
ffff000000004864:	a9bf7bfd 	stp	x29, x30, [sp,#-16]!
ffff000000004868:	910003fd 	mov	x29, sp
ffff00000000486c:	97fffa7c 	bl	ffff00000000325c <schedule>
ffff000000004870:	d503201f 	nop
ffff000000004874:	a8c17bfd 	ldp	x29, x30, [sp],#16
ffff000000004878:	d65f03c0 	ret

ffff00000000487c <thread_id_self>:
ffff00000000487c:	d0000060 	adrp	x0, ffff000000012000 <sys_call_table+0x1c8>
ffff000000004880:	913b0000 	add	x0, x0, #0xec0
ffff000000004884:	f9400000 	ldr	x0, [x0]
ffff000000004888:	b9403c00 	ldr	w0, [x0,#60]
ffff00000000488c:	d65f03c0 	ret

ffff000000004890 <thread_cond_wait>:
ffff000000004890:	a9be7bfd 	stp	x29, x30, [sp,#-32]!
ffff000000004894:	910003fd 	mov	x29, sp
ffff000000004898:	f9000fa0 	str	x0, [x29,#24]
ffff00000000489c:	f9000ba1 	str	x1, [x29,#16]
ffff0000000048a0:	52800002 	mov	w2, #0x0                   	// #0
ffff0000000048a4:	f9400ba1 	ldr	x1, [x29,#16]
ffff0000000048a8:	f9400fa0 	ldr	x0, [x29,#24]
ffff0000000048ac:	94000003 	bl	ffff0000000048b8 <thread_cond_timedwait_internal>
ffff0000000048b0:	a8c27bfd 	ldp	x29, x30, [sp],#32
ffff0000000048b4:	d65f03c0 	ret

ffff0000000048b8 <thread_cond_timedwait_internal>:
ffff0000000048b8:	a9bd7bfd 	stp	x29, x30, [sp,#-48]!
ffff0000000048bc:	910003fd 	mov	x29, sp
ffff0000000048c0:	f90017a0 	str	x0, [x29,#40]
ffff0000000048c4:	f90013a1 	str	x1, [x29,#32]
ffff0000000048c8:	b9001fa2 	str	w2, [x29,#28]
ffff0000000048cc:	b9401fa0 	ldr	w0, [x29,#28]
ffff0000000048d0:	7100001f 	cmp	w0, #0x0
ffff0000000048d4:	54000061 	b.ne	ffff0000000048e0 <thread_cond_timedwait_internal+0x28>
ffff0000000048d8:	94000007 	bl	ffff0000000048f4 <thread_block>
ffff0000000048dc:	14000003 	b	ffff0000000048e8 <thread_cond_timedwait_internal+0x30>
ffff0000000048e0:	b9401fa0 	ldr	w0, [x29,#28]
ffff0000000048e4:	97fffd67 	bl	ffff000000003e80 <wait_msec_st>
ffff0000000048e8:	d503201f 	nop
ffff0000000048ec:	a8c37bfd 	ldp	x29, x30, [sp],#48
ffff0000000048f0:	d65f03c0 	ret

ffff0000000048f4 <thread_block>:
ffff0000000048f4:	a9bf7bfd 	stp	x29, x30, [sp,#-16]!
ffff0000000048f8:	910003fd 	mov	x29, sp
ffff0000000048fc:	d0000060 	adrp	x0, ffff000000012000 <sys_call_table+0x1c8>
ffff000000004900:	913b0000 	add	x0, x0, #0xec0
ffff000000004904:	f9400000 	ldr	x0, [x0]
ffff000000004908:	f9400400 	ldr	x0, [x0,#8]
ffff00000000490c:	d2800021 	mov	x1, #0x1                   	// #1
ffff000000004910:	f9000001 	str	x1, [x0]
ffff000000004914:	97fffa52 	bl	ffff00000000325c <schedule>
ffff000000004918:	d503201f 	nop
ffff00000000491c:	a8c17bfd 	ldp	x29, x30, [sp],#16
ffff000000004920:	d65f03c0 	ret

ffff000000004924 <_thread_mutex_unlock>:
ffff000000004924:	a9bd7bfd 	stp	x29, x30, [sp,#-48]!
ffff000000004928:	910003fd 	mov	x29, sp
ffff00000000492c:	f9000fa0 	str	x0, [x29,#24]
ffff000000004930:	f9400fa0 	ldr	x0, [x29,#24]
ffff000000004934:	91006000 	add	x0, x0, #0x18
ffff000000004938:	94003420 	bl	ffff0000000119b8 <unlock>
ffff00000000493c:	b9002fa0 	str	w0, [x29,#44]
ffff000000004940:	b9402fa0 	ldr	w0, [x29,#44]
ffff000000004944:	7100001f 	cmp	w0, #0x0
ffff000000004948:	54000060 	b.eq	ffff000000004954 <_thread_mutex_unlock+0x30>
ffff00000000494c:	52800020 	mov	w0, #0x1                   	// #1
ffff000000004950:	14000005 	b	ffff000000004964 <_thread_mutex_unlock+0x40>
ffff000000004954:	f9400fa0 	ldr	x0, [x29,#24]
ffff000000004958:	f9400fa1 	ldr	x1, [x29,#24]
ffff00000000495c:	94000004 	bl	ffff00000000496c <thread_dequeue>
ffff000000004960:	52800000 	mov	w0, #0x0                   	// #0
ffff000000004964:	a8c37bfd 	ldp	x29, x30, [sp],#48
ffff000000004968:	d65f03c0 	ret

ffff00000000496c <thread_dequeue>:
ffff00000000496c:	a9be7bfd 	stp	x29, x30, [sp,#-32]!
ffff000000004970:	910003fd 	mov	x29, sp
ffff000000004974:	f9000fa0 	str	x0, [x29,#24]
ffff000000004978:	f9000ba1 	str	x1, [x29,#16]
ffff00000000497c:	f9400fa0 	ldr	x0, [x29,#24]
ffff000000004980:	f9400000 	ldr	x0, [x0]
ffff000000004984:	f100001f 	cmp	x0, #0x0
ffff000000004988:	54000260 	b.eq	ffff0000000049d4 <thread_dequeue+0x68>
ffff00000000498c:	d503201f 	nop
ffff000000004990:	f9400ba0 	ldr	x0, [x29,#16]
ffff000000004994:	91006000 	add	x0, x0, #0x18
ffff000000004998:	94003400 	bl	ffff000000011998 <try_lock>
ffff00000000499c:	7100001f 	cmp	w0, #0x0
ffff0000000049a0:	54ffff81 	b.ne	ffff000000004990 <thread_dequeue+0x24>
ffff0000000049a4:	f9400fa0 	ldr	x0, [x29,#24]
ffff0000000049a8:	f9400000 	ldr	x0, [x0]
ffff0000000049ac:	b9403c00 	ldr	w0, [x0,#60]
ffff0000000049b0:	93407c00 	sxtw	x0, w0
ffff0000000049b4:	aa0003e1 	mov	x1, x0
ffff0000000049b8:	f9400ba0 	ldr	x0, [x29,#16]
ffff0000000049bc:	f9000801 	str	x1, [x0,#16]
ffff0000000049c0:	f9400fa0 	ldr	x0, [x29,#24]
ffff0000000049c4:	f9400000 	ldr	x0, [x0]
ffff0000000049c8:	f9403c01 	ldr	x1, [x0,#120]
ffff0000000049cc:	f9400fa0 	ldr	x0, [x29,#24]
ffff0000000049d0:	f9000001 	str	x1, [x0]
ffff0000000049d4:	d503201f 	nop
ffff0000000049d8:	a8c27bfd 	ldp	x29, x30, [sp],#32
ffff0000000049dc:	d65f03c0 	ret

ffff0000000049e0 <_thread_cond_signal>:
ffff0000000049e0:	a9bd7bfd 	stp	x29, x30, [sp,#-48]!
ffff0000000049e4:	910003fd 	mov	x29, sp
ffff0000000049e8:	b9001fa0 	str	w0, [x29,#28]
ffff0000000049ec:	f94017a0 	ldr	x0, [x29,#40]
ffff0000000049f0:	f100001f 	cmp	x0, #0x0
ffff0000000049f4:	54000041 	b.ne	ffff0000000049fc <_thread_cond_signal+0x1c>
ffff0000000049f8:	94000019 	bl	ffff000000004a5c <error>
ffff0000000049fc:	f94017a0 	ldr	x0, [x29,#40]
ffff000000004a00:	f9400400 	ldr	x0, [x0,#8]
ffff000000004a04:	f900001f 	str	xzr, [x0]
ffff000000004a08:	d503201f 	nop
ffff000000004a0c:	a8c37bfd 	ldp	x29, x30, [sp],#48
ffff000000004a10:	d65f03c0 	ret

ffff000000004a14 <_thread_mutex_trylock>:
ffff000000004a14:	a9bd7bfd 	stp	x29, x30, [sp,#-48]!
ffff000000004a18:	910003fd 	mov	x29, sp
ffff000000004a1c:	f9000fa0 	str	x0, [x29,#24]
ffff000000004a20:	f9400fa0 	ldr	x0, [x29,#24]
ffff000000004a24:	91006000 	add	x0, x0, #0x18
ffff000000004a28:	940033dc 	bl	ffff000000011998 <try_lock>
ffff000000004a2c:	b9002fa0 	str	w0, [x29,#44]
ffff000000004a30:	b9402fa0 	ldr	w0, [x29,#44]
ffff000000004a34:	a8c37bfd 	ldp	x29, x30, [sp],#48
ffff000000004a38:	d65f03c0 	ret

ffff000000004a3c <thread_end>:
ffff000000004a3c:	a9be7bfd 	stp	x29, x30, [sp,#-32]!
ffff000000004a40:	910003fd 	mov	x29, sp
ffff000000004a44:	b9001fbf 	str	wzr, [x29,#28]
ffff000000004a48:	b9801fa0 	ldrsw	x0, [x29,#28]
ffff000000004a4c:	97fff3ef 	bl	ffff000000001a08 <call_sys_exit>
ffff000000004a50:	d503201f 	nop
ffff000000004a54:	a8c27bfd 	ldp	x29, x30, [sp],#32
ffff000000004a58:	d65f03c0 	ret

ffff000000004a5c <error>:
ffff000000004a5c:	a9bf7bfd 	stp	x29, x30, [sp,#-16]!
ffff000000004a60:	910003fd 	mov	x29, sp
ffff000000004a64:	b0000060 	adrp	x0, ffff000000011000 <irq_invalid_el1t+0x14>
ffff000000004a68:	9136a000 	add	x0, x0, #0xda8
ffff000000004a6c:	94000327 	bl	ffff000000005708 <tfp_printf>
ffff000000004a70:	d0000060 	adrp	x0, ffff000000012000 <sys_call_table+0x1c8>
ffff000000004a74:	913b0000 	add	x0, x0, #0xec0
ffff000000004a78:	f9400000 	ldr	x0, [x0]
ffff000000004a7c:	f9400400 	ldr	x0, [x0,#8]
ffff000000004a80:	d2800021 	mov	x1, #0x1                   	// #1
ffff000000004a84:	f9000001 	str	x1, [x0]
ffff000000004a88:	14000000 	b	ffff000000004a88 <error+0x2c>

ffff000000004a8c <_thread_create>:
ffff000000004a8c:	a9b67bfd 	stp	x29, x30, [sp,#-160]!
ffff000000004a90:	910003fd 	mov	x29, sp
ffff000000004a94:	f90017a0 	str	x0, [x29,#40]
ffff000000004a98:	f90013a1 	str	x1, [x29,#32]
ffff000000004a9c:	f9000fa2 	str	x2, [x29,#24]
ffff000000004aa0:	f9000ba3 	str	x3, [x29,#16]
ffff000000004aa4:	97fff93f 	bl	ffff000000002fa0 <preempt_disable>
ffff000000004aa8:	d0000060 	adrp	x0, ffff000000012000 <sys_call_table+0x1c8>
ffff000000004aac:	913b0000 	add	x0, x0, #0xec0
ffff000000004ab0:	f9400000 	ldr	x0, [x0]
ffff000000004ab4:	f9400000 	ldr	x0, [x0]
ffff000000004ab8:	f9004ba0 	str	x0, [x29,#144]
ffff000000004abc:	52820000 	mov	w0, #0x1000                	// #4096
ffff000000004ac0:	97fffd03 	bl	ffff000000003ecc <allocate_kernel_page>
ffff000000004ac4:	910123a2 	add	x2, x29, #0x48
ffff000000004ac8:	a9000440 	stp	x0, x1, [x2]
ffff000000004acc:	52820000 	mov	w0, #0x1000                	// #4096
ffff000000004ad0:	97fffcff 	bl	ffff000000003ecc <allocate_kernel_page>
ffff000000004ad4:	9100e3a2 	add	x2, x29, #0x38
ffff000000004ad8:	a9000440 	stp	x0, x1, [x2]
ffff000000004adc:	f94027a0 	ldr	x0, [x29,#72]
ffff000000004ae0:	f90047a0 	str	x0, [x29,#136]
ffff000000004ae4:	f9401fa0 	ldr	x0, [x29,#56]
ffff000000004ae8:	f90043a0 	str	x0, [x29,#128]
ffff000000004aec:	f94047a0 	ldr	x0, [x29,#136]
ffff000000004af0:	f9003fa0 	str	x0, [x29,#120]
ffff000000004af4:	f94043a0 	ldr	x0, [x29,#128]
ffff000000004af8:	f9003ba0 	str	x0, [x29,#112]
ffff000000004afc:	f9403fa0 	ldr	x0, [x29,#120]
ffff000000004b00:	94002dc9 	bl	ffff000000010224 <task_pt_regs>
ffff000000004b04:	f90037a0 	str	x0, [x29,#104]
ffff000000004b08:	f9403fa0 	ldr	x0, [x29,#120]
ffff000000004b0c:	f100001f 	cmp	x0, #0x0
ffff000000004b10:	54000061 	b.ne	ffff000000004b1c <_thread_create+0x90>
ffff000000004b14:	12800000 	mov	w0, #0xffffffff            	// #-1
ffff000000004b18:	140000b4 	b	ffff000000004de8 <_thread_create+0x35c>
ffff000000004b1c:	d0000060 	adrp	x0, ffff000000012000 <sys_call_table+0x1c8>
ffff000000004b20:	913b0000 	add	x0, x0, #0xec0
ffff000000004b24:	f9400000 	ldr	x0, [x0]
ffff000000004b28:	f9400000 	ldr	x0, [x0]
ffff000000004b2c:	94002dbe 	bl	ffff000000010224 <task_pt_regs>
ffff000000004b30:	f90033a0 	str	x0, [x29,#96]
ffff000000004b34:	f9400ba1 	ldr	x1, [x29,#16]
ffff000000004b38:	f94037a0 	ldr	x0, [x29,#104]
ffff000000004b3c:	f9000001 	str	x1, [x0]
ffff000000004b40:	90000000 	adrp	x0, ffff000000004000 <allocate_pcb_space+0x94>
ffff000000004b44:	9128f001 	add	x1, x0, #0xa3c
ffff000000004b48:	f94037a0 	ldr	x0, [x29,#104]
ffff000000004b4c:	f9007801 	str	x1, [x0,#240]
ffff000000004b50:	f9400fa1 	ldr	x1, [x29,#24]
ffff000000004b54:	f94037a0 	ldr	x0, [x29,#104]
ffff000000004b58:	f9008001 	str	x1, [x0,#256]
ffff000000004b5c:	f94037a0 	ldr	x0, [x29,#104]
ffff000000004b60:	d2820001 	mov	x1, #0x1000                	// #4096
ffff000000004b64:	f9007c01 	str	x1, [x0,#248]
ffff000000004b68:	f94033a0 	ldr	x0, [x29,#96]
ffff000000004b6c:	f9408401 	ldr	x1, [x0,#264]
ffff000000004b70:	f94037a0 	ldr	x0, [x29,#104]
ffff000000004b74:	f9008401 	str	x1, [x0,#264]
ffff000000004b78:	f9403fa0 	ldr	x0, [x29,#120]
ffff000000004b7c:	97fffe7f 	bl	ffff000000004578 <copy_virt_memory>
ffff000000004b80:	f9403fa0 	ldr	x0, [x29,#120]
ffff000000004b84:	f900441f 	str	xzr, [x0,#136]
ffff000000004b88:	f9403fa0 	ldr	x0, [x29,#120]
ffff000000004b8c:	d2800041 	mov	x1, #0x2                   	// #2
ffff000000004b90:	f9003c01 	str	x1, [x0,#120]
ffff000000004b94:	f9403fa0 	ldr	x0, [x29,#120]
ffff000000004b98:	d2800041 	mov	x1, #0x2                   	// #2
ffff000000004b9c:	f9003401 	str	x1, [x0,#104]
ffff000000004ba0:	f9403fa0 	ldr	x0, [x29,#120]
ffff000000004ba4:	f9403c01 	ldr	x1, [x0,#120]
ffff000000004ba8:	f9403fa0 	ldr	x0, [x29,#120]
ffff000000004bac:	f9003801 	str	x1, [x0,#112]
ffff000000004bb0:	f9403fa0 	ldr	x0, [x29,#120]
ffff000000004bb4:	d2800021 	mov	x1, #0x1                   	// #1
ffff000000004bb8:	f9004001 	str	x1, [x0,#128]
ffff000000004bbc:	b0000060 	adrp	x0, ffff000000011000 <irq_invalid_el1t+0x14>
ffff000000004bc0:	91231001 	add	x1, x0, #0x8c4
ffff000000004bc4:	f9403fa0 	ldr	x0, [x29,#120]
ffff000000004bc8:	f9003001 	str	x1, [x0,#96]
ffff000000004bcc:	f94037a1 	ldr	x1, [x29,#104]
ffff000000004bd0:	f9403fa0 	ldr	x0, [x29,#120]
ffff000000004bd4:	f9002c01 	str	x1, [x0,#88]
ffff000000004bd8:	f9403fa1 	ldr	x1, [x29,#120]
ffff000000004bdc:	f9403ba0 	ldr	x0, [x29,#112]
ffff000000004be0:	f9000001 	str	x1, [x0]
ffff000000004be4:	f9403fa0 	ldr	x0, [x29,#120]
ffff000000004be8:	9101a001 	add	x1, x0, #0x68
ffff000000004bec:	f9403ba0 	ldr	x0, [x29,#112]
ffff000000004bf0:	f9000401 	str	x1, [x0,#8]
ffff000000004bf4:	f9403fa0 	ldr	x0, [x29,#120]
ffff000000004bf8:	9101c001 	add	x1, x0, #0x70
ffff000000004bfc:	f9403ba0 	ldr	x0, [x29,#112]
ffff000000004c00:	f9000801 	str	x1, [x0,#16]
ffff000000004c04:	f9403fa0 	ldr	x0, [x29,#120]
ffff000000004c08:	9101e001 	add	x1, x0, #0x78
ffff000000004c0c:	f9403ba0 	ldr	x0, [x29,#112]
ffff000000004c10:	f9000c01 	str	x1, [x0,#24]
ffff000000004c14:	f9403fa0 	ldr	x0, [x29,#120]
ffff000000004c18:	91020001 	add	x1, x0, #0x80
ffff000000004c1c:	f9403ba0 	ldr	x0, [x29,#112]
ffff000000004c20:	f9001001 	str	x1, [x0,#32]
ffff000000004c24:	f9403fa0 	ldr	x0, [x29,#120]
ffff000000004c28:	91022001 	add	x1, x0, #0x88
ffff000000004c2c:	f9403ba0 	ldr	x0, [x29,#112]
ffff000000004c30:	f9001401 	str	x1, [x0,#40]
ffff000000004c34:	f9404ba0 	ldr	x0, [x29,#144]
ffff000000004c38:	91024001 	add	x1, x0, #0x90
ffff000000004c3c:	f9403ba0 	ldr	x0, [x29,#112]
ffff000000004c40:	f9001801 	str	x1, [x0,#48]
ffff000000004c44:	d0000060 	adrp	x0, ffff000000012000 <sys_call_table+0x1c8>
ffff000000004c48:	913b0000 	add	x0, x0, #0xec0
ffff000000004c4c:	f9400000 	ldr	x0, [x0]
ffff000000004c50:	b9403801 	ldr	w1, [x0,#56]
ffff000000004c54:	f9403ba0 	ldr	x0, [x29,#112]
ffff000000004c58:	b9003801 	str	w1, [x0,#56]
ffff000000004c5c:	d0000060 	adrp	x0, ffff000000012000 <sys_call_table+0x1c8>
ffff000000004c60:	913b0000 	add	x0, x0, #0xec0
ffff000000004c64:	f9400001 	ldr	x1, [x0]
ffff000000004c68:	f9403ba0 	ldr	x0, [x29,#112]
ffff000000004c6c:	f9004401 	str	x1, [x0,#136]
ffff000000004c70:	14000010 	b	ffff000000004cb0 <_thread_create+0x224>
ffff000000004c74:	f0000460 	adrp	x0, ffff000000093000 <intFileIORecord+0xed0>
ffff000000004c78:	9128a000 	add	x0, x0, #0xa28
ffff000000004c7c:	b9400000 	ldr	w0, [x0]
ffff000000004c80:	11000401 	add	w1, w0, #0x1
ffff000000004c84:	f0000460 	adrp	x0, ffff000000093000 <intFileIORecord+0xed0>
ffff000000004c88:	9128a000 	add	x0, x0, #0xa28
ffff000000004c8c:	b9000001 	str	w1, [x0]
ffff000000004c90:	f0000460 	adrp	x0, ffff000000093000 <intFileIORecord+0xed0>
ffff000000004c94:	9128a000 	add	x0, x0, #0xa28
ffff000000004c98:	b9400000 	ldr	w0, [x0]
ffff000000004c9c:	7140041f 	cmp	w0, #0x1, lsl #12
ffff000000004ca0:	54000081 	b.ne	ffff000000004cb0 <_thread_create+0x224>
ffff000000004ca4:	f0000460 	adrp	x0, ffff000000093000 <intFileIORecord+0xed0>
ffff000000004ca8:	9128a000 	add	x0, x0, #0xa28
ffff000000004cac:	b900001f 	str	wzr, [x0]
ffff000000004cb0:	f0000460 	adrp	x0, ffff000000093000 <intFileIORecord+0xed0>
ffff000000004cb4:	9128a000 	add	x0, x0, #0xa28
ffff000000004cb8:	b9400001 	ldr	w1, [x0]
ffff000000004cbc:	f0000460 	adrp	x0, ffff000000093000 <intFileIORecord+0xed0>
ffff000000004cc0:	9128c000 	add	x0, x0, #0xa30
ffff000000004cc4:	93407c21 	sxtw	x1, w1
ffff000000004cc8:	f8617800 	ldr	x0, [x0,x1,lsl #3]
ffff000000004ccc:	f100001f 	cmp	x0, #0x0
ffff000000004cd0:	54fffd21 	b.ne	ffff000000004c74 <_thread_create+0x1e8>
ffff000000004cd4:	f0000460 	adrp	x0, ffff000000093000 <intFileIORecord+0xed0>
ffff000000004cd8:	9128a000 	add	x0, x0, #0xa28
ffff000000004cdc:	b9400001 	ldr	w1, [x0]
ffff000000004ce0:	f94017a0 	ldr	x0, [x29,#40]
ffff000000004ce4:	b9000001 	str	w1, [x0]
ffff000000004ce8:	f0000460 	adrp	x0, ffff000000093000 <intFileIORecord+0xed0>
ffff000000004cec:	9128a000 	add	x0, x0, #0xa28
ffff000000004cf0:	b9400001 	ldr	w1, [x0]
ffff000000004cf4:	f9403ba0 	ldr	x0, [x29,#112]
ffff000000004cf8:	b9003c01 	str	w1, [x0,#60]
ffff000000004cfc:	f0000460 	adrp	x0, ffff000000093000 <intFileIORecord+0xed0>
ffff000000004d00:	9128a000 	add	x0, x0, #0xa28
ffff000000004d04:	b9400001 	ldr	w1, [x0]
ffff000000004d08:	f0000460 	adrp	x0, ffff000000093000 <intFileIORecord+0xed0>
ffff000000004d0c:	9128c000 	add	x0, x0, #0xa30
ffff000000004d10:	93407c21 	sxtw	x1, w1
ffff000000004d14:	f9403ba2 	ldr	x2, [x29,#112]
ffff000000004d18:	f8217802 	str	x2, [x0,x1,lsl #3]
ffff000000004d1c:	d0000060 	adrp	x0, ffff000000012000 <sys_call_table+0x1c8>
ffff000000004d20:	913b6000 	add	x0, x0, #0xed8
ffff000000004d24:	f9400400 	ldr	x0, [x0,#8]
ffff000000004d28:	f9002fa0 	str	x0, [x29,#88]
ffff000000004d2c:	f9402fa0 	ldr	x0, [x29,#88]
ffff000000004d30:	f9404000 	ldr	x0, [x0,#128]
ffff000000004d34:	f100001f 	cmp	x0, #0x0
ffff000000004d38:	54000200 	b.eq	ffff000000004d78 <_thread_create+0x2ec>
ffff000000004d3c:	f9402fa0 	ldr	x0, [x29,#88]
ffff000000004d40:	f9404001 	ldr	x1, [x0,#128]
ffff000000004d44:	f9403ba0 	ldr	x0, [x29,#112]
ffff000000004d48:	f9004001 	str	x1, [x0,#128]
ffff000000004d4c:	f9403ba0 	ldr	x0, [x29,#112]
ffff000000004d50:	f9402fa1 	ldr	x1, [x29,#88]
ffff000000004d54:	f9003c01 	str	x1, [x0,#120]
ffff000000004d58:	f9402fa0 	ldr	x0, [x29,#88]
ffff000000004d5c:	f9404000 	ldr	x0, [x0,#128]
ffff000000004d60:	f9403ba1 	ldr	x1, [x29,#112]
ffff000000004d64:	f9003c01 	str	x1, [x0,#120]
ffff000000004d68:	f9402fa0 	ldr	x0, [x29,#88]
ffff000000004d6c:	f9403ba1 	ldr	x1, [x29,#112]
ffff000000004d70:	f9004001 	str	x1, [x0,#128]
ffff000000004d74:	14000007 	b	ffff000000004d90 <_thread_create+0x304>
ffff000000004d78:	f9402fa0 	ldr	x0, [x29,#88]
ffff000000004d7c:	f9403ba1 	ldr	x1, [x29,#112]
ffff000000004d80:	f9004001 	str	x1, [x0,#128]
ffff000000004d84:	f9403ba0 	ldr	x0, [x29,#112]
ffff000000004d88:	f9402fa1 	ldr	x1, [x29,#88]
ffff000000004d8c:	f9003c01 	str	x1, [x0,#120]
ffff000000004d90:	d0000060 	adrp	x0, ffff000000012000 <sys_call_table+0x1c8>
ffff000000004d94:	913b0000 	add	x0, x0, #0xec0
ffff000000004d98:	f9400000 	ldr	x0, [x0]
ffff000000004d9c:	f9004fa0 	str	x0, [x29,#152]
ffff000000004da0:	14000004 	b	ffff000000004db0 <_thread_create+0x324>
ffff000000004da4:	f9404fa0 	ldr	x0, [x29,#152]
ffff000000004da8:	f9404c00 	ldr	x0, [x0,#152]
ffff000000004dac:	f9004fa0 	str	x0, [x29,#152]
ffff000000004db0:	f9404fa0 	ldr	x0, [x29,#152]
ffff000000004db4:	f9404c00 	ldr	x0, [x0,#152]
ffff000000004db8:	f100001f 	cmp	x0, #0x0
ffff000000004dbc:	54ffff41 	b.ne	ffff000000004da4 <_thread_create+0x318>
ffff000000004dc0:	f9404fa0 	ldr	x0, [x29,#152]
ffff000000004dc4:	f9403ba1 	ldr	x1, [x29,#112]
ffff000000004dc8:	f9004c01 	str	x1, [x0,#152]
ffff000000004dcc:	f9403ba0 	ldr	x0, [x29,#112]
ffff000000004dd0:	f9404fa1 	ldr	x1, [x29,#152]
ffff000000004dd4:	f9004801 	str	x1, [x0,#144]
ffff000000004dd8:	f9403ba0 	ldr	x0, [x29,#112]
ffff000000004ddc:	f9004c1f 	str	xzr, [x0,#152]
ffff000000004de0:	97fff87d 	bl	ffff000000002fd4 <preempt_enable>
ffff000000004de4:	52800000 	mov	w0, #0x0                   	// #0
ffff000000004de8:	a8ca7bfd 	ldp	x29, x30, [sp],#160
ffff000000004dec:	d65f03c0 	ret

ffff000000004df0 <_thread_join>:
ffff000000004df0:	a9bd7bfd 	stp	x29, x30, [sp,#-48]!
ffff000000004df4:	910003fd 	mov	x29, sp
ffff000000004df8:	b9001fa0 	str	w0, [x29,#28]
ffff000000004dfc:	f9000ba1 	str	x1, [x29,#16]
ffff000000004e00:	f0000460 	adrp	x0, ffff000000093000 <intFileIORecord+0xed0>
ffff000000004e04:	9128c000 	add	x0, x0, #0xa30
ffff000000004e08:	b9801fa1 	ldrsw	x1, [x29,#28]
ffff000000004e0c:	f8617800 	ldr	x0, [x0,x1,lsl #3]
ffff000000004e10:	f100001f 	cmp	x0, #0x0
ffff000000004e14:	54000041 	b.ne	ffff000000004e1c <_thread_join+0x2c>
ffff000000004e18:	97ffff11 	bl	ffff000000004a5c <error>
ffff000000004e1c:	f0000460 	adrp	x0, ffff000000093000 <intFileIORecord+0xed0>
ffff000000004e20:	9128c000 	add	x0, x0, #0xa30
ffff000000004e24:	b9801fa1 	ldrsw	x1, [x29,#28]
ffff000000004e28:	f8617800 	ldr	x0, [x0,x1,lsl #3]
ffff000000004e2c:	f90017a0 	str	x0, [x29,#40]
ffff000000004e30:	f94017a0 	ldr	x0, [x29,#40]
ffff000000004e34:	91010000 	add	x0, x0, #0x40
ffff000000004e38:	97fffe46 	bl	ffff000000004750 <_thread_mutex_lock>
ffff000000004e3c:	14000002 	b	ffff000000004e44 <_thread_join+0x54>
ffff000000004e40:	97fff907 	bl	ffff00000000325c <schedule>
ffff000000004e44:	f94017a0 	ldr	x0, [x29,#40]
ffff000000004e48:	f9400400 	ldr	x0, [x0,#8]
ffff000000004e4c:	f9400000 	ldr	x0, [x0]
ffff000000004e50:	f100081f 	cmp	x0, #0x2
ffff000000004e54:	54ffff60 	b.eq	ffff000000004e40 <_thread_join+0x50>
ffff000000004e58:	f94017a0 	ldr	x0, [x29,#40]
ffff000000004e5c:	f9400400 	ldr	x0, [x0,#8]
ffff000000004e60:	f9400000 	ldr	x0, [x0]
ffff000000004e64:	f100101f 	cmp	x0, #0x4
ffff000000004e68:	540001c1 	b.ne	ffff000000004ea0 <_thread_join+0xb0>
ffff000000004e6c:	f9400ba0 	ldr	x0, [x29,#16]
ffff000000004e70:	f100001f 	cmp	x0, #0x0
ffff000000004e74:	540000e0 	b.eq	ffff000000004e90 <_thread_join+0xa0>
ffff000000004e78:	f94017a0 	ldr	x0, [x29,#40]
ffff000000004e7c:	f9400400 	ldr	x0, [x0,#8]
ffff000000004e80:	f9400000 	ldr	x0, [x0]
ffff000000004e84:	aa0003e1 	mov	x1, x0
ffff000000004e88:	f9400ba0 	ldr	x0, [x29,#16]
ffff000000004e8c:	f9000001 	str	x1, [x0]
ffff000000004e90:	f94017a0 	ldr	x0, [x29,#40]
ffff000000004e94:	91010000 	add	x0, x0, #0x40
ffff000000004e98:	97fffea3 	bl	ffff000000004924 <_thread_mutex_unlock>
ffff000000004e9c:	1400000b 	b	ffff000000004ec8 <_thread_join+0xd8>
ffff000000004ea0:	f94017a0 	ldr	x0, [x29,#40]
ffff000000004ea4:	91010000 	add	x0, x0, #0x40
ffff000000004ea8:	97fff30e 	bl	ffff000000001ae0 <thread_mutex_unlock>
ffff000000004eac:	528002c0 	mov	w0, #0x16                  	// #22
ffff000000004eb0:	b90027a0 	str	w0, [x29,#36]
ffff000000004eb4:	b0000060 	adrp	x0, ffff000000011000 <irq_invalid_el1t+0x14>
ffff000000004eb8:	9136c000 	add	x0, x0, #0xdb0
ffff000000004ebc:	528002c1 	mov	w1, #0x16                  	// #22
ffff000000004ec0:	94000212 	bl	ffff000000005708 <tfp_printf>
ffff000000004ec4:	d503201f 	nop
ffff000000004ec8:	52800000 	mov	w0, #0x0                   	// #0
ffff000000004ecc:	a8c37bfd 	ldp	x29, x30, [sp],#48
ffff000000004ed0:	d65f03c0 	ret

ffff000000004ed4 <_thread_mutex_init>:
ffff000000004ed4:	d10043ff 	sub	sp, sp, #0x10
ffff000000004ed8:	f90007e0 	str	x0, [sp,#8]
ffff000000004edc:	f90003e1 	str	x1, [sp]
ffff000000004ee0:	f94007e0 	ldr	x0, [sp,#8]
ffff000000004ee4:	b900181f 	str	wzr, [x0,#24]
ffff000000004ee8:	f94007e0 	ldr	x0, [sp,#8]
ffff000000004eec:	b900081f 	str	wzr, [x0,#8]
ffff000000004ef0:	52800000 	mov	w0, #0x0                   	// #0
ffff000000004ef4:	910043ff 	add	sp, sp, #0x10
ffff000000004ef8:	d65f03c0 	ret

ffff000000004efc <ui2a>:
ffff000000004efc:	d100c3ff 	sub	sp, sp, #0x30
ffff000000004f00:	b9001fe0 	str	w0, [sp,#28]
ffff000000004f04:	b9001be1 	str	w1, [sp,#24]
ffff000000004f08:	b90017e2 	str	w2, [sp,#20]
ffff000000004f0c:	f90007e3 	str	x3, [sp,#8]
ffff000000004f10:	b9002fff 	str	wzr, [sp,#44]
ffff000000004f14:	52800020 	mov	w0, #0x1                   	// #1
ffff000000004f18:	b9002be0 	str	w0, [sp,#40]
ffff000000004f1c:	14000005 	b	ffff000000004f30 <ui2a+0x34>
ffff000000004f20:	b9402be1 	ldr	w1, [sp,#40]
ffff000000004f24:	b9401be0 	ldr	w0, [sp,#24]
ffff000000004f28:	1b007c20 	mul	w0, w1, w0
ffff000000004f2c:	b9002be0 	str	w0, [sp,#40]
ffff000000004f30:	b9401fe1 	ldr	w1, [sp,#28]
ffff000000004f34:	b9402be0 	ldr	w0, [sp,#40]
ffff000000004f38:	1ac00821 	udiv	w1, w1, w0
ffff000000004f3c:	b9401be0 	ldr	w0, [sp,#24]
ffff000000004f40:	6b00003f 	cmp	w1, w0
ffff000000004f44:	54fffee2 	b.cs	ffff000000004f20 <ui2a+0x24>
ffff000000004f48:	1400002f 	b	ffff000000005004 <ui2a+0x108>
ffff000000004f4c:	b9401fe1 	ldr	w1, [sp,#28]
ffff000000004f50:	b9402be0 	ldr	w0, [sp,#40]
ffff000000004f54:	1ac00820 	udiv	w0, w1, w0
ffff000000004f58:	b90027e0 	str	w0, [sp,#36]
ffff000000004f5c:	b9401fe0 	ldr	w0, [sp,#28]
ffff000000004f60:	b9402be1 	ldr	w1, [sp,#40]
ffff000000004f64:	1ac10802 	udiv	w2, w0, w1
ffff000000004f68:	b9402be1 	ldr	w1, [sp,#40]
ffff000000004f6c:	1b017c41 	mul	w1, w2, w1
ffff000000004f70:	4b010000 	sub	w0, w0, w1
ffff000000004f74:	b9001fe0 	str	w0, [sp,#28]
ffff000000004f78:	b9402be1 	ldr	w1, [sp,#40]
ffff000000004f7c:	b9401be0 	ldr	w0, [sp,#24]
ffff000000004f80:	1ac00820 	udiv	w0, w1, w0
ffff000000004f84:	b9002be0 	str	w0, [sp,#40]
ffff000000004f88:	b9402fe0 	ldr	w0, [sp,#44]
ffff000000004f8c:	7100001f 	cmp	w0, #0x0
ffff000000004f90:	540000e1 	b.ne	ffff000000004fac <ui2a+0xb0>
ffff000000004f94:	b94027e0 	ldr	w0, [sp,#36]
ffff000000004f98:	7100001f 	cmp	w0, #0x0
ffff000000004f9c:	5400008c 	b.gt	ffff000000004fac <ui2a+0xb0>
ffff000000004fa0:	b9402be0 	ldr	w0, [sp,#40]
ffff000000004fa4:	7100001f 	cmp	w0, #0x0
ffff000000004fa8:	540002e1 	b.ne	ffff000000005004 <ui2a+0x108>
ffff000000004fac:	f94007e1 	ldr	x1, [sp,#8]
ffff000000004fb0:	91000420 	add	x0, x1, #0x1
ffff000000004fb4:	f90007e0 	str	x0, [sp,#8]
ffff000000004fb8:	b94027e0 	ldr	w0, [sp,#36]
ffff000000004fbc:	7100241f 	cmp	w0, #0x9
ffff000000004fc0:	5400010d 	b.le	ffff000000004fe0 <ui2a+0xe4>
ffff000000004fc4:	b94017e0 	ldr	w0, [sp,#20]
ffff000000004fc8:	7100001f 	cmp	w0, #0x0
ffff000000004fcc:	54000060 	b.eq	ffff000000004fd8 <ui2a+0xdc>
ffff000000004fd0:	528006e0 	mov	w0, #0x37                  	// #55
ffff000000004fd4:	14000004 	b	ffff000000004fe4 <ui2a+0xe8>
ffff000000004fd8:	52800ae0 	mov	w0, #0x57                  	// #87
ffff000000004fdc:	14000002 	b	ffff000000004fe4 <ui2a+0xe8>
ffff000000004fe0:	52800600 	mov	w0, #0x30                  	// #48
ffff000000004fe4:	b94027e2 	ldr	w2, [sp,#36]
ffff000000004fe8:	53001c42 	uxtb	w2, w2
ffff000000004fec:	0b020000 	add	w0, w0, w2
ffff000000004ff0:	53001c00 	uxtb	w0, w0
ffff000000004ff4:	39000020 	strb	w0, [x1]
ffff000000004ff8:	b9402fe0 	ldr	w0, [sp,#44]
ffff000000004ffc:	11000400 	add	w0, w0, #0x1
ffff000000005000:	b9002fe0 	str	w0, [sp,#44]
ffff000000005004:	b9402be0 	ldr	w0, [sp,#40]
ffff000000005008:	7100001f 	cmp	w0, #0x0
ffff00000000500c:	54fffa01 	b.ne	ffff000000004f4c <ui2a+0x50>
ffff000000005010:	f94007e0 	ldr	x0, [sp,#8]
ffff000000005014:	3900001f 	strb	wzr, [x0]
ffff000000005018:	d503201f 	nop
ffff00000000501c:	9100c3ff 	add	sp, sp, #0x30
ffff000000005020:	d65f03c0 	ret

ffff000000005024 <i2a>:
ffff000000005024:	a9be7bfd 	stp	x29, x30, [sp,#-32]!
ffff000000005028:	910003fd 	mov	x29, sp
ffff00000000502c:	b9001fa0 	str	w0, [x29,#28]
ffff000000005030:	f9000ba1 	str	x1, [x29,#16]
ffff000000005034:	b9401fa0 	ldr	w0, [x29,#28]
ffff000000005038:	7100001f 	cmp	w0, #0x0
ffff00000000503c:	5400012a 	b.ge	ffff000000005060 <i2a+0x3c>
ffff000000005040:	b9401fa0 	ldr	w0, [x29,#28]
ffff000000005044:	4b0003e0 	neg	w0, w0
ffff000000005048:	b9001fa0 	str	w0, [x29,#28]
ffff00000000504c:	f9400ba0 	ldr	x0, [x29,#16]
ffff000000005050:	91000401 	add	x1, x0, #0x1
ffff000000005054:	f9000ba1 	str	x1, [x29,#16]
ffff000000005058:	528005a1 	mov	w1, #0x2d                  	// #45
ffff00000000505c:	39000001 	strb	w1, [x0]
ffff000000005060:	b9401fa0 	ldr	w0, [x29,#28]
ffff000000005064:	f9400ba3 	ldr	x3, [x29,#16]
ffff000000005068:	52800002 	mov	w2, #0x0                   	// #0
ffff00000000506c:	52800141 	mov	w1, #0xa                   	// #10
ffff000000005070:	97ffffa3 	bl	ffff000000004efc <ui2a>
ffff000000005074:	d503201f 	nop
ffff000000005078:	a8c27bfd 	ldp	x29, x30, [sp],#32
ffff00000000507c:	d65f03c0 	ret

ffff000000005080 <a2d>:
ffff000000005080:	d10043ff 	sub	sp, sp, #0x10
ffff000000005084:	39003fe0 	strb	w0, [sp,#15]
ffff000000005088:	39403fe0 	ldrb	w0, [sp,#15]
ffff00000000508c:	7100bc1f 	cmp	w0, #0x2f
ffff000000005090:	540000e9 	b.ls	ffff0000000050ac <a2d+0x2c>
ffff000000005094:	39403fe0 	ldrb	w0, [sp,#15]
ffff000000005098:	7100e41f 	cmp	w0, #0x39
ffff00000000509c:	54000088 	b.hi	ffff0000000050ac <a2d+0x2c>
ffff0000000050a0:	39403fe0 	ldrb	w0, [sp,#15]
ffff0000000050a4:	5100c000 	sub	w0, w0, #0x30
ffff0000000050a8:	14000014 	b	ffff0000000050f8 <a2d+0x78>
ffff0000000050ac:	39403fe0 	ldrb	w0, [sp,#15]
ffff0000000050b0:	7101801f 	cmp	w0, #0x60
ffff0000000050b4:	540000e9 	b.ls	ffff0000000050d0 <a2d+0x50>
ffff0000000050b8:	39403fe0 	ldrb	w0, [sp,#15]
ffff0000000050bc:	7101981f 	cmp	w0, #0x66
ffff0000000050c0:	54000088 	b.hi	ffff0000000050d0 <a2d+0x50>
ffff0000000050c4:	39403fe0 	ldrb	w0, [sp,#15]
ffff0000000050c8:	51015c00 	sub	w0, w0, #0x57
ffff0000000050cc:	1400000b 	b	ffff0000000050f8 <a2d+0x78>
ffff0000000050d0:	39403fe0 	ldrb	w0, [sp,#15]
ffff0000000050d4:	7101001f 	cmp	w0, #0x40
ffff0000000050d8:	540000e9 	b.ls	ffff0000000050f4 <a2d+0x74>
ffff0000000050dc:	39403fe0 	ldrb	w0, [sp,#15]
ffff0000000050e0:	7101181f 	cmp	w0, #0x46
ffff0000000050e4:	54000088 	b.hi	ffff0000000050f4 <a2d+0x74>
ffff0000000050e8:	39403fe0 	ldrb	w0, [sp,#15]
ffff0000000050ec:	5100dc00 	sub	w0, w0, #0x37
ffff0000000050f0:	14000002 	b	ffff0000000050f8 <a2d+0x78>
ffff0000000050f4:	12800000 	mov	w0, #0xffffffff            	// #-1
ffff0000000050f8:	910043ff 	add	sp, sp, #0x10
ffff0000000050fc:	d65f03c0 	ret

ffff000000005100 <a2i>:
ffff000000005100:	a9bc7bfd 	stp	x29, x30, [sp,#-64]!
ffff000000005104:	910003fd 	mov	x29, sp
ffff000000005108:	3900bfa0 	strb	w0, [x29,#47]
ffff00000000510c:	f90013a1 	str	x1, [x29,#32]
ffff000000005110:	b9002ba2 	str	w2, [x29,#40]
ffff000000005114:	f9000fa3 	str	x3, [x29,#24]
ffff000000005118:	f94013a0 	ldr	x0, [x29,#32]
ffff00000000511c:	f9400000 	ldr	x0, [x0]
ffff000000005120:	f9001fa0 	str	x0, [x29,#56]
ffff000000005124:	b90037bf 	str	wzr, [x29,#52]
ffff000000005128:	14000010 	b	ffff000000005168 <a2i+0x68>
ffff00000000512c:	b94033a1 	ldr	w1, [x29,#48]
ffff000000005130:	b9402ba0 	ldr	w0, [x29,#40]
ffff000000005134:	6b00003f 	cmp	w1, w0
ffff000000005138:	5400026c 	b.gt	ffff000000005184 <a2i+0x84>
ffff00000000513c:	b94037a1 	ldr	w1, [x29,#52]
ffff000000005140:	b9402ba0 	ldr	w0, [x29,#40]
ffff000000005144:	1b007c21 	mul	w1, w1, w0
ffff000000005148:	b94033a0 	ldr	w0, [x29,#48]
ffff00000000514c:	0b000020 	add	w0, w1, w0
ffff000000005150:	b90037a0 	str	w0, [x29,#52]
ffff000000005154:	f9401fa0 	ldr	x0, [x29,#56]
ffff000000005158:	91000401 	add	x1, x0, #0x1
ffff00000000515c:	f9001fa1 	str	x1, [x29,#56]
ffff000000005160:	39400000 	ldrb	w0, [x0]
ffff000000005164:	3900bfa0 	strb	w0, [x29,#47]
ffff000000005168:	3940bfa0 	ldrb	w0, [x29,#47]
ffff00000000516c:	97ffffc5 	bl	ffff000000005080 <a2d>
ffff000000005170:	b90033a0 	str	w0, [x29,#48]
ffff000000005174:	b94033a0 	ldr	w0, [x29,#48]
ffff000000005178:	7100001f 	cmp	w0, #0x0
ffff00000000517c:	54fffd8a 	b.ge	ffff00000000512c <a2i+0x2c>
ffff000000005180:	14000002 	b	ffff000000005188 <a2i+0x88>
ffff000000005184:	d503201f 	nop
ffff000000005188:	f94013a0 	ldr	x0, [x29,#32]
ffff00000000518c:	f9401fa1 	ldr	x1, [x29,#56]
ffff000000005190:	f9000001 	str	x1, [x0]
ffff000000005194:	f9400fa0 	ldr	x0, [x29,#24]
ffff000000005198:	b94037a1 	ldr	w1, [x29,#52]
ffff00000000519c:	b9000001 	str	w1, [x0]
ffff0000000051a0:	3940bfa0 	ldrb	w0, [x29,#47]
ffff0000000051a4:	a8c47bfd 	ldp	x29, x30, [sp],#64
ffff0000000051a8:	d65f03c0 	ret

ffff0000000051ac <putchw>:
ffff0000000051ac:	a9bc7bfd 	stp	x29, x30, [sp,#-64]!
ffff0000000051b0:	910003fd 	mov	x29, sp
ffff0000000051b4:	f90017a0 	str	x0, [x29,#40]
ffff0000000051b8:	f90013a1 	str	x1, [x29,#32]
ffff0000000051bc:	b9001fa2 	str	w2, [x29,#28]
ffff0000000051c0:	39006fa3 	strb	w3, [x29,#27]
ffff0000000051c4:	f9000ba4 	str	x4, [x29,#16]
ffff0000000051c8:	39406fa0 	ldrb	w0, [x29,#27]
ffff0000000051cc:	7100001f 	cmp	w0, #0x0
ffff0000000051d0:	54000060 	b.eq	ffff0000000051dc <putchw+0x30>
ffff0000000051d4:	52800600 	mov	w0, #0x30                  	// #48
ffff0000000051d8:	14000002 	b	ffff0000000051e0 <putchw+0x34>
ffff0000000051dc:	52800400 	mov	w0, #0x20                  	// #32
ffff0000000051e0:	3900dfa0 	strb	w0, [x29,#55]
ffff0000000051e4:	f9400ba0 	ldr	x0, [x29,#16]
ffff0000000051e8:	f9001fa0 	str	x0, [x29,#56]
ffff0000000051ec:	14000004 	b	ffff0000000051fc <putchw+0x50>
ffff0000000051f0:	b9401fa0 	ldr	w0, [x29,#28]
ffff0000000051f4:	51000400 	sub	w0, w0, #0x1
ffff0000000051f8:	b9001fa0 	str	w0, [x29,#28]
ffff0000000051fc:	f9401fa0 	ldr	x0, [x29,#56]
ffff000000005200:	91000401 	add	x1, x0, #0x1
ffff000000005204:	f9001fa1 	str	x1, [x29,#56]
ffff000000005208:	39400000 	ldrb	w0, [x0]
ffff00000000520c:	7100001f 	cmp	w0, #0x0
ffff000000005210:	54000120 	b.eq	ffff000000005234 <putchw+0x88>
ffff000000005214:	b9401fa0 	ldr	w0, [x29,#28]
ffff000000005218:	7100001f 	cmp	w0, #0x0
ffff00000000521c:	54fffeac 	b.gt	ffff0000000051f0 <putchw+0x44>
ffff000000005220:	14000005 	b	ffff000000005234 <putchw+0x88>
ffff000000005224:	f94013a2 	ldr	x2, [x29,#32]
ffff000000005228:	3940dfa1 	ldrb	w1, [x29,#55]
ffff00000000522c:	f94017a0 	ldr	x0, [x29,#40]
ffff000000005230:	d63f0040 	blr	x2
ffff000000005234:	b9401fa0 	ldr	w0, [x29,#28]
ffff000000005238:	51000401 	sub	w1, w0, #0x1
ffff00000000523c:	b9001fa1 	str	w1, [x29,#28]
ffff000000005240:	7100001f 	cmp	w0, #0x0
ffff000000005244:	54ffff0c 	b.gt	ffff000000005224 <putchw+0x78>
ffff000000005248:	14000005 	b	ffff00000000525c <putchw+0xb0>
ffff00000000524c:	f94013a2 	ldr	x2, [x29,#32]
ffff000000005250:	3940dba1 	ldrb	w1, [x29,#54]
ffff000000005254:	f94017a0 	ldr	x0, [x29,#40]
ffff000000005258:	d63f0040 	blr	x2
ffff00000000525c:	f9400ba0 	ldr	x0, [x29,#16]
ffff000000005260:	91000401 	add	x1, x0, #0x1
ffff000000005264:	f9000ba1 	str	x1, [x29,#16]
ffff000000005268:	39400000 	ldrb	w0, [x0]
ffff00000000526c:	3900dba0 	strb	w0, [x29,#54]
ffff000000005270:	3940dba0 	ldrb	w0, [x29,#54]
ffff000000005274:	7100001f 	cmp	w0, #0x0
ffff000000005278:	54fffea1 	b.ne	ffff00000000524c <putchw+0xa0>
ffff00000000527c:	d503201f 	nop
ffff000000005280:	a8c47bfd 	ldp	x29, x30, [sp],#64
ffff000000005284:	d65f03c0 	ret

ffff000000005288 <tfp_format>:
ffff000000005288:	a9ba7bfd 	stp	x29, x30, [sp,#-96]!
ffff00000000528c:	910003fd 	mov	x29, sp
ffff000000005290:	f9000bf3 	str	x19, [sp,#16]
ffff000000005294:	f9001fa0 	str	x0, [x29,#56]
ffff000000005298:	f9001ba1 	str	x1, [x29,#48]
ffff00000000529c:	f90017a2 	str	x2, [x29,#40]
ffff0000000052a0:	aa0303f3 	mov	x19, x3
ffff0000000052a4:	140000fd 	b	ffff000000005698 <tfp_format+0x410>
ffff0000000052a8:	39417fa0 	ldrb	w0, [x29,#95]
ffff0000000052ac:	7100941f 	cmp	w0, #0x25
ffff0000000052b0:	540000c0 	b.eq	ffff0000000052c8 <tfp_format+0x40>
ffff0000000052b4:	f9401ba2 	ldr	x2, [x29,#48]
ffff0000000052b8:	39417fa1 	ldrb	w1, [x29,#95]
ffff0000000052bc:	f9401fa0 	ldr	x0, [x29,#56]
ffff0000000052c0:	d63f0040 	blr	x2
ffff0000000052c4:	140000f5 	b	ffff000000005698 <tfp_format+0x410>
ffff0000000052c8:	39017bbf 	strb	wzr, [x29,#94]
ffff0000000052cc:	b9004fbf 	str	wzr, [x29,#76]
ffff0000000052d0:	f94017a0 	ldr	x0, [x29,#40]
ffff0000000052d4:	91000401 	add	x1, x0, #0x1
ffff0000000052d8:	f90017a1 	str	x1, [x29,#40]
ffff0000000052dc:	39400000 	ldrb	w0, [x0]
ffff0000000052e0:	39017fa0 	strb	w0, [x29,#95]
ffff0000000052e4:	39417fa0 	ldrb	w0, [x29,#95]
ffff0000000052e8:	7100c01f 	cmp	w0, #0x30
ffff0000000052ec:	54000101 	b.ne	ffff00000000530c <tfp_format+0x84>
ffff0000000052f0:	f94017a0 	ldr	x0, [x29,#40]
ffff0000000052f4:	91000401 	add	x1, x0, #0x1
ffff0000000052f8:	f90017a1 	str	x1, [x29,#40]
ffff0000000052fc:	39400000 	ldrb	w0, [x0]
ffff000000005300:	39017fa0 	strb	w0, [x29,#95]
ffff000000005304:	52800020 	mov	w0, #0x1                   	// #1
ffff000000005308:	39017ba0 	strb	w0, [x29,#94]
ffff00000000530c:	39417fa0 	ldrb	w0, [x29,#95]
ffff000000005310:	7100bc1f 	cmp	w0, #0x2f
ffff000000005314:	54000189 	b.ls	ffff000000005344 <tfp_format+0xbc>
ffff000000005318:	39417fa0 	ldrb	w0, [x29,#95]
ffff00000000531c:	7100e41f 	cmp	w0, #0x39
ffff000000005320:	54000128 	b.hi	ffff000000005344 <tfp_format+0xbc>
ffff000000005324:	910133a1 	add	x1, x29, #0x4c
ffff000000005328:	9100a3a0 	add	x0, x29, #0x28
ffff00000000532c:	aa0103e3 	mov	x3, x1
ffff000000005330:	52800142 	mov	w2, #0xa                   	// #10
ffff000000005334:	aa0003e1 	mov	x1, x0
ffff000000005338:	39417fa0 	ldrb	w0, [x29,#95]
ffff00000000533c:	97ffff71 	bl	ffff000000005100 <a2i>
ffff000000005340:	39017fa0 	strb	w0, [x29,#95]
ffff000000005344:	39417fa0 	ldrb	w0, [x29,#95]
ffff000000005348:	71018c1f 	cmp	w0, #0x63
ffff00000000534c:	540011c0 	b.eq	ffff000000005584 <tfp_format+0x2fc>
ffff000000005350:	71018c1f 	cmp	w0, #0x63
ffff000000005354:	5400010c 	b.gt	ffff000000005374 <tfp_format+0xec>
ffff000000005358:	7100941f 	cmp	w0, #0x25
ffff00000000535c:	54001940 	b.eq	ffff000000005684 <tfp_format+0x3fc>
ffff000000005360:	7101601f 	cmp	w0, #0x58
ffff000000005364:	54000b60 	b.eq	ffff0000000054d0 <tfp_format+0x248>
ffff000000005368:	7100001f 	cmp	w0, #0x0
ffff00000000536c:	54001a80 	b.eq	ffff0000000056bc <tfp_format+0x434>
ffff000000005370:	140000c9 	b	ffff000000005694 <tfp_format+0x40c>
ffff000000005374:	7101cc1f 	cmp	w0, #0x73
ffff000000005378:	54001440 	b.eq	ffff000000005600 <tfp_format+0x378>
ffff00000000537c:	7101cc1f 	cmp	w0, #0x73
ffff000000005380:	5400008c 	b.gt	ffff000000005390 <tfp_format+0x108>
ffff000000005384:	7101901f 	cmp	w0, #0x64
ffff000000005388:	540005c0 	b.eq	ffff000000005440 <tfp_format+0x1b8>
ffff00000000538c:	140000c2 	b	ffff000000005694 <tfp_format+0x40c>
ffff000000005390:	7101d41f 	cmp	w0, #0x75
ffff000000005394:	54000080 	b.eq	ffff0000000053a4 <tfp_format+0x11c>
ffff000000005398:	7101e01f 	cmp	w0, #0x78
ffff00000000539c:	540009a0 	b.eq	ffff0000000054d0 <tfp_format+0x248>
ffff0000000053a0:	140000bd 	b	ffff000000005694 <tfp_format+0x40c>
ffff0000000053a4:	b9401a60 	ldr	w0, [x19,#24]
ffff0000000053a8:	f9400261 	ldr	x1, [x19]
ffff0000000053ac:	7100001f 	cmp	w0, #0x0
ffff0000000053b0:	540000eb 	b.lt	ffff0000000053cc <tfp_format+0x144>
ffff0000000053b4:	aa0103e0 	mov	x0, x1
ffff0000000053b8:	91002c00 	add	x0, x0, #0xb
ffff0000000053bc:	927df000 	and	x0, x0, #0xfffffffffffffff8
ffff0000000053c0:	f9000260 	str	x0, [x19]
ffff0000000053c4:	aa0103e0 	mov	x0, x1
ffff0000000053c8:	1400000f 	b	ffff000000005404 <tfp_format+0x17c>
ffff0000000053cc:	11002002 	add	w2, w0, #0x8
ffff0000000053d0:	b9001a62 	str	w2, [x19,#24]
ffff0000000053d4:	b9401a62 	ldr	w2, [x19,#24]
ffff0000000053d8:	7100005f 	cmp	w2, #0x0
ffff0000000053dc:	540000ed 	b.le	ffff0000000053f8 <tfp_format+0x170>
ffff0000000053e0:	aa0103e0 	mov	x0, x1
ffff0000000053e4:	91002c00 	add	x0, x0, #0xb
ffff0000000053e8:	927df000 	and	x0, x0, #0xfffffffffffffff8
ffff0000000053ec:	f9000260 	str	x0, [x19]
ffff0000000053f0:	aa0103e0 	mov	x0, x1
ffff0000000053f4:	14000004 	b	ffff000000005404 <tfp_format+0x17c>
ffff0000000053f8:	f9400661 	ldr	x1, [x19,#8]
ffff0000000053fc:	93407c00 	sxtw	x0, w0
ffff000000005400:	8b000020 	add	x0, x1, x0
ffff000000005404:	b9400000 	ldr	w0, [x0]
ffff000000005408:	910143a1 	add	x1, x29, #0x50
ffff00000000540c:	aa0103e3 	mov	x3, x1
ffff000000005410:	52800002 	mov	w2, #0x0                   	// #0
ffff000000005414:	52800141 	mov	w1, #0xa                   	// #10
ffff000000005418:	97fffeb9 	bl	ffff000000004efc <ui2a>
ffff00000000541c:	b9404fa0 	ldr	w0, [x29,#76]
ffff000000005420:	910143a1 	add	x1, x29, #0x50
ffff000000005424:	aa0103e4 	mov	x4, x1
ffff000000005428:	39417ba3 	ldrb	w3, [x29,#94]
ffff00000000542c:	2a0003e2 	mov	w2, w0
ffff000000005430:	f9401ba1 	ldr	x1, [x29,#48]
ffff000000005434:	f9401fa0 	ldr	x0, [x29,#56]
ffff000000005438:	97ffff5d 	bl	ffff0000000051ac <putchw>
ffff00000000543c:	14000097 	b	ffff000000005698 <tfp_format+0x410>
ffff000000005440:	b9401a60 	ldr	w0, [x19,#24]
ffff000000005444:	f9400261 	ldr	x1, [x19]
ffff000000005448:	7100001f 	cmp	w0, #0x0
ffff00000000544c:	540000eb 	b.lt	ffff000000005468 <tfp_format+0x1e0>
ffff000000005450:	aa0103e0 	mov	x0, x1
ffff000000005454:	91002c00 	add	x0, x0, #0xb
ffff000000005458:	927df000 	and	x0, x0, #0xfffffffffffffff8
ffff00000000545c:	f9000260 	str	x0, [x19]
ffff000000005460:	aa0103e0 	mov	x0, x1
ffff000000005464:	1400000f 	b	ffff0000000054a0 <tfp_format+0x218>
ffff000000005468:	11002002 	add	w2, w0, #0x8
ffff00000000546c:	b9001a62 	str	w2, [x19,#24]
ffff000000005470:	b9401a62 	ldr	w2, [x19,#24]
ffff000000005474:	7100005f 	cmp	w2, #0x0
ffff000000005478:	540000ed 	b.le	ffff000000005494 <tfp_format+0x20c>
ffff00000000547c:	aa0103e0 	mov	x0, x1
ffff000000005480:	91002c00 	add	x0, x0, #0xb
ffff000000005484:	927df000 	and	x0, x0, #0xfffffffffffffff8
ffff000000005488:	f9000260 	str	x0, [x19]
ffff00000000548c:	aa0103e0 	mov	x0, x1
ffff000000005490:	14000004 	b	ffff0000000054a0 <tfp_format+0x218>
ffff000000005494:	f9400661 	ldr	x1, [x19,#8]
ffff000000005498:	93407c00 	sxtw	x0, w0
ffff00000000549c:	8b000020 	add	x0, x1, x0
ffff0000000054a0:	b9400000 	ldr	w0, [x0]
ffff0000000054a4:	910143a1 	add	x1, x29, #0x50
ffff0000000054a8:	97fffedf 	bl	ffff000000005024 <i2a>
ffff0000000054ac:	b9404fa0 	ldr	w0, [x29,#76]
ffff0000000054b0:	910143a1 	add	x1, x29, #0x50
ffff0000000054b4:	aa0103e4 	mov	x4, x1
ffff0000000054b8:	39417ba3 	ldrb	w3, [x29,#94]
ffff0000000054bc:	2a0003e2 	mov	w2, w0
ffff0000000054c0:	f9401ba1 	ldr	x1, [x29,#48]
ffff0000000054c4:	f9401fa0 	ldr	x0, [x29,#56]
ffff0000000054c8:	97ffff39 	bl	ffff0000000051ac <putchw>
ffff0000000054cc:	14000073 	b	ffff000000005698 <tfp_format+0x410>
ffff0000000054d0:	b9401a60 	ldr	w0, [x19,#24]
ffff0000000054d4:	f9400261 	ldr	x1, [x19]
ffff0000000054d8:	7100001f 	cmp	w0, #0x0
ffff0000000054dc:	540000eb 	b.lt	ffff0000000054f8 <tfp_format+0x270>
ffff0000000054e0:	aa0103e0 	mov	x0, x1
ffff0000000054e4:	91002c00 	add	x0, x0, #0xb
ffff0000000054e8:	927df000 	and	x0, x0, #0xfffffffffffffff8
ffff0000000054ec:	f9000260 	str	x0, [x19]
ffff0000000054f0:	aa0103e0 	mov	x0, x1
ffff0000000054f4:	1400000f 	b	ffff000000005530 <tfp_format+0x2a8>
ffff0000000054f8:	11002002 	add	w2, w0, #0x8
ffff0000000054fc:	b9001a62 	str	w2, [x19,#24]
ffff000000005500:	b9401a62 	ldr	w2, [x19,#24]
ffff000000005504:	7100005f 	cmp	w2, #0x0
ffff000000005508:	540000ed 	b.le	ffff000000005524 <tfp_format+0x29c>
ffff00000000550c:	aa0103e0 	mov	x0, x1
ffff000000005510:	91002c00 	add	x0, x0, #0xb
ffff000000005514:	927df000 	and	x0, x0, #0xfffffffffffffff8
ffff000000005518:	f9000260 	str	x0, [x19]
ffff00000000551c:	aa0103e0 	mov	x0, x1
ffff000000005520:	14000004 	b	ffff000000005530 <tfp_format+0x2a8>
ffff000000005524:	f9400661 	ldr	x1, [x19,#8]
ffff000000005528:	93407c00 	sxtw	x0, w0
ffff00000000552c:	8b000020 	add	x0, x1, x0
ffff000000005530:	b9400004 	ldr	w4, [x0]
ffff000000005534:	39417fa0 	ldrb	w0, [x29,#95]
ffff000000005538:	7101601f 	cmp	w0, #0x58
ffff00000000553c:	1a9f17e0 	cset	w0, eq
ffff000000005540:	53001c00 	uxtb	w0, w0
ffff000000005544:	2a0003e1 	mov	w1, w0
ffff000000005548:	910143a0 	add	x0, x29, #0x50
ffff00000000554c:	aa0003e3 	mov	x3, x0
ffff000000005550:	2a0103e2 	mov	w2, w1
ffff000000005554:	52800201 	mov	w1, #0x10                  	// #16
ffff000000005558:	2a0403e0 	mov	w0, w4
ffff00000000555c:	97fffe68 	bl	ffff000000004efc <ui2a>
ffff000000005560:	b9404fa0 	ldr	w0, [x29,#76]
ffff000000005564:	910143a1 	add	x1, x29, #0x50
ffff000000005568:	aa0103e4 	mov	x4, x1
ffff00000000556c:	39417ba3 	ldrb	w3, [x29,#94]
ffff000000005570:	2a0003e2 	mov	w2, w0
ffff000000005574:	f9401ba1 	ldr	x1, [x29,#48]
ffff000000005578:	f9401fa0 	ldr	x0, [x29,#56]
ffff00000000557c:	97ffff0c 	bl	ffff0000000051ac <putchw>
ffff000000005580:	14000046 	b	ffff000000005698 <tfp_format+0x410>
ffff000000005584:	b9401a60 	ldr	w0, [x19,#24]
ffff000000005588:	f9400261 	ldr	x1, [x19]
ffff00000000558c:	7100001f 	cmp	w0, #0x0
ffff000000005590:	540000eb 	b.lt	ffff0000000055ac <tfp_format+0x324>
ffff000000005594:	aa0103e0 	mov	x0, x1
ffff000000005598:	91002c00 	add	x0, x0, #0xb
ffff00000000559c:	927df000 	and	x0, x0, #0xfffffffffffffff8
ffff0000000055a0:	f9000260 	str	x0, [x19]
ffff0000000055a4:	aa0103e0 	mov	x0, x1
ffff0000000055a8:	1400000f 	b	ffff0000000055e4 <tfp_format+0x35c>
ffff0000000055ac:	11002002 	add	w2, w0, #0x8
ffff0000000055b0:	b9001a62 	str	w2, [x19,#24]
ffff0000000055b4:	b9401a62 	ldr	w2, [x19,#24]
ffff0000000055b8:	7100005f 	cmp	w2, #0x0
ffff0000000055bc:	540000ed 	b.le	ffff0000000055d8 <tfp_format+0x350>
ffff0000000055c0:	aa0103e0 	mov	x0, x1
ffff0000000055c4:	91002c00 	add	x0, x0, #0xb
ffff0000000055c8:	927df000 	and	x0, x0, #0xfffffffffffffff8
ffff0000000055cc:	f9000260 	str	x0, [x19]
ffff0000000055d0:	aa0103e0 	mov	x0, x1
ffff0000000055d4:	14000004 	b	ffff0000000055e4 <tfp_format+0x35c>
ffff0000000055d8:	f9400661 	ldr	x1, [x19,#8]
ffff0000000055dc:	93407c00 	sxtw	x0, w0
ffff0000000055e0:	8b000020 	add	x0, x1, x0
ffff0000000055e4:	b9400000 	ldr	w0, [x0]
ffff0000000055e8:	53001c00 	uxtb	w0, w0
ffff0000000055ec:	f9401ba2 	ldr	x2, [x29,#48]
ffff0000000055f0:	2a0003e1 	mov	w1, w0
ffff0000000055f4:	f9401fa0 	ldr	x0, [x29,#56]
ffff0000000055f8:	d63f0040 	blr	x2
ffff0000000055fc:	14000027 	b	ffff000000005698 <tfp_format+0x410>
ffff000000005600:	b9404fa5 	ldr	w5, [x29,#76]
ffff000000005604:	b9401a60 	ldr	w0, [x19,#24]
ffff000000005608:	f9400261 	ldr	x1, [x19]
ffff00000000560c:	7100001f 	cmp	w0, #0x0
ffff000000005610:	540000eb 	b.lt	ffff00000000562c <tfp_format+0x3a4>
ffff000000005614:	aa0103e0 	mov	x0, x1
ffff000000005618:	91003c00 	add	x0, x0, #0xf
ffff00000000561c:	927df000 	and	x0, x0, #0xfffffffffffffff8
ffff000000005620:	f9000260 	str	x0, [x19]
ffff000000005624:	aa0103e0 	mov	x0, x1
ffff000000005628:	1400000f 	b	ffff000000005664 <tfp_format+0x3dc>
ffff00000000562c:	11002002 	add	w2, w0, #0x8
ffff000000005630:	b9001a62 	str	w2, [x19,#24]
ffff000000005634:	b9401a62 	ldr	w2, [x19,#24]
ffff000000005638:	7100005f 	cmp	w2, #0x0
ffff00000000563c:	540000ed 	b.le	ffff000000005658 <tfp_format+0x3d0>
ffff000000005640:	aa0103e0 	mov	x0, x1
ffff000000005644:	91003c00 	add	x0, x0, #0xf
ffff000000005648:	927df000 	and	x0, x0, #0xfffffffffffffff8
ffff00000000564c:	f9000260 	str	x0, [x19]
ffff000000005650:	aa0103e0 	mov	x0, x1
ffff000000005654:	14000004 	b	ffff000000005664 <tfp_format+0x3dc>
ffff000000005658:	f9400661 	ldr	x1, [x19,#8]
ffff00000000565c:	93407c00 	sxtw	x0, w0
ffff000000005660:	8b000020 	add	x0, x1, x0
ffff000000005664:	f9400000 	ldr	x0, [x0]
ffff000000005668:	aa0003e4 	mov	x4, x0
ffff00000000566c:	52800003 	mov	w3, #0x0                   	// #0
ffff000000005670:	2a0503e2 	mov	w2, w5
ffff000000005674:	f9401ba1 	ldr	x1, [x29,#48]
ffff000000005678:	f9401fa0 	ldr	x0, [x29,#56]
ffff00000000567c:	97fffecc 	bl	ffff0000000051ac <putchw>
ffff000000005680:	14000006 	b	ffff000000005698 <tfp_format+0x410>
ffff000000005684:	f9401ba2 	ldr	x2, [x29,#48]
ffff000000005688:	39417fa1 	ldrb	w1, [x29,#95]
ffff00000000568c:	f9401fa0 	ldr	x0, [x29,#56]
ffff000000005690:	d63f0040 	blr	x2
ffff000000005694:	d503201f 	nop
ffff000000005698:	f94017a0 	ldr	x0, [x29,#40]
ffff00000000569c:	91000401 	add	x1, x0, #0x1
ffff0000000056a0:	f90017a1 	str	x1, [x29,#40]
ffff0000000056a4:	39400000 	ldrb	w0, [x0]
ffff0000000056a8:	39017fa0 	strb	w0, [x29,#95]
ffff0000000056ac:	39417fa0 	ldrb	w0, [x29,#95]
ffff0000000056b0:	7100001f 	cmp	w0, #0x0
ffff0000000056b4:	54ffdfa1 	b.ne	ffff0000000052a8 <tfp_format+0x20>
ffff0000000056b8:	14000002 	b	ffff0000000056c0 <tfp_format+0x438>
ffff0000000056bc:	d503201f 	nop
ffff0000000056c0:	d503201f 	nop
ffff0000000056c4:	f9400bf3 	ldr	x19, [sp,#16]
ffff0000000056c8:	a8c67bfd 	ldp	x29, x30, [sp],#96
ffff0000000056cc:	d65f03c0 	ret

ffff0000000056d0 <init_printf>:
ffff0000000056d0:	d10043ff 	sub	sp, sp, #0x10
ffff0000000056d4:	f90007e0 	str	x0, [sp,#8]
ffff0000000056d8:	f90003e1 	str	x1, [sp]
ffff0000000056dc:	90000460 	adrp	x0, ffff000000091000 <mem_map+0x7d3d0>
ffff0000000056e0:	91116000 	add	x0, x0, #0x458
ffff0000000056e4:	f94003e1 	ldr	x1, [sp]
ffff0000000056e8:	f9000001 	str	x1, [x0]
ffff0000000056ec:	90000460 	adrp	x0, ffff000000091000 <mem_map+0x7d3d0>
ffff0000000056f0:	91118000 	add	x0, x0, #0x460
ffff0000000056f4:	f94007e1 	ldr	x1, [sp,#8]
ffff0000000056f8:	f9000001 	str	x1, [x0]
ffff0000000056fc:	d503201f 	nop
ffff000000005700:	910043ff 	add	sp, sp, #0x10
ffff000000005704:	d65f03c0 	ret

ffff000000005708 <tfp_printf>:
ffff000000005708:	a9b67bfd 	stp	x29, x30, [sp,#-160]!
ffff00000000570c:	910003fd 	mov	x29, sp
ffff000000005710:	f9001fa0 	str	x0, [x29,#56]
ffff000000005714:	f90037a1 	str	x1, [x29,#104]
ffff000000005718:	f9003ba2 	str	x2, [x29,#112]
ffff00000000571c:	f9003fa3 	str	x3, [x29,#120]
ffff000000005720:	f90043a4 	str	x4, [x29,#128]
ffff000000005724:	f90047a5 	str	x5, [x29,#136]
ffff000000005728:	f9004ba6 	str	x6, [x29,#144]
ffff00000000572c:	f9004fa7 	str	x7, [x29,#152]
ffff000000005730:	910283a0 	add	x0, x29, #0xa0
ffff000000005734:	f90023a0 	str	x0, [x29,#64]
ffff000000005738:	910283a0 	add	x0, x29, #0xa0
ffff00000000573c:	f90027a0 	str	x0, [x29,#72]
ffff000000005740:	910183a0 	add	x0, x29, #0x60
ffff000000005744:	f9002ba0 	str	x0, [x29,#80]
ffff000000005748:	128006e0 	mov	w0, #0xffffffc8            	// #-56
ffff00000000574c:	b9005ba0 	str	w0, [x29,#88]
ffff000000005750:	b9005fbf 	str	wzr, [x29,#92]
ffff000000005754:	90000460 	adrp	x0, ffff000000091000 <mem_map+0x7d3d0>
ffff000000005758:	91118000 	add	x0, x0, #0x460
ffff00000000575c:	f9400004 	ldr	x4, [x0]
ffff000000005760:	90000460 	adrp	x0, ffff000000091000 <mem_map+0x7d3d0>
ffff000000005764:	91116000 	add	x0, x0, #0x458
ffff000000005768:	f9400005 	ldr	x5, [x0]
ffff00000000576c:	910043a2 	add	x2, x29, #0x10
ffff000000005770:	910103a3 	add	x3, x29, #0x40
ffff000000005774:	a9400460 	ldp	x0, x1, [x3]
ffff000000005778:	a9000440 	stp	x0, x1, [x2]
ffff00000000577c:	a9410460 	ldp	x0, x1, [x3,#16]
ffff000000005780:	a9010440 	stp	x0, x1, [x2,#16]
ffff000000005784:	910043a0 	add	x0, x29, #0x10
ffff000000005788:	aa0003e3 	mov	x3, x0
ffff00000000578c:	f9401fa2 	ldr	x2, [x29,#56]
ffff000000005790:	aa0503e1 	mov	x1, x5
ffff000000005794:	aa0403e0 	mov	x0, x4
ffff000000005798:	97fffebc 	bl	ffff000000005288 <tfp_format>
ffff00000000579c:	d503201f 	nop
ffff0000000057a0:	a8ca7bfd 	ldp	x29, x30, [sp],#160
ffff0000000057a4:	d65f03c0 	ret

ffff0000000057a8 <putcp>:
ffff0000000057a8:	d10043ff 	sub	sp, sp, #0x10
ffff0000000057ac:	f90007e0 	str	x0, [sp,#8]
ffff0000000057b0:	39001fe1 	strb	w1, [sp,#7]
ffff0000000057b4:	f94007e0 	ldr	x0, [sp,#8]
ffff0000000057b8:	f9400000 	ldr	x0, [x0]
ffff0000000057bc:	91000402 	add	x2, x0, #0x1
ffff0000000057c0:	f94007e1 	ldr	x1, [sp,#8]
ffff0000000057c4:	f9000022 	str	x2, [x1]
ffff0000000057c8:	39401fe1 	ldrb	w1, [sp,#7]
ffff0000000057cc:	39000001 	strb	w1, [x0]
ffff0000000057d0:	d503201f 	nop
ffff0000000057d4:	910043ff 	add	sp, sp, #0x10
ffff0000000057d8:	d65f03c0 	ret

ffff0000000057dc <tfp_sprintf>:
ffff0000000057dc:	a9b77bfd 	stp	x29, x30, [sp,#-144]!
ffff0000000057e0:	910003fd 	mov	x29, sp
ffff0000000057e4:	f9001fa0 	str	x0, [x29,#56]
ffff0000000057e8:	f9001ba1 	str	x1, [x29,#48]
ffff0000000057ec:	f90033a2 	str	x2, [x29,#96]
ffff0000000057f0:	f90037a3 	str	x3, [x29,#104]
ffff0000000057f4:	f9003ba4 	str	x4, [x29,#112]
ffff0000000057f8:	f9003fa5 	str	x5, [x29,#120]
ffff0000000057fc:	f90043a6 	str	x6, [x29,#128]
ffff000000005800:	f90047a7 	str	x7, [x29,#136]
ffff000000005804:	910243a0 	add	x0, x29, #0x90
ffff000000005808:	f90023a0 	str	x0, [x29,#64]
ffff00000000580c:	910243a0 	add	x0, x29, #0x90
ffff000000005810:	f90027a0 	str	x0, [x29,#72]
ffff000000005814:	910183a0 	add	x0, x29, #0x60
ffff000000005818:	f9002ba0 	str	x0, [x29,#80]
ffff00000000581c:	128005e0 	mov	w0, #0xffffffd0            	// #-48
ffff000000005820:	b9005ba0 	str	w0, [x29,#88]
ffff000000005824:	b9005fbf 	str	wzr, [x29,#92]
ffff000000005828:	910043a2 	add	x2, x29, #0x10
ffff00000000582c:	910103a3 	add	x3, x29, #0x40
ffff000000005830:	a9400460 	ldp	x0, x1, [x3]
ffff000000005834:	a9000440 	stp	x0, x1, [x2]
ffff000000005838:	a9410460 	ldp	x0, x1, [x3,#16]
ffff00000000583c:	a9010440 	stp	x0, x1, [x2,#16]
ffff000000005840:	910043a2 	add	x2, x29, #0x10
ffff000000005844:	90000000 	adrp	x0, ffff000000005000 <ui2a+0x104>
ffff000000005848:	911ea001 	add	x1, x0, #0x7a8
ffff00000000584c:	9100e3a0 	add	x0, x29, #0x38
ffff000000005850:	aa0203e3 	mov	x3, x2
ffff000000005854:	f9401ba2 	ldr	x2, [x29,#48]
ffff000000005858:	97fffe8c 	bl	ffff000000005288 <tfp_format>
ffff00000000585c:	9100e3a0 	add	x0, x29, #0x38
ffff000000005860:	52800001 	mov	w1, #0x0                   	// #0
ffff000000005864:	97ffffd1 	bl	ffff0000000057a8 <putcp>
ffff000000005868:	d503201f 	nop
ffff00000000586c:	a8c97bfd 	ldp	x29, x30, [sp],#144
ffff000000005870:	d65f03c0 	ret

ffff000000005874 <asm_print>:
ffff000000005874:	a9be7bfd 	stp	x29, x30, [sp,#-32]!
ffff000000005878:	910003fd 	mov	x29, sp
ffff00000000587c:	b9001fa0 	str	w0, [x29,#28]
ffff000000005880:	b0000060 	adrp	x0, ffff000000012000 <sys_call_table+0x1c8>
ffff000000005884:	913b0000 	add	x0, x0, #0xec0
ffff000000005888:	f9400001 	ldr	x1, [x0]
ffff00000000588c:	90000060 	adrp	x0, ffff000000011000 <irq_invalid_el1t+0x14>
ffff000000005890:	91370000 	add	x0, x0, #0xdc0
ffff000000005894:	97ffff9d 	bl	ffff000000005708 <tfp_printf>
ffff000000005898:	90000060 	adrp	x0, ffff000000011000 <irq_invalid_el1t+0x14>
ffff00000000589c:	91374000 	add	x0, x0, #0xdd0
ffff0000000058a0:	b9401fa1 	ldr	w1, [x29,#28]
ffff0000000058a4:	97ffff99 	bl	ffff000000005708 <tfp_printf>
ffff0000000058a8:	d503201f 	nop
ffff0000000058ac:	a8c27bfd 	ldp	x29, x30, [sp],#32
ffff0000000058b0:	d65f03c0 	ret

ffff0000000058b4 <strcmp>:
ffff0000000058b4:	d10083ff 	sub	sp, sp, #0x20
ffff0000000058b8:	f90007e0 	str	x0, [sp,#8]
ffff0000000058bc:	f90003e1 	str	x1, [sp]
ffff0000000058c0:	b9001fff 	str	wzr, [sp,#28]
ffff0000000058c4:	14000010 	b	ffff000000005904 <strcmp+0x50>
ffff0000000058c8:	b9801fe0 	ldrsw	x0, [sp,#28]
ffff0000000058cc:	f94007e1 	ldr	x1, [sp,#8]
ffff0000000058d0:	8b000020 	add	x0, x1, x0
ffff0000000058d4:	39400001 	ldrb	w1, [x0]
ffff0000000058d8:	b9801fe0 	ldrsw	x0, [sp,#28]
ffff0000000058dc:	f94003e2 	ldr	x2, [sp]
ffff0000000058e0:	8b000040 	add	x0, x2, x0
ffff0000000058e4:	39400000 	ldrb	w0, [x0]
ffff0000000058e8:	6b00003f 	cmp	w1, w0
ffff0000000058ec:	54000060 	b.eq	ffff0000000058f8 <strcmp+0x44>
ffff0000000058f0:	52800020 	mov	w0, #0x1                   	// #1
ffff0000000058f4:	14000025 	b	ffff000000005988 <strcmp+0xd4>
ffff0000000058f8:	b9401fe0 	ldr	w0, [sp,#28]
ffff0000000058fc:	11000400 	add	w0, w0, #0x1
ffff000000005900:	b9001fe0 	str	w0, [sp,#28]
ffff000000005904:	b9801fe0 	ldrsw	x0, [sp,#28]
ffff000000005908:	f94007e1 	ldr	x1, [sp,#8]
ffff00000000590c:	8b000020 	add	x0, x1, x0
ffff000000005910:	39400000 	ldrb	w0, [x0]
ffff000000005914:	7100001f 	cmp	w0, #0x0
ffff000000005918:	540000e0 	b.eq	ffff000000005934 <strcmp+0x80>
ffff00000000591c:	b9801fe0 	ldrsw	x0, [sp,#28]
ffff000000005920:	f94007e1 	ldr	x1, [sp,#8]
ffff000000005924:	8b000020 	add	x0, x1, x0
ffff000000005928:	39400000 	ldrb	w0, [x0]
ffff00000000592c:	7100801f 	cmp	w0, #0x20
ffff000000005930:	54fffcc1 	b.ne	ffff0000000058c8 <strcmp+0x14>
ffff000000005934:	b9801fe0 	ldrsw	x0, [sp,#28]
ffff000000005938:	f94003e1 	ldr	x1, [sp]
ffff00000000593c:	8b000020 	add	x0, x1, x0
ffff000000005940:	39400000 	ldrb	w0, [x0]
ffff000000005944:	7100001f 	cmp	w0, #0x0
ffff000000005948:	540001e0 	b.eq	ffff000000005984 <strcmp+0xd0>
ffff00000000594c:	b9801fe0 	ldrsw	x0, [sp,#28]
ffff000000005950:	f94003e1 	ldr	x1, [sp]
ffff000000005954:	8b000020 	add	x0, x1, x0
ffff000000005958:	39400000 	ldrb	w0, [x0]
ffff00000000595c:	7100201f 	cmp	w0, #0x8
ffff000000005960:	54000120 	b.eq	ffff000000005984 <strcmp+0xd0>
ffff000000005964:	b9801fe0 	ldrsw	x0, [sp,#28]
ffff000000005968:	f94003e1 	ldr	x1, [sp]
ffff00000000596c:	8b000020 	add	x0, x1, x0
ffff000000005970:	39400000 	ldrb	w0, [x0]
ffff000000005974:	7100801f 	cmp	w0, #0x20
ffff000000005978:	54000060 	b.eq	ffff000000005984 <strcmp+0xd0>
ffff00000000597c:	52800020 	mov	w0, #0x1                   	// #1
ffff000000005980:	14000002 	b	ffff000000005988 <strcmp+0xd4>
ffff000000005984:	52800000 	mov	w0, #0x0                   	// #0
ffff000000005988:	910083ff 	add	sp, sp, #0x20
ffff00000000598c:	d65f03c0 	ret

ffff000000005990 <ipc_test>:
ffff000000005990:	a9bd7bfd 	stp	x29, x30, [sp,#-48]!
ffff000000005994:	910003fd 	mov	x29, sp
ffff000000005998:	90000060 	adrp	x0, ffff000000011000 <irq_invalid_el1t+0x14>
ffff00000000599c:	91378000 	add	x0, x0, #0xde0
ffff0000000059a0:	97ffff5a 	bl	ffff000000005708 <tfp_printf>
ffff0000000059a4:	910063a0 	add	x0, x29, #0x18
ffff0000000059a8:	aa0003e8 	mov	x8, x0
ffff0000000059ac:	52800020 	mov	w0, #0x1                   	// #1
ffff0000000059b0:	97fff83e 	bl	ffff000000003aa8 <recieve_msg>
ffff0000000059b4:	b9402ba1 	ldr	w1, [x29,#40]
ffff0000000059b8:	90000060 	adrp	x0, ffff000000011000 <irq_invalid_el1t+0x14>
ffff0000000059bc:	91384000 	add	x0, x0, #0xe10
ffff0000000059c0:	97ffff52 	bl	ffff000000005708 <tfp_printf>
ffff0000000059c4:	17fffff8 	b	ffff0000000059a4 <ipc_test+0x14>

ffff0000000059c8 <kservice_uart_write>:
ffff0000000059c8:	a9ba7bfd 	stp	x29, x30, [sp,#-96]!
ffff0000000059cc:	910003fd 	mov	x29, sp
ffff0000000059d0:	f9000fa0 	str	x0, [x29,#24]
ffff0000000059d4:	f90017a1 	str	x1, [x29,#40]
ffff0000000059d8:	f9001ba2 	str	x2, [x29,#48]
ffff0000000059dc:	f9001fa3 	str	x3, [x29,#56]
ffff0000000059e0:	f90023a4 	str	x4, [x29,#64]
ffff0000000059e4:	f90027a5 	str	x5, [x29,#72]
ffff0000000059e8:	f9002ba6 	str	x6, [x29,#80]
ffff0000000059ec:	f9002fa7 	str	x7, [x29,#88]
ffff0000000059f0:	f9400fa0 	ldr	x0, [x29,#24]
ffff0000000059f4:	97ffff45 	bl	ffff000000005708 <tfp_printf>
ffff0000000059f8:	d503201f 	nop
ffff0000000059fc:	a8c67bfd 	ldp	x29, x30, [sp],#96
ffff000000005a00:	d65f03c0 	ret

ffff000000005a04 <kservice_fork>:
ffff000000005a04:	a9bf7bfd 	stp	x29, x30, [sp,#-16]!
ffff000000005a08:	910003fd 	mov	x29, sp
ffff000000005a0c:	d2800003 	mov	x3, #0x0                   	// #0
ffff000000005a10:	d2800002 	mov	x2, #0x0                   	// #0
ffff000000005a14:	d2800001 	mov	x1, #0x0                   	// #0
ffff000000005a18:	d2800040 	mov	x0, #0x2                   	// #2
ffff000000005a1c:	940028dd 	bl	ffff00000000fd90 <copy_process>
ffff000000005a20:	a8c17bfd 	ldp	x29, x30, [sp],#16
ffff000000005a24:	d65f03c0 	ret

ffff000000005a28 <kservice_exit>:
ffff000000005a28:	a9be7bfd 	stp	x29, x30, [sp,#-32]!
ffff000000005a2c:	910003fd 	mov	x29, sp
ffff000000005a30:	f9000fa0 	str	x0, [x29,#24]
ffff000000005a34:	f9400fa0 	ldr	x0, [x29,#24]
ffff000000005a38:	97fffb25 	bl	ffff0000000046cc <_thread_exit>
ffff000000005a3c:	d503201f 	nop
ffff000000005a40:	a8c27bfd 	ldp	x29, x30, [sp],#32
ffff000000005a44:	d65f03c0 	ret

ffff000000005a48 <kservice_led_blink>:
ffff000000005a48:	d503201f 	nop
ffff000000005a4c:	d65f03c0 	ret

ffff000000005a50 <kservice_uart_read>:
ffff000000005a50:	a9bf7bfd 	stp	x29, x30, [sp,#-16]!
ffff000000005a54:	910003fd 	mov	x29, sp
ffff000000005a58:	940015db 	bl	ffff00000000b1c4 <uart_recv>
ffff000000005a5c:	53001c00 	uxtb	w0, w0
ffff000000005a60:	a8c17bfd 	ldp	x29, x30, [sp],#16
ffff000000005a64:	d65f03c0 	ret

ffff000000005a68 <kservice_create_thread>:
ffff000000005a68:	a9bd7bfd 	stp	x29, x30, [sp,#-48]!
ffff000000005a6c:	910003fd 	mov	x29, sp
ffff000000005a70:	f90017a0 	str	x0, [x29,#40]
ffff000000005a74:	f90013a1 	str	x1, [x29,#32]
ffff000000005a78:	f9000fa2 	str	x2, [x29,#24]
ffff000000005a7c:	f9000ba3 	str	x3, [x29,#16]
ffff000000005a80:	f9400ba3 	ldr	x3, [x29,#16]
ffff000000005a84:	f9400fa2 	ldr	x2, [x29,#24]
ffff000000005a88:	f94013a1 	ldr	x1, [x29,#32]
ffff000000005a8c:	f94017a0 	ldr	x0, [x29,#40]
ffff000000005a90:	97fffbff 	bl	ffff000000004a8c <_thread_create>
ffff000000005a94:	a8c37bfd 	ldp	x29, x30, [sp],#48
ffff000000005a98:	d65f03c0 	ret

ffff000000005a9c <kservice_thread_self>:
ffff000000005a9c:	a9bf7bfd 	stp	x29, x30, [sp,#-16]!
ffff000000005aa0:	910003fd 	mov	x29, sp
ffff000000005aa4:	97fffb76 	bl	ffff00000000487c <thread_id_self>
ffff000000005aa8:	a8c17bfd 	ldp	x29, x30, [sp],#16
ffff000000005aac:	d65f03c0 	ret

ffff000000005ab0 <kservice_thread_join>:
ffff000000005ab0:	a9be7bfd 	stp	x29, x30, [sp,#-32]!
ffff000000005ab4:	910003fd 	mov	x29, sp
ffff000000005ab8:	b9001fa0 	str	w0, [x29,#28]
ffff000000005abc:	f9000ba1 	str	x1, [x29,#16]
ffff000000005ac0:	f9400ba1 	ldr	x1, [x29,#16]
ffff000000005ac4:	b9401fa0 	ldr	w0, [x29,#28]
ffff000000005ac8:	97fffcca 	bl	ffff000000004df0 <_thread_join>
ffff000000005acc:	52800000 	mov	w0, #0x0                   	// #0
ffff000000005ad0:	a8c27bfd 	ldp	x29, x30, [sp],#32
ffff000000005ad4:	d65f03c0 	ret

ffff000000005ad8 <kservice_thread_exit>:
ffff000000005ad8:	d10043ff 	sub	sp, sp, #0x10
ffff000000005adc:	b9000fe0 	str	w0, [sp,#12]
ffff000000005ae0:	d503201f 	nop
ffff000000005ae4:	910043ff 	add	sp, sp, #0x10
ffff000000005ae8:	d65f03c0 	ret

ffff000000005aec <kservice_thread_signal>:
ffff000000005aec:	a9be7bfd 	stp	x29, x30, [sp,#-32]!
ffff000000005af0:	910003fd 	mov	x29, sp
ffff000000005af4:	b9001fa0 	str	w0, [x29,#28]
ffff000000005af8:	b9401fa0 	ldr	w0, [x29,#28]
ffff000000005afc:	97fffbb9 	bl	ffff0000000049e0 <_thread_cond_signal>
ffff000000005b00:	d503201f 	nop
ffff000000005b04:	a8c27bfd 	ldp	x29, x30, [sp],#32
ffff000000005b08:	d65f03c0 	ret

ffff000000005b0c <kservice_list_file>:
ffff000000005b0c:	a9bf7bfd 	stp	x29, x30, [sp,#-16]!
ffff000000005b10:	910003fd 	mov	x29, sp
ffff000000005b14:	940026bd 	bl	ffff00000000f608 <list>
ffff000000005b18:	d503201f 	nop
ffff000000005b1c:	a8c17bfd 	ldp	x29, x30, [sp],#16
ffff000000005b20:	d65f03c0 	ret

ffff000000005b24 <kservice_cd_folder>:
ffff000000005b24:	a9be7bfd 	stp	x29, x30, [sp,#-32]!
ffff000000005b28:	910003fd 	mov	x29, sp
ffff000000005b2c:	f9000fa0 	str	x0, [x29,#24]
ffff000000005b30:	f9400fa0 	ldr	x0, [x29,#24]
ffff000000005b34:	940029c4 	bl	ffff000000010244 <cd>
ffff000000005b38:	d503201f 	nop
ffff000000005b3c:	a8c27bfd 	ldp	x29, x30, [sp],#32
ffff000000005b40:	d65f03c0 	ret

ffff000000005b44 <kservice_dump_file>:
ffff000000005b44:	a9be7bfd 	stp	x29, x30, [sp,#-32]!
ffff000000005b48:	910003fd 	mov	x29, sp
ffff000000005b4c:	f9000fa0 	str	x0, [x29,#24]
ffff000000005b50:	f9400fa0 	ldr	x0, [x29,#24]
ffff000000005b54:	94002621 	bl	ffff00000000f3d8 <dump>
ffff000000005b58:	d503201f 	nop
ffff000000005b5c:	a8c27bfd 	ldp	x29, x30, [sp],#32
ffff000000005b60:	d65f03c0 	ret

ffff000000005b64 <kservice_root_file>:
ffff000000005b64:	a9be7bfd 	stp	x29, x30, [sp,#-32]!
ffff000000005b68:	910003fd 	mov	x29, sp
ffff000000005b6c:	f9000fa0 	str	x0, [x29,#24]
ffff000000005b70:	94002a9f 	bl	ffff0000000105ec <cd_root>
ffff000000005b74:	d503201f 	nop
ffff000000005b78:	a8c27bfd 	ldp	x29, x30, [sp],#32
ffff000000005b7c:	d65f03c0 	ret

ffff000000005b80 <kservice_run_file>:
ffff000000005b80:	a9be7bfd 	stp	x29, x30, [sp,#-32]!
ffff000000005b84:	910003fd 	mov	x29, sp
ffff000000005b88:	f9000fa0 	str	x0, [x29,#24]
ffff000000005b8c:	f9400fa0 	ldr	x0, [x29,#24]
ffff000000005b90:	940027df 	bl	ffff00000000fb0c <run_file>
ffff000000005b94:	d503201f 	nop
ffff000000005b98:	a8c27bfd 	ldp	x29, x30, [sp],#32
ffff000000005b9c:	d65f03c0 	ret

ffff000000005ba0 <kservice_send_msg>:
ffff000000005ba0:	a9be7bfd 	stp	x29, x30, [sp,#-32]!
ffff000000005ba4:	910003fd 	mov	x29, sp
ffff000000005ba8:	b9001fa0 	str	w0, [x29,#28]
ffff000000005bac:	b9001ba1 	str	w1, [x29,#24]
ffff000000005bb0:	b90017a2 	str	w2, [x29,#20]
ffff000000005bb4:	90000460 	adrp	x0, ffff000000091000 <mem_map+0x7d3d0>
ffff000000005bb8:	9111a000 	add	x0, x0, #0x468
ffff000000005bbc:	b9400002 	ldr	w2, [x0]
ffff000000005bc0:	f00004a0 	adrp	x0, ffff00000009c000 <task+0x18>
ffff000000005bc4:	91098001 	add	x1, x0, #0x260
ffff000000005bc8:	93407c42 	sxtw	x2, w2
ffff000000005bcc:	d2800300 	mov	x0, #0x18                  	// #24
ffff000000005bd0:	9b007c40 	mul	x0, x2, x0
ffff000000005bd4:	8b000020 	add	x0, x1, x0
ffff000000005bd8:	91001000 	add	x0, x0, #0x4
ffff000000005bdc:	b9401ba1 	ldr	w1, [x29,#24]
ffff000000005be0:	b9000001 	str	w1, [x0]
ffff000000005be4:	90000460 	adrp	x0, ffff000000091000 <mem_map+0x7d3d0>
ffff000000005be8:	9111a000 	add	x0, x0, #0x468
ffff000000005bec:	b9400003 	ldr	w3, [x0]
ffff000000005bf0:	b0000060 	adrp	x0, ffff000000012000 <sys_call_table+0x1c8>
ffff000000005bf4:	913b0000 	add	x0, x0, #0xec0
ffff000000005bf8:	f9400001 	ldr	x1, [x0]
ffff000000005bfc:	f00004a0 	adrp	x0, ffff00000009c000 <task+0x18>
ffff000000005c00:	91098002 	add	x2, x0, #0x260
ffff000000005c04:	93407c63 	sxtw	x3, w3
ffff000000005c08:	d2800300 	mov	x0, #0x18                  	// #24
ffff000000005c0c:	9b007c60 	mul	x0, x3, x0
ffff000000005c10:	8b000040 	add	x0, x2, x0
ffff000000005c14:	91002000 	add	x0, x0, #0x8
ffff000000005c18:	f9000001 	str	x1, [x0]
ffff000000005c1c:	90000460 	adrp	x0, ffff000000091000 <mem_map+0x7d3d0>
ffff000000005c20:	9111a000 	add	x0, x0, #0x468
ffff000000005c24:	b9400002 	ldr	w2, [x0]
ffff000000005c28:	f00004a0 	adrp	x0, ffff00000009c000 <task+0x18>
ffff000000005c2c:	91098001 	add	x1, x0, #0x260
ffff000000005c30:	93407c42 	sxtw	x2, w2
ffff000000005c34:	d2800300 	mov	x0, #0x18                  	// #24
ffff000000005c38:	9b007c40 	mul	x0, x2, x0
ffff000000005c3c:	8b000020 	add	x0, x1, x0
ffff000000005c40:	91004000 	add	x0, x0, #0x10
ffff000000005c44:	b94017a1 	ldr	w1, [x29,#20]
ffff000000005c48:	b9000001 	str	w1, [x0]
ffff000000005c4c:	90000460 	adrp	x0, ffff000000091000 <mem_map+0x7d3d0>
ffff000000005c50:	9111a000 	add	x0, x0, #0x468
ffff000000005c54:	b9400000 	ldr	w0, [x0]
ffff000000005c58:	11000402 	add	w2, w0, #0x1
ffff000000005c5c:	90000461 	adrp	x1, ffff000000091000 <mem_map+0x7d3d0>
ffff000000005c60:	9111a021 	add	x1, x1, #0x468
ffff000000005c64:	b9000022 	str	w2, [x1]
ffff000000005c68:	f00004a1 	adrp	x1, ffff00000009c000 <task+0x18>
ffff000000005c6c:	91098021 	add	x1, x1, #0x260
ffff000000005c70:	93407c02 	sxtw	x2, w0
ffff000000005c74:	d2800300 	mov	x0, #0x18                  	// #24
ffff000000005c78:	9b007c40 	mul	x0, x2, x0
ffff000000005c7c:	8b000020 	add	x0, x1, x0
ffff000000005c80:	b9401fa1 	ldr	w1, [x29,#28]
ffff000000005c84:	b9000001 	str	w1, [x0]
ffff000000005c88:	90000460 	adrp	x0, ffff000000091000 <mem_map+0x7d3d0>
ffff000000005c8c:	9111a000 	add	x0, x0, #0x468
ffff000000005c90:	b9400000 	ldr	w0, [x0]
ffff000000005c94:	7101001f 	cmp	w0, #0x40
ffff000000005c98:	54000081 	b.ne	ffff000000005ca8 <kservice_send_msg+0x108>
ffff000000005c9c:	90000460 	adrp	x0, ffff000000091000 <mem_map+0x7d3d0>
ffff000000005ca0:	9111a000 	add	x0, x0, #0x468
ffff000000005ca4:	b900001f 	str	wzr, [x0]
ffff000000005ca8:	97fff76f 	bl	ffff000000003a64 <accept_reply>
ffff000000005cac:	d503201f 	nop
ffff000000005cb0:	a8c27bfd 	ldp	x29, x30, [sp],#32
ffff000000005cb4:	d65f03c0 	ret

ffff000000005cb8 <kservice_recieve_msg>:
ffff000000005cb8:	a9bd7bfd 	stp	x29, x30, [sp,#-48]!
ffff000000005cbc:	910003fd 	mov	x29, sp
ffff000000005cc0:	f9000bf3 	str	x19, [sp,#16]
ffff000000005cc4:	aa0803f3 	mov	x19, x8
ffff000000005cc8:	b9002fa0 	str	w0, [x29,#44]
ffff000000005ccc:	aa1303e8 	mov	x8, x19
ffff000000005cd0:	b9402fa0 	ldr	w0, [x29,#44]
ffff000000005cd4:	97fff775 	bl	ffff000000003aa8 <recieve_msg>
ffff000000005cd8:	aa1303e0 	mov	x0, x19
ffff000000005cdc:	f9400bf3 	ldr	x19, [sp,#16]
ffff000000005ce0:	a8c37bfd 	ldp	x29, x30, [sp],#48
ffff000000005ce4:	d65f03c0 	ret

ffff000000005ce8 <kservice_mutex_trylock>:
ffff000000005ce8:	a9be7bfd 	stp	x29, x30, [sp,#-32]!
ffff000000005cec:	910003fd 	mov	x29, sp
ffff000000005cf0:	f9000fa0 	str	x0, [x29,#24]
ffff000000005cf4:	f9400fa0 	ldr	x0, [x29,#24]
ffff000000005cf8:	97fffb47 	bl	ffff000000004a14 <_thread_mutex_trylock>
ffff000000005cfc:	d503201f 	nop
ffff000000005d00:	a8c27bfd 	ldp	x29, x30, [sp],#32
ffff000000005d04:	d65f03c0 	ret

ffff000000005d08 <kservice_mutex_lock>:
ffff000000005d08:	a9be7bfd 	stp	x29, x30, [sp,#-32]!
ffff000000005d0c:	910003fd 	mov	x29, sp
ffff000000005d10:	f9000fa0 	str	x0, [x29,#24]
ffff000000005d14:	f9400fa0 	ldr	x0, [x29,#24]
ffff000000005d18:	97fffa8e 	bl	ffff000000004750 <_thread_mutex_lock>
ffff000000005d1c:	d503201f 	nop
ffff000000005d20:	a8c27bfd 	ldp	x29, x30, [sp],#32
ffff000000005d24:	d65f03c0 	ret

ffff000000005d28 <kservice_mutex_unlock>:
ffff000000005d28:	a9be7bfd 	stp	x29, x30, [sp,#-32]!
ffff000000005d2c:	910003fd 	mov	x29, sp
ffff000000005d30:	f9000fa0 	str	x0, [x29,#24]
ffff000000005d34:	f9400fa0 	ldr	x0, [x29,#24]
ffff000000005d38:	97fffafb 	bl	ffff000000004924 <_thread_mutex_unlock>
ffff000000005d3c:	d503201f 	nop
ffff000000005d40:	a8c27bfd 	ldp	x29, x30, [sp],#32
ffff000000005d44:	d65f03c0 	ret

ffff000000005d48 <kservice_com_file>:
ffff000000005d48:	a9be7bfd 	stp	x29, x30, [sp,#-32]!
ffff000000005d4c:	910003fd 	mov	x29, sp
ffff000000005d50:	f9000fa0 	str	x0, [x29,#24]
ffff000000005d54:	f9400fa0 	ldr	x0, [x29,#24]
ffff000000005d58:	94001be9 	bl	ffff00000000ccfc <compt_file>
ffff000000005d5c:	d503201f 	nop
ffff000000005d60:	a8c27bfd 	ldp	x29, x30, [sp],#32
ffff000000005d64:	d65f03c0 	ret

ffff000000005d68 <kservice_allocate_upage>:
ffff000000005d68:	a9bf7bfd 	stp	x29, x30, [sp,#-16]!
ffff000000005d6c:	910003fd 	mov	x29, sp
ffff000000005d70:	b0000060 	adrp	x0, ffff000000012000 <sys_call_table+0x1c8>
ffff000000005d74:	913b0000 	add	x0, x0, #0xec0
ffff000000005d78:	f9400000 	ldr	x0, [x0]
ffff000000005d7c:	f9400000 	ldr	x0, [x0]
ffff000000005d80:	d2800001 	mov	x1, #0x0                   	// #0
ffff000000005d84:	97fff8ad 	bl	ffff000000004038 <allocate_user_page>
ffff000000005d88:	a8c17bfd 	ldp	x29, x30, [sp],#16
ffff000000005d8c:	d65f03c0 	ret

ffff000000005d90 <kservice_free_page>:
ffff000000005d90:	a9be7bfd 	stp	x29, x30, [sp,#-32]!
ffff000000005d94:	910003fd 	mov	x29, sp
ffff000000005d98:	f9000fa0 	str	x0, [x29,#24]
ffff000000005d9c:	f9400fa0 	ldr	x0, [x29,#24]
ffff000000005da0:	97fff914 	bl	ffff0000000041f0 <free_page>
ffff000000005da4:	d503201f 	nop
ffff000000005da8:	a8c27bfd 	ldp	x29, x30, [sp],#32
ffff000000005dac:	d65f03c0 	ret

ffff000000005db0 <kservice_rm_compt>:
ffff000000005db0:	a9be7bfd 	stp	x29, x30, [sp,#-32]!
ffff000000005db4:	910003fd 	mov	x29, sp
ffff000000005db8:	f9000fa0 	str	x0, [x29,#24]
ffff000000005dbc:	f9400fa0 	ldr	x0, [x29,#24]
ffff000000005dc0:	94001f1f 	bl	ffff00000000da3c <rm_compt_file>
ffff000000005dc4:	d503201f 	nop
ffff000000005dc8:	a8c27bfd 	ldp	x29, x30, [sp],#32
ffff000000005dcc:	d65f03c0 	ret

ffff000000005dd0 <kservice_allocate_kpage>:
ffff000000005dd0:	a9be7bfd 	stp	x29, x30, [sp,#-32]!
ffff000000005dd4:	910003fd 	mov	x29, sp
ffff000000005dd8:	b9001fa0 	str	w0, [x29,#28]
ffff000000005ddc:	b9401fa0 	ldr	w0, [x29,#28]
ffff000000005de0:	97fff83b 	bl	ffff000000003ecc <allocate_kernel_page>
ffff000000005de4:	a8c27bfd 	ldp	x29, x30, [sp],#32
ffff000000005de8:	d65f03c0 	ret

ffff000000005dec <kservice_schedule>:
ffff000000005dec:	a9bf7bfd 	stp	x29, x30, [sp,#-16]!
ffff000000005df0:	910003fd 	mov	x29, sp
ffff000000005df4:	97fff51a 	bl	ffff00000000325c <schedule>
ffff000000005df8:	d503201f 	nop
ffff000000005dfc:	a8c17bfd 	ldp	x29, x30, [sp],#16
ffff000000005e00:	d65f03c0 	ret

ffff000000005e04 <kservice_reg_compt>:
ffff000000005e04:	a9be7bfd 	stp	x29, x30, [sp,#-32]!
ffff000000005e08:	910003fd 	mov	x29, sp
ffff000000005e0c:	f9000fa0 	str	x0, [x29,#24]
ffff000000005e10:	f9400fa0 	ldr	x0, [x29,#24]
ffff000000005e14:	94001fda 	bl	ffff00000000dd7c <reg_compt>
ffff000000005e18:	a8c27bfd 	ldp	x29, x30, [sp],#32
ffff000000005e1c:	d65f03c0 	ret

ffff000000005e20 <kservice_unreg_compt>:
ffff000000005e20:	a9be7bfd 	stp	x29, x30, [sp,#-32]!
ffff000000005e24:	910003fd 	mov	x29, sp
ffff000000005e28:	f9000fa0 	str	x0, [x29,#24]
ffff000000005e2c:	f9400fa0 	ldr	x0, [x29,#24]
ffff000000005e30:	94001f95 	bl	ffff00000000dc84 <unreg_compt>
ffff000000005e34:	a8c27bfd 	ldp	x29, x30, [sp],#32
ffff000000005e38:	d65f03c0 	ret

ffff000000005e3c <kservice_ls_dev>:
ffff000000005e3c:	a9bf7bfd 	stp	x29, x30, [sp,#-16]!
ffff000000005e40:	910003fd 	mov	x29, sp
ffff000000005e44:	94001b3d 	bl	ffff00000000cb38 <ls_dev>
ffff000000005e48:	d503201f 	nop
ffff000000005e4c:	a8c17bfd 	ldp	x29, x30, [sp],#16
ffff000000005e50:	d65f03c0 	ret

ffff000000005e54 <kservice_ls_compt>:
ffff000000005e54:	a9bf7bfd 	stp	x29, x30, [sp,#-16]!
ffff000000005e58:	910003fd 	mov	x29, sp
ffff000000005e5c:	9400243f 	bl	ffff00000000ef58 <ls_compt>
ffff000000005e60:	d503201f 	nop
ffff000000005e64:	a8c17bfd 	ldp	x29, x30, [sp],#16
ffff000000005e68:	d65f03c0 	ret

ffff000000005e6c <kservice_dev_read>:
ffff000000005e6c:	a9bd7bfd 	stp	x29, x30, [sp,#-48]!
ffff000000005e70:	910003fd 	mov	x29, sp
ffff000000005e74:	b9002fa0 	str	w0, [x29,#44]
ffff000000005e78:	b9002ba1 	str	w1, [x29,#40]
ffff000000005e7c:	f90013a2 	str	x2, [x29,#32]
ffff000000005e80:	b9001fa3 	str	w3, [x29,#28]
ffff000000005e84:	b9402fa0 	ldr	w0, [x29,#44]
ffff000000005e88:	7100041f 	cmp	w0, #0x1
ffff000000005e8c:	540000c1 	b.ne	ffff000000005ea4 <kservice_dev_read+0x38>
ffff000000005e90:	b9401fa2 	ldr	w2, [x29,#28]
ffff000000005e94:	f94013a1 	ldr	x1, [x29,#32]
ffff000000005e98:	b9402ba0 	ldr	w0, [x29,#40]
ffff000000005e9c:	9400178e 	bl	ffff00000000bcd4 <sd_readblock>
ffff000000005ea0:	14000002 	b	ffff000000005ea8 <kservice_dev_read+0x3c>
ffff000000005ea4:	52800000 	mov	w0, #0x0                   	// #0
ffff000000005ea8:	a8c37bfd 	ldp	x29, x30, [sp],#48
ffff000000005eac:	d65f03c0 	ret

ffff000000005eb0 <kservice_dir_interface>:
ffff000000005eb0:	a9be7bfd 	stp	x29, x30, [sp,#-32]!
ffff000000005eb4:	910003fd 	mov	x29, sp
ffff000000005eb8:	f9000fa0 	str	x0, [x29,#24]
ffff000000005ebc:	f9400fa0 	ldr	x0, [x29,#24]
ffff000000005ec0:	97fff24c 	bl	ffff0000000027f0 <fat_listdirectory>
ffff000000005ec4:	d503201f 	nop
ffff000000005ec8:	a8c27bfd 	ldp	x29, x30, [sp],#32
ffff000000005ecc:	d65f03c0 	ret

ffff000000005ed0 <kservice_end>:
ffff000000005ed0:	b00004e0 	adrp	x0, ffff0000000a2000 <_end>
ffff000000005ed4:	91000000 	add	x0, x0, #0x0
ffff000000005ed8:	d65f03c0 	ret

ffff000000005edc <kernel_process>:
ffff000000005edc:	a9bd7bfd 	stp	x29, x30, [sp,#-48]!
ffff000000005ee0:	910003fd 	mov	x29, sp
ffff000000005ee4:	90ffffe0 	adrp	x0, ffff000000001000 <invalid>
ffff000000005ee8:	91000000 	add	x0, x0, #0x0
ffff000000005eec:	f90017a0 	str	x0, [x29,#40]
ffff000000005ef0:	90ffffe0 	adrp	x0, ffff000000001000 <invalid>
ffff000000005ef4:	91315000 	add	x0, x0, #0xc54
ffff000000005ef8:	f90013a0 	str	x0, [x29,#32]
ffff000000005efc:	90ffffe0 	adrp	x0, ffff000000001000 <invalid>
ffff000000005f00:	9100a000 	add	x0, x0, #0x28
ffff000000005f04:	f9000fa0 	str	x0, [x29,#24]
ffff000000005f08:	f94013a1 	ldr	x1, [x29,#32]
ffff000000005f0c:	f94017a0 	ldr	x0, [x29,#40]
ffff000000005f10:	cb000023 	sub	x3, x1, x0
ffff000000005f14:	f9400fa1 	ldr	x1, [x29,#24]
ffff000000005f18:	f94017a0 	ldr	x0, [x29,#40]
ffff000000005f1c:	cb000020 	sub	x0, x1, x0
ffff000000005f20:	aa0003e2 	mov	x2, x0
ffff000000005f24:	aa0303e1 	mov	x1, x3
ffff000000005f28:	f94017a0 	ldr	x0, [x29,#40]
ffff000000005f2c:	94002890 	bl	ffff00000001016c <move_to_user_mode>
ffff000000005f30:	aa0003e1 	mov	x1, x0
ffff000000005f34:	f00004a0 	adrp	x0, ffff00000009c000 <task+0x18>
ffff000000005f38:	9121a000 	add	x0, x0, #0x868
ffff000000005f3c:	f9000001 	str	x1, [x0]
ffff000000005f40:	d503201f 	nop
ffff000000005f44:	a8c37bfd 	ldp	x29, x30, [sp],#48
ffff000000005f48:	d65f03c0 	ret

ffff000000005f4c <mod_process>:
ffff000000005f4c:	a9bd7bfd 	stp	x29, x30, [sp,#-48]!
ffff000000005f50:	910003fd 	mov	x29, sp
ffff000000005f54:	f9000fa0 	str	x0, [x29,#24]
ffff000000005f58:	f9000ba1 	str	x1, [x29,#16]
ffff000000005f5c:	94002e77 	bl	ffff000000011938 <get_el>
ffff000000005f60:	aa0003e1 	mov	x1, x0
ffff000000005f64:	90000060 	adrp	x0, ffff000000011000 <irq_invalid_el1t+0x14>
ffff000000005f68:	913ce000 	add	x0, x0, #0xf38
ffff000000005f6c:	97fffde7 	bl	ffff000000005708 <tfp_printf>
ffff000000005f70:	f9400fa0 	ldr	x0, [x29,#24]
ffff000000005f74:	d2800002 	mov	x2, #0x0                   	// #0
ffff000000005f78:	f9400ba1 	ldr	x1, [x29,#16]
ffff000000005f7c:	9400287c 	bl	ffff00000001016c <move_to_user_mode>
ffff000000005f80:	f90017a0 	str	x0, [x29,#40]
ffff000000005f84:	d503201f 	nop
ffff000000005f88:	a8c37bfd 	ldp	x29, x30, [sp],#48
ffff000000005f8c:	d65f03c0 	ret

ffff000000005f90 <kernel_main>:
ffff000000005f90:	a9be7bfd 	stp	x29, x30, [sp,#-32]!
ffff000000005f94:	910003fd 	mov	x29, sp
ffff000000005f98:	940014b3 	bl	ffff00000000b264 <uart_init>
ffff000000005f9c:	d0000020 	adrp	x0, ffff00000000b000 <sdInitCard+0x28c>
ffff000000005fa0:	9118b000 	add	x0, x0, #0x62c
ffff000000005fa4:	aa0003e1 	mov	x1, x0
ffff000000005fa8:	d2800000 	mov	x0, #0x0                   	// #0
ffff000000005fac:	97fffdc9 	bl	ffff0000000056d0 <init_printf>
ffff000000005fb0:	940029d0 	bl	ffff0000000106f0 <irq_vector_init>
ffff000000005fb4:	940018c0 	bl	ffff00000000c2b4 <sd_init>
ffff000000005fb8:	7100001f 	cmp	w0, #0x0
ffff000000005fbc:	540000e1 	b.ne	ffff000000005fd8 <kernel_main+0x48>
ffff000000005fc0:	97fff137 	bl	ffff00000000249c <fat_getpartition>
ffff000000005fc4:	7100001f 	cmp	w0, #0x0
ffff000000005fc8:	54000081 	b.ne	ffff000000005fd8 <kernel_main+0x48>
ffff000000005fcc:	90000060 	adrp	x0, ffff000000011000 <irq_invalid_el1t+0x14>
ffff000000005fd0:	913d8000 	add	x0, x0, #0xf60
ffff000000005fd4:	94001515 	bl	ffff00000000b428 <uart_puts>
ffff000000005fd8:	97ffe810 	bl	ffff000000000018 <enable_cache>
ffff000000005fdc:	d0ffffe0 	adrp	x0, ffff000000003000 <preempt_enable+0x2c>
ffff000000005fe0:	91147000 	add	x0, x0, #0x51c
ffff000000005fe4:	d2800003 	mov	x3, #0x0                   	// #0
ffff000000005fe8:	d2800002 	mov	x2, #0x0                   	// #0
ffff000000005fec:	aa0003e1 	mov	x1, x0
ffff000000005ff0:	d2800000 	mov	x0, #0x0                   	// #0
ffff000000005ff4:	94002767 	bl	ffff00000000fd90 <copy_process>
ffff000000005ff8:	b9001fa0 	str	w0, [x29,#28]
ffff000000005ffc:	b9401fa0 	ldr	w0, [x29,#28]
ffff000000006000:	7100001f 	cmp	w0, #0x0
ffff000000006004:	540000aa 	b.ge	ffff000000006018 <kernel_main+0x88>
ffff000000006008:	f0000040 	adrp	x0, ffff000000011000 <irq_invalid_el1t+0x14>
ffff00000000600c:	913e0000 	add	x0, x0, #0xf80
ffff000000006010:	97fffdbe 	bl	ffff000000005708 <tfp_printf>
ffff000000006014:	14000024 	b	ffff0000000060a4 <kernel_main+0x114>
ffff000000006018:	90ffffe0 	adrp	x0, ffff000000002000 <fat32_getcluster>
ffff00000000601c:	910e2000 	add	x0, x0, #0x388
ffff000000006020:	d2800003 	mov	x3, #0x0                   	// #0
ffff000000006024:	d2800002 	mov	x2, #0x0                   	// #0
ffff000000006028:	aa0003e1 	mov	x1, x0
ffff00000000602c:	d2800000 	mov	x0, #0x0                   	// #0
ffff000000006030:	94002758 	bl	ffff00000000fd90 <copy_process>
ffff000000006034:	b9001fa0 	str	w0, [x29,#28]
ffff000000006038:	b9401fa0 	ldr	w0, [x29,#28]
ffff00000000603c:	7100001f 	cmp	w0, #0x0
ffff000000006040:	540000aa 	b.ge	ffff000000006054 <kernel_main+0xc4>
ffff000000006044:	f0000040 	adrp	x0, ffff000000011000 <irq_invalid_el1t+0x14>
ffff000000006048:	913e0000 	add	x0, x0, #0xf80
ffff00000000604c:	97fffdaf 	bl	ffff000000005708 <tfp_printf>
ffff000000006050:	14000015 	b	ffff0000000060a4 <kernel_main+0x114>
ffff000000006054:	f0ffffe0 	adrp	x0, ffff000000005000 <ui2a+0x104>
ffff000000006058:	913b7000 	add	x0, x0, #0xedc
ffff00000000605c:	d2800003 	mov	x3, #0x0                   	// #0
ffff000000006060:	d2800002 	mov	x2, #0x0                   	// #0
ffff000000006064:	aa0003e1 	mov	x1, x0
ffff000000006068:	d2800020 	mov	x0, #0x1                   	// #1
ffff00000000606c:	94002749 	bl	ffff00000000fd90 <copy_process>
ffff000000006070:	b9001fa0 	str	w0, [x29,#28]
ffff000000006074:	b9401fa0 	ldr	w0, [x29,#28]
ffff000000006078:	7100001f 	cmp	w0, #0x0
ffff00000000607c:	540000aa 	b.ge	ffff000000006090 <kernel_main+0x100>
ffff000000006080:	f0000040 	adrp	x0, ffff000000011000 <irq_invalid_el1t+0x14>
ffff000000006084:	913ea000 	add	x0, x0, #0xfa8
ffff000000006088:	97fffda0 	bl	ffff000000005708 <tfp_printf>
ffff00000000608c:	14000006 	b	ffff0000000060a4 <kernel_main+0x114>
ffff000000006090:	97fff71c 	bl	ffff000000003d00 <timer_init>
ffff000000006094:	97fff38f 	bl	ffff000000002ed0 <enable_interrupt_controller>
ffff000000006098:	94002999 	bl	ffff0000000106fc <enable_irq>
ffff00000000609c:	97fff470 	bl	ffff00000000325c <schedule>
ffff0000000060a0:	17ffffff 	b	ffff00000000609c <kernel_main+0x10c>
ffff0000000060a4:	a8c27bfd 	ldp	x29, x30, [sp],#32
ffff0000000060a8:	d65f03c0 	ret

ffff0000000060ac <strchr>:
ffff0000000060ac:	d10083ff 	sub	sp, sp, #0x20
ffff0000000060b0:	f90007e0 	str	x0, [sp,#8]
ffff0000000060b4:	b90007e1 	str	w1, [sp,#4]
ffff0000000060b8:	b9001fff 	str	wzr, [sp,#28]
ffff0000000060bc:	1400000a 	b	ffff0000000060e4 <strchr+0x38>
ffff0000000060c0:	b9801fe0 	ldrsw	x0, [sp,#28]
ffff0000000060c4:	f94007e1 	ldr	x1, [sp,#8]
ffff0000000060c8:	8b000020 	add	x0, x1, x0
ffff0000000060cc:	39400000 	ldrb	w0, [x0]
ffff0000000060d0:	7100001f 	cmp	w0, #0x0
ffff0000000060d4:	540001a0 	b.eq	ffff000000006108 <strchr+0x5c>
ffff0000000060d8:	b9401fe0 	ldr	w0, [sp,#28]
ffff0000000060dc:	11000400 	add	w0, w0, #0x1
ffff0000000060e0:	b9001fe0 	str	w0, [sp,#28]
ffff0000000060e4:	b9801fe0 	ldrsw	x0, [sp,#28]
ffff0000000060e8:	f94007e1 	ldr	x1, [sp,#8]
ffff0000000060ec:	8b000020 	add	x0, x1, x0
ffff0000000060f0:	39400000 	ldrb	w0, [x0]
ffff0000000060f4:	2a0003e1 	mov	w1, w0
ffff0000000060f8:	b94007e0 	ldr	w0, [sp,#4]
ffff0000000060fc:	6b00003f 	cmp	w1, w0
ffff000000006100:	54fffe01 	b.ne	ffff0000000060c0 <strchr+0x14>
ffff000000006104:	14000002 	b	ffff00000000610c <strchr+0x60>
ffff000000006108:	d503201f 	nop
ffff00000000610c:	b9801fe0 	ldrsw	x0, [sp,#28]
ffff000000006110:	f94007e1 	ldr	x1, [sp,#8]
ffff000000006114:	8b000020 	add	x0, x1, x0
ffff000000006118:	910083ff 	add	sp, sp, #0x20
ffff00000000611c:	d65f03c0 	ret

ffff000000006120 <toupper>:
ffff000000006120:	d10043ff 	sub	sp, sp, #0x10
ffff000000006124:	b9000fe0 	str	w0, [sp,#12]
ffff000000006128:	b9400fe0 	ldr	w0, [sp,#12]
ffff00000000612c:	7101841f 	cmp	w0, #0x61
ffff000000006130:	540000ed 	b.le	ffff00000000614c <toupper+0x2c>
ffff000000006134:	b9400fe0 	ldr	w0, [sp,#12]
ffff000000006138:	7101e41f 	cmp	w0, #0x79
ffff00000000613c:	5400008c 	b.gt	ffff00000000614c <toupper+0x2c>
ffff000000006140:	b9400fe0 	ldr	w0, [sp,#12]
ffff000000006144:	51008000 	sub	w0, w0, #0x20
ffff000000006148:	14000002 	b	ffff000000006150 <toupper+0x30>
ffff00000000614c:	b9400fe0 	ldr	w0, [sp,#12]
ffff000000006150:	910043ff 	add	sp, sp, #0x10
ffff000000006154:	d65f03c0 	ret

ffff000000006158 <wctob>:
ffff000000006158:	d10043ff 	sub	sp, sp, #0x10
ffff00000000615c:	79001fe0 	strh	w0, [sp,#14]
ffff000000006160:	79401fe0 	ldrh	w0, [sp,#14]
ffff000000006164:	7101fc1f 	cmp	w0, #0x7f
ffff000000006168:	54000068 	b.hi	ffff000000006174 <wctob+0x1c>
ffff00000000616c:	79401fe0 	ldrh	w0, [sp,#14]
ffff000000006170:	14000002 	b	ffff000000006178 <wctob+0x20>
ffff000000006174:	52800000 	mov	w0, #0x0                   	// #0
ffff000000006178:	910043ff 	add	sp, sp, #0x10
ffff00000000617c:	d65f03c0 	ret

ffff000000006180 <sdDebugResponse>:
ffff000000006180:	a9be7bfd 	stp	x29, x30, [sp,#-32]!
ffff000000006184:	910003fd 	mov	x29, sp
ffff000000006188:	b9001fa0 	str	w0, [x29,#28]
ffff00000000618c:	d2800480 	mov	x0, #0x24                  	// #36
ffff000000006190:	f2a7e600 	movk	x0, #0x3f30, lsl #16
ffff000000006194:	f2ffffe0 	movk	x0, #0xffff, lsl #48
ffff000000006198:	b9400001 	ldr	w1, [x0]
ffff00000000619c:	d2800580 	mov	x0, #0x2c                  	// #44
ffff0000000061a0:	f2a7e600 	movk	x0, #0x3f30, lsl #16
ffff0000000061a4:	f2ffffe0 	movk	x0, #0xffff, lsl #48
ffff0000000061a8:	b9400002 	ldr	w2, [x0]
ffff0000000061ac:	d2800600 	mov	x0, #0x30                  	// #48
ffff0000000061b0:	f2a7e600 	movk	x0, #0x3f30, lsl #16
ffff0000000061b4:	f2ffffe0 	movk	x0, #0xffff, lsl #48
ffff0000000061b8:	b9400003 	ldr	w3, [x0]
ffff0000000061bc:	f0000040 	adrp	x0, ffff000000011000 <irq_invalid_el1t+0x14>
ffff0000000061c0:	913f4000 	add	x0, x0, #0xfd0
ffff0000000061c4:	97fffd51 	bl	ffff000000005708 <tfp_printf>
ffff0000000061c8:	f0000440 	adrp	x0, ffff000000091000 <mem_map+0x7d3d0>
ffff0000000061cc:	9111e000 	add	x0, x0, #0x478
ffff0000000061d0:	f9402400 	ldr	x0, [x0,#72]
ffff0000000061d4:	aa0003e7 	mov	x7, x0
ffff0000000061d8:	b9401fa1 	ldr	w1, [x29,#28]
ffff0000000061dc:	d2800380 	mov	x0, #0x1c                  	// #28
ffff0000000061e0:	f2a7e600 	movk	x0, #0x3f30, lsl #16
ffff0000000061e4:	f2ffffe0 	movk	x0, #0xffff, lsl #48
ffff0000000061e8:	b9400002 	ldr	w2, [x0]
ffff0000000061ec:	d2800300 	mov	x0, #0x18                  	// #24
ffff0000000061f0:	f2a7e600 	movk	x0, #0x3f30, lsl #16
ffff0000000061f4:	f2ffffe0 	movk	x0, #0xffff, lsl #48
ffff0000000061f8:	b9400003 	ldr	w3, [x0]
ffff0000000061fc:	d2800280 	mov	x0, #0x14                  	// #20
ffff000000006200:	f2a7e600 	movk	x0, #0x3f30, lsl #16
ffff000000006204:	f2ffffe0 	movk	x0, #0xffff, lsl #48
ffff000000006208:	b9400004 	ldr	w4, [x0]
ffff00000000620c:	d2800200 	mov	x0, #0x10                  	// #16
ffff000000006210:	f2a7e600 	movk	x0, #0x3f30, lsl #16
ffff000000006214:	f2ffffe0 	movk	x0, #0xffff, lsl #48
ffff000000006218:	b9400005 	ldr	w5, [x0]
ffff00000000621c:	90000060 	adrp	x0, ffff000000012000 <sys_call_table+0x1c8>
ffff000000006220:	91002000 	add	x0, x0, #0x8
ffff000000006224:	2a0503e6 	mov	w6, w5
ffff000000006228:	2a0403e5 	mov	w5, w4
ffff00000000622c:	2a0303e4 	mov	w4, w3
ffff000000006230:	2a0203e3 	mov	w3, w2
ffff000000006234:	2a0103e2 	mov	w2, w1
ffff000000006238:	aa0703e1 	mov	x1, x7
ffff00000000623c:	97fffd33 	bl	ffff000000005708 <tfp_printf>
ffff000000006240:	b9401fa0 	ldr	w0, [x29,#28]
ffff000000006244:	a8c27bfd 	ldp	x29, x30, [sp],#32
ffff000000006248:	d65f03c0 	ret

ffff00000000624c <sdWaitForInterrupt>:
ffff00000000624c:	a9bc7bfd 	stp	x29, x30, [sp,#-64]!
ffff000000006250:	910003fd 	mov	x29, sp
ffff000000006254:	b9001fa0 	str	w0, [x29,#28]
ffff000000006258:	f9001fbf 	str	xzr, [x29,#56]
ffff00000000625c:	f9001bbf 	str	xzr, [x29,#48]
ffff000000006260:	b9401fa1 	ldr	w1, [x29,#28]
ffff000000006264:	52900000 	mov	w0, #0x8000                	// #32768
ffff000000006268:	72a02fc0 	movk	w0, #0x17e, lsl #16
ffff00000000626c:	2a000020 	orr	w0, w1, w0
ffff000000006270:	b9002fa0 	str	w0, [x29,#44]
ffff000000006274:	1400000c 	b	ffff0000000062a4 <sdWaitForInterrupt+0x58>
ffff000000006278:	f9401ba0 	ldr	x0, [x29,#48]
ffff00000000627c:	f100001f 	cmp	x0, #0x0
ffff000000006280:	54000081 	b.ne	ffff000000006290 <sdWaitForInterrupt+0x44>
ffff000000006284:	97fff6d9 	bl	ffff000000003de8 <get_system_timer>
ffff000000006288:	f9001ba0 	str	x0, [x29,#48]
ffff00000000628c:	14000006 	b	ffff0000000062a4 <sdWaitForInterrupt+0x58>
ffff000000006290:	97fff6d6 	bl	ffff000000003de8 <get_system_timer>
ffff000000006294:	aa0003e1 	mov	x1, x0
ffff000000006298:	f9401ba0 	ldr	x0, [x29,#48]
ffff00000000629c:	cb000020 	sub	x0, x1, x0
ffff0000000062a0:	f9001fa0 	str	x0, [x29,#56]
ffff0000000062a4:	d2800600 	mov	x0, #0x30                  	// #48
ffff0000000062a8:	f2a7e600 	movk	x0, #0x3f30, lsl #16
ffff0000000062ac:	f2ffffe0 	movk	x0, #0xffff, lsl #48
ffff0000000062b0:	b9400001 	ldr	w1, [x0]
ffff0000000062b4:	b9402fa0 	ldr	w0, [x29,#44]
ffff0000000062b8:	0a000020 	and	w0, w1, w0
ffff0000000062bc:	7100001f 	cmp	w0, #0x0
ffff0000000062c0:	540000c1 	b.ne	ffff0000000062d8 <sdWaitForInterrupt+0x8c>
ffff0000000062c4:	f9401fa1 	ldr	x1, [x29,#56]
ffff0000000062c8:	d28847e0 	mov	x0, #0x423f                	// #16959
ffff0000000062cc:	f2a001e0 	movk	x0, #0xf, lsl #16
ffff0000000062d0:	eb00003f 	cmp	x1, x0
ffff0000000062d4:	54fffd29 	b.ls	ffff000000006278 <sdWaitForInterrupt+0x2c>
ffff0000000062d8:	d2800600 	mov	x0, #0x30                  	// #48
ffff0000000062dc:	f2a7e600 	movk	x0, #0x3f30, lsl #16
ffff0000000062e0:	f2ffffe0 	movk	x0, #0xffff, lsl #48
ffff0000000062e4:	b9400000 	ldr	w0, [x0]
ffff0000000062e8:	b9002ba0 	str	w0, [x29,#40]
ffff0000000062ec:	f9401fa1 	ldr	x1, [x29,#56]
ffff0000000062f0:	d28847e0 	mov	x0, #0x423f                	// #16959
ffff0000000062f4:	f2a001e0 	movk	x0, #0xf, lsl #16
ffff0000000062f8:	eb00003f 	cmp	x1, x0
ffff0000000062fc:	54000128 	b.hi	ffff000000006320 <sdWaitForInterrupt+0xd4>
ffff000000006300:	b9402ba0 	ldr	w0, [x29,#40]
ffff000000006304:	12100000 	and	w0, w0, #0x10000
ffff000000006308:	7100001f 	cmp	w0, #0x0
ffff00000000630c:	540000a1 	b.ne	ffff000000006320 <sdWaitForInterrupt+0xd4>
ffff000000006310:	b9402ba0 	ldr	w0, [x29,#40]
ffff000000006314:	120c0000 	and	w0, w0, #0x100000
ffff000000006318:	7100001f 	cmp	w0, #0x0
ffff00000000631c:	540003e0 	b.eq	ffff000000006398 <sdWaitForInterrupt+0x14c>
ffff000000006320:	f0000440 	adrp	x0, ffff000000091000 <mem_map+0x7d3d0>
ffff000000006324:	9111c000 	add	x0, x0, #0x470
ffff000000006328:	f9400000 	ldr	x0, [x0]
ffff00000000632c:	f100001f 	cmp	x0, #0x0
ffff000000006330:	54000260 	b.eq	ffff00000000637c <sdWaitForInterrupt+0x130>
ffff000000006334:	f0000440 	adrp	x0, ffff000000091000 <mem_map+0x7d3d0>
ffff000000006338:	9111c000 	add	x0, x0, #0x470
ffff00000000633c:	f9400005 	ldr	x5, [x0]
ffff000000006340:	d2800480 	mov	x0, #0x24                  	// #36
ffff000000006344:	f2a7e600 	movk	x0, #0x3f30, lsl #16
ffff000000006348:	f2ffffe0 	movk	x0, #0xffff, lsl #48
ffff00000000634c:	b9400001 	ldr	w1, [x0]
ffff000000006350:	d2800200 	mov	x0, #0x10                  	// #16
ffff000000006354:	f2a7e600 	movk	x0, #0x3f30, lsl #16
ffff000000006358:	f2ffffe0 	movk	x0, #0xffff, lsl #48
ffff00000000635c:	b9400002 	ldr	w2, [x0]
ffff000000006360:	90000060 	adrp	x0, ffff000000012000 <sys_call_table+0x1c8>
ffff000000006364:	91010000 	add	x0, x0, #0x40
ffff000000006368:	2a0203e4 	mov	w4, w2
ffff00000000636c:	b9402ba3 	ldr	w3, [x29,#40]
ffff000000006370:	2a0103e2 	mov	w2, w1
ffff000000006374:	b9401fa1 	ldr	w1, [x29,#28]
ffff000000006378:	d63f00a0 	blr	x5
ffff00000000637c:	d2800600 	mov	x0, #0x30                  	// #48
ffff000000006380:	f2a7e600 	movk	x0, #0x3f30, lsl #16
ffff000000006384:	f2ffffe0 	movk	x0, #0xffff, lsl #48
ffff000000006388:	b9402ba1 	ldr	w1, [x29,#40]
ffff00000000638c:	b9000001 	str	w1, [x0]
ffff000000006390:	52800040 	mov	w0, #0x2                   	// #2
ffff000000006394:	14000029 	b	ffff000000006438 <sdWaitForInterrupt+0x1ec>
ffff000000006398:	b9402ba1 	ldr	w1, [x29,#40]
ffff00000000639c:	52900000 	mov	w0, #0x8000                	// #32768
ffff0000000063a0:	72a02fc0 	movk	w0, #0x17e, lsl #16
ffff0000000063a4:	0a000020 	and	w0, w1, w0
ffff0000000063a8:	7100001f 	cmp	w0, #0x0
ffff0000000063ac:	540003a0 	b.eq	ffff000000006420 <sdWaitForInterrupt+0x1d4>
ffff0000000063b0:	f0000440 	adrp	x0, ffff000000091000 <mem_map+0x7d3d0>
ffff0000000063b4:	9111c000 	add	x0, x0, #0x470
ffff0000000063b8:	f9400000 	ldr	x0, [x0]
ffff0000000063bc:	f100001f 	cmp	x0, #0x0
ffff0000000063c0:	54000220 	b.eq	ffff000000006404 <sdWaitForInterrupt+0x1b8>
ffff0000000063c4:	f0000440 	adrp	x0, ffff000000091000 <mem_map+0x7d3d0>
ffff0000000063c8:	9111c000 	add	x0, x0, #0x470
ffff0000000063cc:	f9400004 	ldr	x4, [x0]
ffff0000000063d0:	d2800480 	mov	x0, #0x24                  	// #36
ffff0000000063d4:	f2a7e600 	movk	x0, #0x3f30, lsl #16
ffff0000000063d8:	f2ffffe0 	movk	x0, #0xffff, lsl #48
ffff0000000063dc:	b9400001 	ldr	w1, [x0]
ffff0000000063e0:	d2800200 	mov	x0, #0x10                  	// #16
ffff0000000063e4:	f2a7e600 	movk	x0, #0x3f30, lsl #16
ffff0000000063e8:	f2ffffe0 	movk	x0, #0xffff, lsl #48
ffff0000000063ec:	b9400002 	ldr	w2, [x0]
ffff0000000063f0:	90000060 	adrp	x0, ffff000000012000 <sys_call_table+0x1c8>
ffff0000000063f4:	9101e000 	add	x0, x0, #0x78
ffff0000000063f8:	2a0203e3 	mov	w3, w2
ffff0000000063fc:	b9402ba2 	ldr	w2, [x29,#40]
ffff000000006400:	d63f0080 	blr	x4
ffff000000006404:	d2800600 	mov	x0, #0x30                  	// #48
ffff000000006408:	f2a7e600 	movk	x0, #0x3f30, lsl #16
ffff00000000640c:	f2ffffe0 	movk	x0, #0xffff, lsl #48
ffff000000006410:	b9402ba1 	ldr	w1, [x29,#40]
ffff000000006414:	b9000001 	str	w1, [x0]
ffff000000006418:	52800020 	mov	w0, #0x1                   	// #1
ffff00000000641c:	14000007 	b	ffff000000006438 <sdWaitForInterrupt+0x1ec>
ffff000000006420:	d2800600 	mov	x0, #0x30                  	// #48
ffff000000006424:	f2a7e600 	movk	x0, #0x3f30, lsl #16
ffff000000006428:	f2ffffe0 	movk	x0, #0xffff, lsl #48
ffff00000000642c:	b9401fa1 	ldr	w1, [x29,#28]
ffff000000006430:	b9000001 	str	w1, [x0]
ffff000000006434:	52800000 	mov	w0, #0x0                   	// #0
ffff000000006438:	a8c47bfd 	ldp	x29, x30, [sp],#64
ffff00000000643c:	d65f03c0 	ret

ffff000000006440 <sdWaitForCommand>:
ffff000000006440:	a9be7bfd 	stp	x29, x30, [sp,#-32]!
ffff000000006444:	910003fd 	mov	x29, sp
ffff000000006448:	f9000fbf 	str	xzr, [x29,#24]
ffff00000000644c:	f9000bbf 	str	xzr, [x29,#16]
ffff000000006450:	1400000c 	b	ffff000000006480 <sdWaitForCommand+0x40>
ffff000000006454:	f9400ba0 	ldr	x0, [x29,#16]
ffff000000006458:	f100001f 	cmp	x0, #0x0
ffff00000000645c:	54000081 	b.ne	ffff00000000646c <sdWaitForCommand+0x2c>
ffff000000006460:	97fff662 	bl	ffff000000003de8 <get_system_timer>
ffff000000006464:	f9000ba0 	str	x0, [x29,#16]
ffff000000006468:	14000006 	b	ffff000000006480 <sdWaitForCommand+0x40>
ffff00000000646c:	97fff65f 	bl	ffff000000003de8 <get_system_timer>
ffff000000006470:	aa0003e1 	mov	x1, x0
ffff000000006474:	f9400ba0 	ldr	x0, [x29,#16]
ffff000000006478:	cb000020 	sub	x0, x1, x0
ffff00000000647c:	f9000fa0 	str	x0, [x29,#24]
ffff000000006480:	d2800480 	mov	x0, #0x24                  	// #36
ffff000000006484:	f2a7e600 	movk	x0, #0x3f30, lsl #16
ffff000000006488:	f2ffffe0 	movk	x0, #0xffff, lsl #48
ffff00000000648c:	b9400000 	ldr	w0, [x0]
ffff000000006490:	d3400000 	ubfx	x0, x0, #0, #1
ffff000000006494:	53001c00 	uxtb	w0, w0
ffff000000006498:	7100001f 	cmp	w0, #0x0
ffff00000000649c:	540001e0 	b.eq	ffff0000000064d8 <sdWaitForCommand+0x98>
ffff0000000064a0:	d2800600 	mov	x0, #0x30                  	// #48
ffff0000000064a4:	f2a7e600 	movk	x0, #0x3f30, lsl #16
ffff0000000064a8:	f2ffffe0 	movk	x0, #0xffff, lsl #48
ffff0000000064ac:	b9400001 	ldr	w1, [x0]
ffff0000000064b0:	52900000 	mov	w0, #0x8000                	// #32768
ffff0000000064b4:	72a02fc0 	movk	w0, #0x17e, lsl #16
ffff0000000064b8:	0a000020 	and	w0, w1, w0
ffff0000000064bc:	7100001f 	cmp	w0, #0x0
ffff0000000064c0:	540000c1 	b.ne	ffff0000000064d8 <sdWaitForCommand+0x98>
ffff0000000064c4:	f9400fa1 	ldr	x1, [x29,#24]
ffff0000000064c8:	d28847e0 	mov	x0, #0x423f                	// #16959
ffff0000000064cc:	f2a001e0 	movk	x0, #0xf, lsl #16
ffff0000000064d0:	eb00003f 	cmp	x1, x0
ffff0000000064d4:	54fffc09 	b.ls	ffff000000006454 <sdWaitForCommand+0x14>
ffff0000000064d8:	f9400fa1 	ldr	x1, [x29,#24]
ffff0000000064dc:	d28847e0 	mov	x0, #0x423f                	// #16959
ffff0000000064e0:	f2a001e0 	movk	x0, #0xf, lsl #16
ffff0000000064e4:	eb00003f 	cmp	x1, x0
ffff0000000064e8:	54000148 	b.hi	ffff000000006510 <sdWaitForCommand+0xd0>
ffff0000000064ec:	d2800600 	mov	x0, #0x30                  	// #48
ffff0000000064f0:	f2a7e600 	movk	x0, #0x3f30, lsl #16
ffff0000000064f4:	f2ffffe0 	movk	x0, #0xffff, lsl #48
ffff0000000064f8:	b9400001 	ldr	w1, [x0]
ffff0000000064fc:	52900000 	mov	w0, #0x8000                	// #32768
ffff000000006500:	72a02fc0 	movk	w0, #0x17e, lsl #16
ffff000000006504:	0a000020 	and	w0, w1, w0
ffff000000006508:	7100001f 	cmp	w0, #0x0
ffff00000000650c:	54000340 	b.eq	ffff000000006574 <sdWaitForCommand+0x134>
ffff000000006510:	f0000440 	adrp	x0, ffff000000091000 <mem_map+0x7d3d0>
ffff000000006514:	9111c000 	add	x0, x0, #0x470
ffff000000006518:	f9400000 	ldr	x0, [x0]
ffff00000000651c:	f100001f 	cmp	x0, #0x0
ffff000000006520:	54000260 	b.eq	ffff00000000656c <sdWaitForCommand+0x12c>
ffff000000006524:	f0000440 	adrp	x0, ffff000000091000 <mem_map+0x7d3d0>
ffff000000006528:	9111c000 	add	x0, x0, #0x470
ffff00000000652c:	f9400004 	ldr	x4, [x0]
ffff000000006530:	d2800480 	mov	x0, #0x24                  	// #36
ffff000000006534:	f2a7e600 	movk	x0, #0x3f30, lsl #16
ffff000000006538:	f2ffffe0 	movk	x0, #0xffff, lsl #48
ffff00000000653c:	b9400001 	ldr	w1, [x0]
ffff000000006540:	d2800600 	mov	x0, #0x30                  	// #48
ffff000000006544:	f2a7e600 	movk	x0, #0x3f30, lsl #16
ffff000000006548:	f2ffffe0 	movk	x0, #0xffff, lsl #48
ffff00000000654c:	b9400002 	ldr	w2, [x0]
ffff000000006550:	d2800200 	mov	x0, #0x10                  	// #16
ffff000000006554:	f2a7e600 	movk	x0, #0x3f30, lsl #16
ffff000000006558:	f2ffffe0 	movk	x0, #0xffff, lsl #48
ffff00000000655c:	b9400003 	ldr	w3, [x0]
ffff000000006560:	90000060 	adrp	x0, ffff000000012000 <sys_call_table+0x1c8>
ffff000000006564:	9102c000 	add	x0, x0, #0xb0
ffff000000006568:	d63f0080 	blr	x4
ffff00000000656c:	52800060 	mov	w0, #0x3                   	// #3
ffff000000006570:	14000002 	b	ffff000000006578 <sdWaitForCommand+0x138>
ffff000000006574:	52800000 	mov	w0, #0x0                   	// #0
ffff000000006578:	a8c27bfd 	ldp	x29, x30, [sp],#32
ffff00000000657c:	d65f03c0 	ret

ffff000000006580 <sdWaitForData>:
ffff000000006580:	a9be7bfd 	stp	x29, x30, [sp,#-32]!
ffff000000006584:	910003fd 	mov	x29, sp
ffff000000006588:	f9000fbf 	str	xzr, [x29,#24]
ffff00000000658c:	f9000bbf 	str	xzr, [x29,#16]
ffff000000006590:	1400000c 	b	ffff0000000065c0 <sdWaitForData+0x40>
ffff000000006594:	f9400ba0 	ldr	x0, [x29,#16]
ffff000000006598:	f100001f 	cmp	x0, #0x0
ffff00000000659c:	54000081 	b.ne	ffff0000000065ac <sdWaitForData+0x2c>
ffff0000000065a0:	97fff612 	bl	ffff000000003de8 <get_system_timer>
ffff0000000065a4:	f9000ba0 	str	x0, [x29,#16]
ffff0000000065a8:	14000006 	b	ffff0000000065c0 <sdWaitForData+0x40>
ffff0000000065ac:	97fff60f 	bl	ffff000000003de8 <get_system_timer>
ffff0000000065b0:	aa0003e1 	mov	x1, x0
ffff0000000065b4:	f9400ba0 	ldr	x0, [x29,#16]
ffff0000000065b8:	cb000020 	sub	x0, x1, x0
ffff0000000065bc:	f9000fa0 	str	x0, [x29,#24]
ffff0000000065c0:	d2800480 	mov	x0, #0x24                  	// #36
ffff0000000065c4:	f2a7e600 	movk	x0, #0x3f30, lsl #16
ffff0000000065c8:	f2ffffe0 	movk	x0, #0xffff, lsl #48
ffff0000000065cc:	b9400000 	ldr	w0, [x0]
ffff0000000065d0:	d3410400 	ubfx	x0, x0, #1, #1
ffff0000000065d4:	53001c00 	uxtb	w0, w0
ffff0000000065d8:	7100001f 	cmp	w0, #0x0
ffff0000000065dc:	540001e0 	b.eq	ffff000000006618 <sdWaitForData+0x98>
ffff0000000065e0:	d2800600 	mov	x0, #0x30                  	// #48
ffff0000000065e4:	f2a7e600 	movk	x0, #0x3f30, lsl #16
ffff0000000065e8:	f2ffffe0 	movk	x0, #0xffff, lsl #48
ffff0000000065ec:	b9400001 	ldr	w1, [x0]
ffff0000000065f0:	52900000 	mov	w0, #0x8000                	// #32768
ffff0000000065f4:	72a02fc0 	movk	w0, #0x17e, lsl #16
ffff0000000065f8:	0a000020 	and	w0, w1, w0
ffff0000000065fc:	7100001f 	cmp	w0, #0x0
ffff000000006600:	540000c1 	b.ne	ffff000000006618 <sdWaitForData+0x98>
ffff000000006604:	f9400fa1 	ldr	x1, [x29,#24]
ffff000000006608:	d29423e0 	mov	x0, #0xa11f                	// #41247
ffff00000000660c:	f2a000e0 	movk	x0, #0x7, lsl #16
ffff000000006610:	eb00003f 	cmp	x1, x0
ffff000000006614:	54fffc09 	b.ls	ffff000000006594 <sdWaitForData+0x14>
ffff000000006618:	f9400fa1 	ldr	x1, [x29,#24]
ffff00000000661c:	d29423e0 	mov	x0, #0xa11f                	// #41247
ffff000000006620:	f2a000e0 	movk	x0, #0x7, lsl #16
ffff000000006624:	eb00003f 	cmp	x1, x0
ffff000000006628:	54000148 	b.hi	ffff000000006650 <sdWaitForData+0xd0>
ffff00000000662c:	d2800600 	mov	x0, #0x30                  	// #48
ffff000000006630:	f2a7e600 	movk	x0, #0x3f30, lsl #16
ffff000000006634:	f2ffffe0 	movk	x0, #0xffff, lsl #48
ffff000000006638:	b9400001 	ldr	w1, [x0]
ffff00000000663c:	52900000 	mov	w0, #0x8000                	// #32768
ffff000000006640:	72a02fc0 	movk	w0, #0x17e, lsl #16
ffff000000006644:	0a000020 	and	w0, w1, w0
ffff000000006648:	7100001f 	cmp	w0, #0x0
ffff00000000664c:	54000340 	b.eq	ffff0000000066b4 <sdWaitForData+0x134>
ffff000000006650:	f0000440 	adrp	x0, ffff000000091000 <mem_map+0x7d3d0>
ffff000000006654:	9111c000 	add	x0, x0, #0x470
ffff000000006658:	f9400000 	ldr	x0, [x0]
ffff00000000665c:	f100001f 	cmp	x0, #0x0
ffff000000006660:	54000260 	b.eq	ffff0000000066ac <sdWaitForData+0x12c>
ffff000000006664:	f0000440 	adrp	x0, ffff000000091000 <mem_map+0x7d3d0>
ffff000000006668:	9111c000 	add	x0, x0, #0x470
ffff00000000666c:	f9400004 	ldr	x4, [x0]
ffff000000006670:	d2800480 	mov	x0, #0x24                  	// #36
ffff000000006674:	f2a7e600 	movk	x0, #0x3f30, lsl #16
ffff000000006678:	f2ffffe0 	movk	x0, #0xffff, lsl #48
ffff00000000667c:	b9400001 	ldr	w1, [x0]
ffff000000006680:	d2800600 	mov	x0, #0x30                  	// #48
ffff000000006684:	f2a7e600 	movk	x0, #0x3f30, lsl #16
ffff000000006688:	f2ffffe0 	movk	x0, #0xffff, lsl #48
ffff00000000668c:	b9400002 	ldr	w2, [x0]
ffff000000006690:	d2800200 	mov	x0, #0x10                  	// #16
ffff000000006694:	f2a7e600 	movk	x0, #0x3f30, lsl #16
ffff000000006698:	f2ffffe0 	movk	x0, #0xffff, lsl #48
ffff00000000669c:	b9400003 	ldr	w3, [x0]
ffff0000000066a0:	90000060 	adrp	x0, ffff000000012000 <sys_call_table+0x1c8>
ffff0000000066a4:	91038000 	add	x0, x0, #0xe0
ffff0000000066a8:	d63f0080 	blr	x4
ffff0000000066ac:	52800060 	mov	w0, #0x3                   	// #3
ffff0000000066b0:	14000002 	b	ffff0000000066b8 <sdWaitForData+0x138>
ffff0000000066b4:	52800000 	mov	w0, #0x0                   	// #0
ffff0000000066b8:	a8c27bfd 	ldp	x29, x30, [sp],#32
ffff0000000066bc:	d65f03c0 	ret

ffff0000000066c0 <unpack_csd>:
ffff0000000066c0:	d100c3ff 	sub	sp, sp, #0x30
ffff0000000066c4:	f90007e0 	str	x0, [sp,#8]
ffff0000000066c8:	910063e0 	add	x0, sp, #0x18
ffff0000000066cc:	a9007c1f 	stp	xzr, xzr, [x0]
ffff0000000066d0:	910063e0 	add	x0, sp, #0x18
ffff0000000066d4:	91003000 	add	x0, x0, #0xc
ffff0000000066d8:	f90017e0 	str	x0, [sp,#40]
ffff0000000066dc:	d2800200 	mov	x0, #0x10                  	// #16
ffff0000000066e0:	f2a7e600 	movk	x0, #0x3f30, lsl #16
ffff0000000066e4:	f2ffffe0 	movk	x0, #0xffff, lsl #48
ffff0000000066e8:	b9400001 	ldr	w1, [x0]
ffff0000000066ec:	f94017e0 	ldr	x0, [sp,#40]
ffff0000000066f0:	b9000001 	str	w1, [x0]
ffff0000000066f4:	910063e0 	add	x0, sp, #0x18
ffff0000000066f8:	91002000 	add	x0, x0, #0x8
ffff0000000066fc:	f90017e0 	str	x0, [sp,#40]
ffff000000006700:	d2800280 	mov	x0, #0x14                  	// #20
ffff000000006704:	f2a7e600 	movk	x0, #0x3f30, lsl #16
ffff000000006708:	f2ffffe0 	movk	x0, #0xffff, lsl #48
ffff00000000670c:	b9400001 	ldr	w1, [x0]
ffff000000006710:	f94017e0 	ldr	x0, [sp,#40]
ffff000000006714:	b9000001 	str	w1, [x0]
ffff000000006718:	910063e0 	add	x0, sp, #0x18
ffff00000000671c:	91001000 	add	x0, x0, #0x4
ffff000000006720:	f90017e0 	str	x0, [sp,#40]
ffff000000006724:	d2800300 	mov	x0, #0x18                  	// #24
ffff000000006728:	f2a7e600 	movk	x0, #0x3f30, lsl #16
ffff00000000672c:	f2ffffe0 	movk	x0, #0xffff, lsl #48
ffff000000006730:	b9400001 	ldr	w1, [x0]
ffff000000006734:	f94017e0 	ldr	x0, [sp,#40]
ffff000000006738:	b9000001 	str	w1, [x0]
ffff00000000673c:	910063e0 	add	x0, sp, #0x18
ffff000000006740:	f90017e0 	str	x0, [sp,#40]
ffff000000006744:	d2800380 	mov	x0, #0x1c                  	// #28
ffff000000006748:	f2a7e600 	movk	x0, #0x3f30, lsl #16
ffff00000000674c:	f2ffffe0 	movk	x0, #0xffff, lsl #48
ffff000000006750:	b9400001 	ldr	w1, [x0]
ffff000000006754:	f94017e0 	ldr	x0, [sp,#40]
ffff000000006758:	b9000001 	str	w1, [x0]
ffff00000000675c:	39406be0 	ldrb	w0, [sp,#26]
ffff000000006760:	53067c00 	lsr	w0, w0, #6
ffff000000006764:	53001c00 	uxtb	w0, w0
ffff000000006768:	12000400 	and	w0, w0, #0x3
ffff00000000676c:	53001c02 	uxtb	w2, w0
ffff000000006770:	f94007e1 	ldr	x1, [sp,#8]
ffff000000006774:	39400020 	ldrb	w0, [x1]
ffff000000006778:	33000440 	bfxil	w0, w2, #0, #2
ffff00000000677c:	39000020 	strb	w0, [x1]
ffff000000006780:	39406be0 	ldrb	w0, [sp,#26]
ffff000000006784:	12001400 	and	w0, w0, #0x3f
ffff000000006788:	53001c02 	uxtb	w2, w0
ffff00000000678c:	f94007e1 	ldr	x1, [sp,#8]
ffff000000006790:	39400020 	ldrb	w0, [x1]
ffff000000006794:	331e1440 	bfi	w0, w2, #2, #6
ffff000000006798:	39000020 	strb	w0, [x1]
ffff00000000679c:	394067e1 	ldrb	w1, [sp,#25]
ffff0000000067a0:	f94007e0 	ldr	x0, [sp,#8]
ffff0000000067a4:	39000401 	strb	w1, [x0,#1]
ffff0000000067a8:	394063e1 	ldrb	w1, [sp,#24]
ffff0000000067ac:	f94007e0 	ldr	x0, [sp,#8]
ffff0000000067b0:	39000801 	strb	w1, [x0,#2]
ffff0000000067b4:	39407fe1 	ldrb	w1, [sp,#31]
ffff0000000067b8:	f94007e0 	ldr	x0, [sp,#8]
ffff0000000067bc:	39000c01 	strb	w1, [x0,#3]
ffff0000000067c0:	39407be0 	ldrb	w0, [sp,#30]
ffff0000000067c4:	531c6c00 	lsl	w0, w0, #4
ffff0000000067c8:	13003c01 	sxth	w1, w0
ffff0000000067cc:	394077e0 	ldrb	w0, [sp,#29]
ffff0000000067d0:	53047c00 	lsr	w0, w0, #4
ffff0000000067d4:	53001c00 	uxtb	w0, w0
ffff0000000067d8:	13003c00 	sxth	w0, w0
ffff0000000067dc:	2a000020 	orr	w0, w1, w0
ffff0000000067e0:	13003c00 	sxth	w0, w0
ffff0000000067e4:	53003c00 	uxth	w0, w0
ffff0000000067e8:	12002c00 	and	w0, w0, #0xfff
ffff0000000067ec:	53003c02 	uxth	w2, w0
ffff0000000067f0:	f94007e1 	ldr	x1, [sp,#8]
ffff0000000067f4:	79400820 	ldrh	w0, [x1,#4]
ffff0000000067f8:	33002c40 	bfxil	w0, w2, #0, #12
ffff0000000067fc:	79000820 	strh	w0, [x1,#4]
ffff000000006800:	394077e0 	ldrb	w0, [sp,#29]
ffff000000006804:	12000c00 	and	w0, w0, #0xf
ffff000000006808:	53001c02 	uxtb	w2, w0
ffff00000000680c:	f94007e1 	ldr	x1, [sp,#8]
ffff000000006810:	39401420 	ldrb	w0, [x1,#5]
ffff000000006814:	331c0c40 	bfi	w0, w2, #4, #4
ffff000000006818:	39001420 	strb	w0, [x1,#5]
ffff00000000681c:	394073e0 	ldrb	w0, [sp,#28]
ffff000000006820:	13001c00 	sxtb	w0, w0
ffff000000006824:	53001c00 	uxtb	w0, w0
ffff000000006828:	53077c00 	lsr	w0, w0, #7
ffff00000000682c:	53001c02 	uxtb	w2, w0
ffff000000006830:	f94007e1 	ldr	x1, [sp,#8]
ffff000000006834:	39401820 	ldrb	w0, [x1,#6]
ffff000000006838:	33000040 	bfxil	w0, w2, #0, #1
ffff00000000683c:	39001820 	strb	w0, [x1,#6]
ffff000000006840:	394073e0 	ldrb	w0, [sp,#28]
ffff000000006844:	121a0000 	and	w0, w0, #0x40
ffff000000006848:	7100001f 	cmp	w0, #0x0
ffff00000000684c:	1a9f07e0 	cset	w0, ne
ffff000000006850:	53001c02 	uxtb	w2, w0
ffff000000006854:	f94007e1 	ldr	x1, [sp,#8]
ffff000000006858:	39401820 	ldrb	w0, [x1,#6]
ffff00000000685c:	331f0040 	bfi	w0, w2, #1, #1
ffff000000006860:	39001820 	strb	w0, [x1,#6]
ffff000000006864:	394073e0 	ldrb	w0, [sp,#28]
ffff000000006868:	121b0000 	and	w0, w0, #0x20
ffff00000000686c:	7100001f 	cmp	w0, #0x0
ffff000000006870:	1a9f07e0 	cset	w0, ne
ffff000000006874:	53001c02 	uxtb	w2, w0
ffff000000006878:	f94007e1 	ldr	x1, [sp,#8]
ffff00000000687c:	39401820 	ldrb	w0, [x1,#6]
ffff000000006880:	331e0040 	bfi	w0, w2, #2, #1
ffff000000006884:	39001820 	strb	w0, [x1,#6]
ffff000000006888:	394073e0 	ldrb	w0, [sp,#28]
ffff00000000688c:	121c0000 	and	w0, w0, #0x10
ffff000000006890:	7100001f 	cmp	w0, #0x0
ffff000000006894:	1a9f07e0 	cset	w0, ne
ffff000000006898:	53001c02 	uxtb	w2, w0
ffff00000000689c:	f94007e1 	ldr	x1, [sp,#8]
ffff0000000068a0:	39401820 	ldrb	w0, [x1,#6]
ffff0000000068a4:	331d0040 	bfi	w0, w2, #3, #1
ffff0000000068a8:	39001820 	strb	w0, [x1,#6]
ffff0000000068ac:	f94007e0 	ldr	x0, [sp,#8]
ffff0000000068b0:	39400000 	ldrb	w0, [x0]
ffff0000000068b4:	12000400 	and	w0, w0, #0x3
ffff0000000068b8:	53001c00 	uxtb	w0, w0
ffff0000000068bc:	7100041f 	cmp	w0, #0x1
ffff0000000068c0:	540005e1 	b.ne	ffff00000000697c <unpack_csd+0x2bc>
ffff0000000068c4:	39408fe0 	ldrb	w0, [sp,#35]
ffff0000000068c8:	12001400 	and	w0, w0, #0x3f
ffff0000000068cc:	53103c00 	lsl	w0, w0, #16
ffff0000000068d0:	12005402 	and	w2, w0, #0x3fffff
ffff0000000068d4:	f94007e1 	ldr	x1, [sp,#8]
ffff0000000068d8:	b9400820 	ldr	w0, [x1,#8]
ffff0000000068dc:	33005440 	bfxil	w0, w2, #0, #22
ffff0000000068e0:	b9000820 	str	w0, [x1,#8]
ffff0000000068e4:	f94007e0 	ldr	x0, [sp,#8]
ffff0000000068e8:	b9400800 	ldr	w0, [x0,#8]
ffff0000000068ec:	d3405400 	ubfx	x0, x0, #0, #22
ffff0000000068f0:	2a0003e1 	mov	w1, w0
ffff0000000068f4:	39408be0 	ldrb	w0, [sp,#34]
ffff0000000068f8:	53185c00 	lsl	w0, w0, #8
ffff0000000068fc:	0b000020 	add	w0, w1, w0
ffff000000006900:	12005402 	and	w2, w0, #0x3fffff
ffff000000006904:	f94007e1 	ldr	x1, [sp,#8]
ffff000000006908:	b9400820 	ldr	w0, [x1,#8]
ffff00000000690c:	33005440 	bfxil	w0, w2, #0, #22
ffff000000006910:	b9000820 	str	w0, [x1,#8]
ffff000000006914:	f94007e0 	ldr	x0, [sp,#8]
ffff000000006918:	b9400800 	ldr	w0, [x0,#8]
ffff00000000691c:	d3405400 	ubfx	x0, x0, #0, #22
ffff000000006920:	2a0003e1 	mov	w1, w0
ffff000000006924:	394087e0 	ldrb	w0, [sp,#33]
ffff000000006928:	0b000020 	add	w0, w1, w0
ffff00000000692c:	12005402 	and	w2, w0, #0x3fffff
ffff000000006930:	f94007e1 	ldr	x1, [sp,#8]
ffff000000006934:	b9400820 	ldr	w0, [x1,#8]
ffff000000006938:	33005440 	bfxil	w0, w2, #0, #22
ffff00000000693c:	b9000820 	str	w0, [x1,#8]
ffff000000006940:	f94007e0 	ldr	x0, [sp,#8]
ffff000000006944:	b9400800 	ldr	w0, [x0,#8]
ffff000000006948:	d3405400 	ubfx	x0, x0, #0, #22
ffff00000000694c:	2a0003e1 	mov	w1, w0
ffff000000006950:	f0000440 	adrp	x0, ffff000000091000 <mem_map+0x7d3d0>
ffff000000006954:	9111e000 	add	x0, x0, #0x478
ffff000000006958:	f9001801 	str	x1, [x0,#48]
ffff00000000695c:	f0000440 	adrp	x0, ffff000000091000 <mem_map+0x7d3d0>
ffff000000006960:	9111e000 	add	x0, x0, #0x478
ffff000000006964:	f9401800 	ldr	x0, [x0,#48]
ffff000000006968:	d36db001 	lsl	x1, x0, #19
ffff00000000696c:	f0000440 	adrp	x0, ffff000000091000 <mem_map+0x7d3d0>
ffff000000006970:	9111e000 	add	x0, x0, #0x478
ffff000000006974:	f9001801 	str	x1, [x0,#48]
ffff000000006978:	14000082 	b	ffff000000006b80 <unpack_csd+0x4c0>
ffff00000000697c:	394073e0 	ldrb	w0, [sp,#28]
ffff000000006980:	53003c00 	uxth	w0, w0
ffff000000006984:	12000400 	and	w0, w0, #0x3
ffff000000006988:	53003c00 	uxth	w0, w0
ffff00000000698c:	53181c00 	ubfiz	w0, w0, #8, #8
ffff000000006990:	53003c00 	uxth	w0, w0
ffff000000006994:	12002c00 	and	w0, w0, #0xfff
ffff000000006998:	53003c02 	uxth	w2, w0
ffff00000000699c:	f94007e1 	ldr	x1, [sp,#8]
ffff0000000069a0:	79400c20 	ldrh	w0, [x1,#6]
ffff0000000069a4:	331c2c40 	bfi	w0, w2, #4, #12
ffff0000000069a8:	79000c20 	strh	w0, [x1,#6]
ffff0000000069ac:	f94007e0 	ldr	x0, [sp,#8]
ffff0000000069b0:	79400c00 	ldrh	w0, [x0,#6]
ffff0000000069b4:	d3443c00 	ubfx	x0, x0, #4, #12
ffff0000000069b8:	53003c00 	uxth	w0, w0
ffff0000000069bc:	2a0003e1 	mov	w1, w0
ffff0000000069c0:	39408fe0 	ldrb	w0, [sp,#35]
ffff0000000069c4:	53003c00 	uxth	w0, w0
ffff0000000069c8:	0b000020 	add	w0, w1, w0
ffff0000000069cc:	53003c00 	uxth	w0, w0
ffff0000000069d0:	12002c00 	and	w0, w0, #0xfff
ffff0000000069d4:	53003c02 	uxth	w2, w0
ffff0000000069d8:	f94007e1 	ldr	x1, [sp,#8]
ffff0000000069dc:	79400c20 	ldrh	w0, [x1,#6]
ffff0000000069e0:	331c2c40 	bfi	w0, w2, #4, #12
ffff0000000069e4:	79000c20 	strh	w0, [x1,#6]
ffff0000000069e8:	f94007e0 	ldr	x0, [sp,#8]
ffff0000000069ec:	79400c00 	ldrh	w0, [x0,#6]
ffff0000000069f0:	d3443c00 	ubfx	x0, x0, #4, #12
ffff0000000069f4:	53003c00 	uxth	w0, w0
ffff0000000069f8:	531e3400 	ubfiz	w0, w0, #2, #14
ffff0000000069fc:	53003c00 	uxth	w0, w0
ffff000000006a00:	12002c00 	and	w0, w0, #0xfff
ffff000000006a04:	53003c02 	uxth	w2, w0
ffff000000006a08:	f94007e1 	ldr	x1, [sp,#8]
ffff000000006a0c:	79400c20 	ldrh	w0, [x1,#6]
ffff000000006a10:	331c2c40 	bfi	w0, w2, #4, #12
ffff000000006a14:	79000c20 	strh	w0, [x1,#6]
ffff000000006a18:	f94007e0 	ldr	x0, [sp,#8]
ffff000000006a1c:	79400c00 	ldrh	w0, [x0,#6]
ffff000000006a20:	d3443c00 	ubfx	x0, x0, #4, #12
ffff000000006a24:	53003c00 	uxth	w0, w0
ffff000000006a28:	2a0003e1 	mov	w1, w0
ffff000000006a2c:	39408be0 	ldrb	w0, [sp,#34]
ffff000000006a30:	53067c00 	lsr	w0, w0, #6
ffff000000006a34:	53001c00 	uxtb	w0, w0
ffff000000006a38:	53003c00 	uxth	w0, w0
ffff000000006a3c:	0b000020 	add	w0, w1, w0
ffff000000006a40:	53003c00 	uxth	w0, w0
ffff000000006a44:	12002c00 	and	w0, w0, #0xfff
ffff000000006a48:	53003c02 	uxth	w2, w0
ffff000000006a4c:	f94007e1 	ldr	x1, [sp,#8]
ffff000000006a50:	79400c20 	ldrh	w0, [x1,#6]
ffff000000006a54:	331c2c40 	bfi	w0, w2, #4, #12
ffff000000006a58:	79000c20 	strh	w0, [x1,#6]
ffff000000006a5c:	39408be0 	ldrb	w0, [sp,#34]
ffff000000006a60:	121d0800 	and	w0, w0, #0x38
ffff000000006a64:	13037c00 	asr	w0, w0, #3
ffff000000006a68:	53001c00 	uxtb	w0, w0
ffff000000006a6c:	12000800 	and	w0, w0, #0x7
ffff000000006a70:	53001c02 	uxtb	w2, w0
ffff000000006a74:	f94007e1 	ldr	x1, [sp,#8]
ffff000000006a78:	39402020 	ldrb	w0, [x1,#8]
ffff000000006a7c:	33000840 	bfxil	w0, w2, #0, #3
ffff000000006a80:	39002020 	strb	w0, [x1,#8]
ffff000000006a84:	39408be0 	ldrb	w0, [sp,#34]
ffff000000006a88:	12000800 	and	w0, w0, #0x7
ffff000000006a8c:	53001c02 	uxtb	w2, w0
ffff000000006a90:	f94007e1 	ldr	x1, [sp,#8]
ffff000000006a94:	39402020 	ldrb	w0, [x1,#8]
ffff000000006a98:	331d0840 	bfi	w0, w2, #3, #3
ffff000000006a9c:	39002020 	strb	w0, [x1,#8]
ffff000000006aa0:	394087e0 	ldrb	w0, [sp,#33]
ffff000000006aa4:	53057c00 	lsr	w0, w0, #5
ffff000000006aa8:	53001c00 	uxtb	w0, w0
ffff000000006aac:	12000800 	and	w0, w0, #0x7
ffff000000006ab0:	53001c02 	uxtb	w2, w0
ffff000000006ab4:	f94007e1 	ldr	x1, [sp,#8]
ffff000000006ab8:	79401020 	ldrh	w0, [x1,#8]
ffff000000006abc:	331a0840 	bfi	w0, w2, #6, #3
ffff000000006ac0:	79001020 	strh	w0, [x1,#8]
ffff000000006ac4:	394087e0 	ldrb	w0, [sp,#33]
ffff000000006ac8:	121e0800 	and	w0, w0, #0x1c
ffff000000006acc:	13027c00 	asr	w0, w0, #2
ffff000000006ad0:	53001c00 	uxtb	w0, w0
ffff000000006ad4:	12000800 	and	w0, w0, #0x7
ffff000000006ad8:	53001c02 	uxtb	w2, w0
ffff000000006adc:	f94007e1 	ldr	x1, [sp,#8]
ffff000000006ae0:	39402420 	ldrb	w0, [x1,#9]
ffff000000006ae4:	331f0840 	bfi	w0, w2, #1, #3
ffff000000006ae8:	39002420 	strb	w0, [x1,#9]
ffff000000006aec:	394087e0 	ldrb	w0, [sp,#33]
ffff000000006af0:	12000400 	and	w0, w0, #0x3
ffff000000006af4:	0b000000 	add	w0, w0, w0
ffff000000006af8:	13001c01 	sxtb	w1, w0
ffff000000006afc:	394083e0 	ldrb	w0, [sp,#32]
ffff000000006b00:	53077c00 	lsr	w0, w0, #7
ffff000000006b04:	53001c00 	uxtb	w0, w0
ffff000000006b08:	13001c00 	sxtb	w0, w0
ffff000000006b0c:	2a000020 	orr	w0, w1, w0
ffff000000006b10:	13001c00 	sxtb	w0, w0
ffff000000006b14:	53001c00 	uxtb	w0, w0
ffff000000006b18:	12000800 	and	w0, w0, #0x7
ffff000000006b1c:	53001c02 	uxtb	w2, w0
ffff000000006b20:	f94007e1 	ldr	x1, [sp,#8]
ffff000000006b24:	39402420 	ldrb	w0, [x1,#9]
ffff000000006b28:	331c0840 	bfi	w0, w2, #4, #3
ffff000000006b2c:	39002420 	strb	w0, [x1,#9]
ffff000000006b30:	f94007e0 	ldr	x0, [sp,#8]
ffff000000006b34:	79400c00 	ldrh	w0, [x0,#6]
ffff000000006b38:	d3443c00 	ubfx	x0, x0, #4, #12
ffff000000006b3c:	53003c00 	uxth	w0, w0
ffff000000006b40:	11000401 	add	w1, w0, #0x1
ffff000000006b44:	f94007e0 	ldr	x0, [sp,#8]
ffff000000006b48:	39402400 	ldrb	w0, [x0,#9]
ffff000000006b4c:	d3441800 	ubfx	x0, x0, #4, #3
ffff000000006b50:	53001c00 	uxtb	w0, w0
ffff000000006b54:	11000800 	add	w0, w0, #0x2
ffff000000006b58:	1ac02020 	lsl	w0, w1, w0
ffff000000006b5c:	f94007e1 	ldr	x1, [sp,#8]
ffff000000006b60:	39401421 	ldrb	w1, [x1,#5]
ffff000000006b64:	d3441c21 	ubfx	x1, x1, #4, #4
ffff000000006b68:	53001c21 	uxtb	w1, w1
ffff000000006b6c:	1ac12000 	lsl	w0, w0, w1
ffff000000006b70:	93407c01 	sxtw	x1, w0
ffff000000006b74:	f0000440 	adrp	x0, ffff000000091000 <mem_map+0x7d3d0>
ffff000000006b78:	9111e000 	add	x0, x0, #0x478
ffff000000006b7c:	f9001801 	str	x1, [x0,#48]
ffff000000006b80:	394083e0 	ldrb	w0, [sp,#32]
ffff000000006b84:	121a0000 	and	w0, w0, #0x40
ffff000000006b88:	13067c00 	asr	w0, w0, #6
ffff000000006b8c:	53001c00 	uxtb	w0, w0
ffff000000006b90:	12000000 	and	w0, w0, #0x1
ffff000000006b94:	53001c02 	uxtb	w2, w0
ffff000000006b98:	f94007e1 	ldr	x1, [sp,#8]
ffff000000006b9c:	39403020 	ldrb	w0, [x1,#12]
ffff000000006ba0:	33000040 	bfxil	w0, w2, #0, #1
ffff000000006ba4:	39003020 	strb	w0, [x1,#12]
ffff000000006ba8:	39409fe0 	ldrb	w0, [sp,#39]
ffff000000006bac:	12190000 	and	w0, w0, #0x80
ffff000000006bb0:	13017c00 	asr	w0, w0, #1
ffff000000006bb4:	13001c01 	sxtb	w1, w0
ffff000000006bb8:	394083e0 	ldrb	w0, [sp,#32]
ffff000000006bbc:	13001c00 	sxtb	w0, w0
ffff000000006bc0:	12001400 	and	w0, w0, #0x3f
ffff000000006bc4:	13001c00 	sxtb	w0, w0
ffff000000006bc8:	2a000020 	orr	w0, w1, w0
ffff000000006bcc:	13001c00 	sxtb	w0, w0
ffff000000006bd0:	53001c00 	uxtb	w0, w0
ffff000000006bd4:	12001800 	and	w0, w0, #0x7f
ffff000000006bd8:	53001c02 	uxtb	w2, w0
ffff000000006bdc:	f94007e1 	ldr	x1, [sp,#8]
ffff000000006be0:	39403020 	ldrb	w0, [x1,#12]
ffff000000006be4:	331f1840 	bfi	w0, w2, #1, #7
ffff000000006be8:	39003020 	strb	w0, [x1,#12]
ffff000000006bec:	39409fe0 	ldrb	w0, [sp,#39]
ffff000000006bf0:	12001800 	and	w0, w0, #0x7f
ffff000000006bf4:	53001c02 	uxtb	w2, w0
ffff000000006bf8:	f94007e1 	ldr	x1, [sp,#8]
ffff000000006bfc:	39404020 	ldrb	w0, [x1,#16]
ffff000000006c00:	33001840 	bfxil	w0, w2, #0, #7
ffff000000006c04:	39004020 	strb	w0, [x1,#16]
ffff000000006c08:	39409be0 	ldrb	w0, [sp,#38]
ffff000000006c0c:	13001c00 	sxtb	w0, w0
ffff000000006c10:	53001c00 	uxtb	w0, w0
ffff000000006c14:	53077c00 	lsr	w0, w0, #7
ffff000000006c18:	53001c02 	uxtb	w2, w0
ffff000000006c1c:	f94007e1 	ldr	x1, [sp,#8]
ffff000000006c20:	39404020 	ldrb	w0, [x1,#16]
ffff000000006c24:	33190040 	bfi	w0, w2, #7, #1
ffff000000006c28:	39004020 	strb	w0, [x1,#16]
ffff000000006c2c:	39409be0 	ldrb	w0, [sp,#38]
ffff000000006c30:	121b0400 	and	w0, w0, #0x60
ffff000000006c34:	13057c00 	asr	w0, w0, #5
ffff000000006c38:	53001c00 	uxtb	w0, w0
ffff000000006c3c:	12001000 	and	w0, w0, #0x1f
ffff000000006c40:	53001c02 	uxtb	w2, w0
ffff000000006c44:	f94007e1 	ldr	x1, [sp,#8]
ffff000000006c48:	39404820 	ldrb	w0, [x1,#18]
ffff000000006c4c:	331e1040 	bfi	w0, w2, #2, #5
ffff000000006c50:	39004820 	strb	w0, [x1,#18]
ffff000000006c54:	39409be0 	ldrb	w0, [sp,#38]
ffff000000006c58:	121e0800 	and	w0, w0, #0x1c
ffff000000006c5c:	13027c00 	asr	w0, w0, #2
ffff000000006c60:	53001c00 	uxtb	w0, w0
ffff000000006c64:	12000800 	and	w0, w0, #0x7
ffff000000006c68:	53001c02 	uxtb	w2, w0
ffff000000006c6c:	f94007e1 	ldr	x1, [sp,#8]
ffff000000006c70:	39404420 	ldrb	w0, [x1,#17]
ffff000000006c74:	331e0840 	bfi	w0, w2, #2, #3
ffff000000006c78:	39004420 	strb	w0, [x1,#17]
ffff000000006c7c:	39409be0 	ldrb	w0, [sp,#38]
ffff000000006c80:	12000400 	and	w0, w0, #0x3
ffff000000006c84:	531e7400 	lsl	w0, w0, #2
ffff000000006c88:	13001c01 	sxtb	w1, w0
ffff000000006c8c:	394097e0 	ldrb	w0, [sp,#37]
ffff000000006c90:	53067c00 	lsr	w0, w0, #6
ffff000000006c94:	53001c00 	uxtb	w0, w0
ffff000000006c98:	13001c00 	sxtb	w0, w0
ffff000000006c9c:	2a000020 	orr	w0, w1, w0
ffff000000006ca0:	13001c00 	sxtb	w0, w0
ffff000000006ca4:	53001c00 	uxtb	w0, w0
ffff000000006ca8:	12000c00 	and	w0, w0, #0xf
ffff000000006cac:	53001c02 	uxtb	w2, w0
ffff000000006cb0:	f94007e1 	ldr	x1, [sp,#8]
ffff000000006cb4:	b9401020 	ldr	w0, [x1,#16]
ffff000000006cb8:	33130c40 	bfi	w0, w2, #13, #4
ffff000000006cbc:	b9001020 	str	w0, [x1,#16]
ffff000000006cc0:	394097e0 	ldrb	w0, [sp,#37]
ffff000000006cc4:	121b0000 	and	w0, w0, #0x20
ffff000000006cc8:	7100001f 	cmp	w0, #0x0
ffff000000006ccc:	1a9f07e0 	cset	w0, ne
ffff000000006cd0:	53001c02 	uxtb	w2, w0
ffff000000006cd4:	f94007e1 	ldr	x1, [sp,#8]
ffff000000006cd8:	39404820 	ldrb	w0, [x1,#18]
ffff000000006cdc:	331f0040 	bfi	w0, w2, #1, #1
ffff000000006ce0:	39004820 	strb	w0, [x1,#18]
ffff000000006ce4:	394093e0 	ldrb	w0, [sp,#36]
ffff000000006ce8:	13001c00 	sxtb	w0, w0
ffff000000006cec:	53001c00 	uxtb	w0, w0
ffff000000006cf0:	53077c00 	lsr	w0, w0, #7
ffff000000006cf4:	53001c02 	uxtb	w2, w0
ffff000000006cf8:	f94007e1 	ldr	x1, [sp,#8]
ffff000000006cfc:	39404820 	ldrb	w0, [x1,#18]
ffff000000006d00:	33190040 	bfi	w0, w2, #7, #1
ffff000000006d04:	39004820 	strb	w0, [x1,#18]
ffff000000006d08:	394093e0 	ldrb	w0, [sp,#36]
ffff000000006d0c:	121a0000 	and	w0, w0, #0x40
ffff000000006d10:	7100001f 	cmp	w0, #0x0
ffff000000006d14:	1a9f07e0 	cset	w0, ne
ffff000000006d18:	53001c02 	uxtb	w2, w0
ffff000000006d1c:	f94007e1 	ldr	x1, [sp,#8]
ffff000000006d20:	39404c20 	ldrb	w0, [x1,#19]
ffff000000006d24:	33000040 	bfxil	w0, w2, #0, #1
ffff000000006d28:	39004c20 	strb	w0, [x1,#19]
ffff000000006d2c:	394093e0 	ldrb	w0, [sp,#36]
ffff000000006d30:	121b0000 	and	w0, w0, #0x20
ffff000000006d34:	7100001f 	cmp	w0, #0x0
ffff000000006d38:	1a9f07e0 	cset	w0, ne
ffff000000006d3c:	53001c02 	uxtb	w2, w0
ffff000000006d40:	f94007e1 	ldr	x1, [sp,#8]
ffff000000006d44:	39404c20 	ldrb	w0, [x1,#19]
ffff000000006d48:	331f0040 	bfi	w0, w2, #1, #1
ffff000000006d4c:	39004c20 	strb	w0, [x1,#19]
ffff000000006d50:	394093e0 	ldrb	w0, [sp,#36]
ffff000000006d54:	121c0000 	and	w0, w0, #0x10
ffff000000006d58:	7100001f 	cmp	w0, #0x0
ffff000000006d5c:	1a9f07e0 	cset	w0, ne
ffff000000006d60:	53001c02 	uxtb	w2, w0
ffff000000006d64:	f94007e1 	ldr	x1, [sp,#8]
ffff000000006d68:	39404c20 	ldrb	w0, [x1,#19]
ffff000000006d6c:	331e0040 	bfi	w0, w2, #2, #1
ffff000000006d70:	39004c20 	strb	w0, [x1,#19]
ffff000000006d74:	394093e0 	ldrb	w0, [sp,#36]
ffff000000006d78:	121e0400 	and	w0, w0, #0xc
ffff000000006d7c:	13027c00 	asr	w0, w0, #2
ffff000000006d80:	53001c00 	uxtb	w0, w0
ffff000000006d84:	12000400 	and	w0, w0, #0x3
ffff000000006d88:	53001c02 	uxtb	w2, w0
ffff000000006d8c:	f94007e1 	ldr	x1, [sp,#8]
ffff000000006d90:	39404c20 	ldrb	w0, [x1,#19]
ffff000000006d94:	331d0440 	bfi	w0, w2, #3, #2
ffff000000006d98:	39004c20 	strb	w0, [x1,#19]
ffff000000006d9c:	394093e0 	ldrb	w0, [sp,#36]
ffff000000006da0:	12000400 	and	w0, w0, #0x3
ffff000000006da4:	53001c02 	uxtb	w2, w0
ffff000000006da8:	f94007e1 	ldr	x1, [sp,#8]
ffff000000006dac:	39404c20 	ldrb	w0, [x1,#19]
ffff000000006db0:	331b0440 	bfi	w0, w2, #5, #2
ffff000000006db4:	39004c20 	strb	w0, [x1,#19]
ffff000000006db8:	d503201f 	nop
ffff000000006dbc:	9100c3ff 	add	sp, sp, #0x30
ffff000000006dc0:	d65f03c0 	ret

ffff000000006dc4 <sdSendCommandP>:
ffff000000006dc4:	a9bd7bfd 	stp	x29, x30, [sp,#-48]!
ffff000000006dc8:	910003fd 	mov	x29, sp
ffff000000006dcc:	f9000fa0 	str	x0, [x29,#24]
ffff000000006dd0:	b90017a1 	str	w1, [x29,#20]
ffff000000006dd4:	97fffd9b 	bl	ffff000000006440 <sdWaitForCommand>
ffff000000006dd8:	7100001f 	cmp	w0, #0x0
ffff000000006ddc:	54000060 	b.eq	ffff000000006de8 <sdSendCommandP+0x24>
ffff000000006de0:	52800060 	mov	w0, #0x3                   	// #3
ffff000000006de4:	140000b7 	b	ffff0000000070c0 <sdSendCommandP+0x2fc>
ffff000000006de8:	f9400fa1 	ldr	x1, [x29,#24]
ffff000000006dec:	f9400fa0 	ldr	x0, [x29,#24]
ffff000000006df0:	b9401000 	ldr	w0, [x0,#16]
ffff000000006df4:	d3587400 	ubfx	x0, x0, #24, #6
ffff000000006df8:	53001c00 	uxtb	w0, w0
ffff000000006dfc:	2a0003e2 	mov	w2, w0
ffff000000006e00:	90000060 	adrp	x0, ffff000000012000 <sys_call_table+0x1c8>
ffff000000006e04:	91044000 	add	x0, x0, #0x110
ffff000000006e08:	b94017a3 	ldr	w3, [x29,#20]
ffff000000006e0c:	97fffa3f 	bl	ffff000000005708 <tfp_printf>
ffff000000006e10:	f0000440 	adrp	x0, ffff000000091000 <mem_map+0x7d3d0>
ffff000000006e14:	9111e000 	add	x0, x0, #0x478
ffff000000006e18:	f9400fa1 	ldr	x1, [x29,#24]
ffff000000006e1c:	f9002401 	str	x1, [x0,#72]
ffff000000006e20:	d2800600 	mov	x0, #0x30                  	// #48
ffff000000006e24:	f2a7e600 	movk	x0, #0x3f30, lsl #16
ffff000000006e28:	f2ffffe0 	movk	x0, #0xffff, lsl #48
ffff000000006e2c:	d2800601 	mov	x1, #0x30                  	// #48
ffff000000006e30:	f2a7e601 	movk	x1, #0x3f30, lsl #16
ffff000000006e34:	f2ffffe1 	movk	x1, #0xffff, lsl #48
ffff000000006e38:	b9400021 	ldr	w1, [x1]
ffff000000006e3c:	b9000001 	str	w1, [x0]
ffff000000006e40:	d2800100 	mov	x0, #0x8                   	// #8
ffff000000006e44:	f2a7e600 	movk	x0, #0x3f30, lsl #16
ffff000000006e48:	f2ffffe0 	movk	x0, #0xffff, lsl #48
ffff000000006e4c:	b94017a1 	ldr	w1, [x29,#20]
ffff000000006e50:	b9000001 	str	w1, [x0]
ffff000000006e54:	d2800180 	mov	x0, #0xc                   	// #12
ffff000000006e58:	f2a7e600 	movk	x0, #0x3f30, lsl #16
ffff000000006e5c:	f2ffffe0 	movk	x0, #0xffff, lsl #48
ffff000000006e60:	f9400fa1 	ldr	x1, [x29,#24]
ffff000000006e64:	b9401021 	ldr	w1, [x1,#16]
ffff000000006e68:	b9000001 	str	w1, [x0]
ffff000000006e6c:	f9400fa0 	ldr	x0, [x29,#24]
ffff000000006e70:	79402c00 	ldrh	w0, [x0,#22]
ffff000000006e74:	7100001f 	cmp	w0, #0x0
ffff000000006e78:	54000080 	b.eq	ffff000000006e88 <sdSendCommandP+0xc4>
ffff000000006e7c:	f9400fa0 	ldr	x0, [x29,#24]
ffff000000006e80:	79402c00 	ldrh	w0, [x0,#22]
ffff000000006e84:	94001230 	bl	ffff00000000b744 <wait_msec>
ffff000000006e88:	52800020 	mov	w0, #0x1                   	// #1
ffff000000006e8c:	97fffcf0 	bl	ffff00000000624c <sdWaitForInterrupt>
ffff000000006e90:	b9002fa0 	str	w0, [x29,#44]
ffff000000006e94:	b9402fa0 	ldr	w0, [x29,#44]
ffff000000006e98:	7100001f 	cmp	w0, #0x0
ffff000000006e9c:	54000060 	b.eq	ffff000000006ea8 <sdSendCommandP+0xe4>
ffff000000006ea0:	b9402fa0 	ldr	w0, [x29,#44]
ffff000000006ea4:	14000087 	b	ffff0000000070c0 <sdSendCommandP+0x2fc>
ffff000000006ea8:	d2800200 	mov	x0, #0x10                  	// #16
ffff000000006eac:	f2a7e600 	movk	x0, #0x3f30, lsl #16
ffff000000006eb0:	f2ffffe0 	movk	x0, #0xffff, lsl #48
ffff000000006eb4:	b9400000 	ldr	w0, [x0]
ffff000000006eb8:	b9002ba0 	str	w0, [x29,#40]
ffff000000006ebc:	f9400fa0 	ldr	x0, [x29,#24]
ffff000000006ec0:	b9401000 	ldr	w0, [x0,#16]
ffff000000006ec4:	d3504400 	ubfx	x0, x0, #16, #2
ffff000000006ec8:	53001c00 	uxtb	w0, w0
ffff000000006ecc:	7100081f 	cmp	w0, #0x2
ffff000000006ed0:	54000200 	b.eq	ffff000000006f10 <sdSendCommandP+0x14c>
ffff000000006ed4:	71000c1f 	cmp	w0, #0x3
ffff000000006ed8:	540000a0 	b.eq	ffff000000006eec <sdSendCommandP+0x128>
ffff000000006edc:	7100041f 	cmp	w0, #0x1
ffff000000006ee0:	540009e0 	b.eq	ffff00000000701c <sdSendCommandP+0x258>
ffff000000006ee4:	52800000 	mov	w0, #0x0                   	// #0
ffff000000006ee8:	14000076 	b	ffff0000000070c0 <sdSendCommandP+0x2fc>
ffff000000006eec:	f0000440 	adrp	x0, ffff000000091000 <mem_map+0x7d3d0>
ffff000000006ef0:	9111e000 	add	x0, x0, #0x478
ffff000000006ef4:	b9402ba1 	ldr	w1, [x29,#40]
ffff000000006ef8:	b9004401 	str	w1, [x0,#68]
ffff000000006efc:	b9402ba1 	ldr	w1, [x29,#40]
ffff000000006f00:	52980080 	mov	w0, #0xc004                	// #49156
ffff000000006f04:	72bfff20 	movk	w0, #0xfff9, lsl #16
ffff000000006f08:	0a000020 	and	w0, w1, w0
ffff000000006f0c:	1400006d 	b	ffff0000000070c0 <sdSendCommandP+0x2fc>
ffff000000006f10:	f9400fa0 	ldr	x0, [x29,#24]
ffff000000006f14:	b9401000 	ldr	w0, [x0,#16]
ffff000000006f18:	d3587400 	ubfx	x0, x0, #24, #6
ffff000000006f1c:	53001c00 	uxtb	w0, w0
ffff000000006f20:	7100201f 	cmp	w0, #0x8
ffff000000006f24:	54000460 	b.eq	ffff000000006fb0 <sdSendCommandP+0x1ec>
ffff000000006f28:	7100a41f 	cmp	w0, #0x29
ffff000000006f2c:	54000540 	b.eq	ffff000000006fd4 <sdSendCommandP+0x210>
ffff000000006f30:	71000c1f 	cmp	w0, #0x3
ffff000000006f34:	54000621 	b.ne	ffff000000006ff8 <sdSendCommandP+0x234>
ffff000000006f38:	b9402ba0 	ldr	w0, [x29,#40]
ffff000000006f3c:	12103c01 	and	w1, w0, #0xffff0000
ffff000000006f40:	f0000440 	adrp	x0, ffff000000091000 <mem_map+0x7d3d0>
ffff000000006f44:	9111e000 	add	x0, x0, #0x478
ffff000000006f48:	b9003c01 	str	w1, [x0,#60]
ffff000000006f4c:	b9402ba0 	ldr	w0, [x29,#40]
ffff000000006f50:	12003001 	and	w1, w0, #0x1fff
ffff000000006f54:	b9402ba0 	ldr	w0, [x29,#40]
ffff000000006f58:	12130000 	and	w0, w0, #0x2000
ffff000000006f5c:	531a6400 	lsl	w0, w0, #6
ffff000000006f60:	2a000021 	orr	w1, w1, w0
ffff000000006f64:	b9402ba0 	ldr	w0, [x29,#40]
ffff000000006f68:	12120000 	and	w0, w0, #0x4000
ffff000000006f6c:	53185c00 	lsl	w0, w0, #8
ffff000000006f70:	2a000021 	orr	w1, w1, w0
ffff000000006f74:	b9402ba0 	ldr	w0, [x29,#40]
ffff000000006f78:	12110000 	and	w0, w0, #0x8000
ffff000000006f7c:	53185c00 	lsl	w0, w0, #8
ffff000000006f80:	2a000021 	orr	w1, w1, w0
ffff000000006f84:	f0000440 	adrp	x0, ffff000000091000 <mem_map+0x7d3d0>
ffff000000006f88:	9111e000 	add	x0, x0, #0x478
ffff000000006f8c:	b9004401 	str	w1, [x0,#68]
ffff000000006f90:	f0000440 	adrp	x0, ffff000000091000 <mem_map+0x7d3d0>
ffff000000006f94:	9111e000 	add	x0, x0, #0x478
ffff000000006f98:	b9404400 	ldr	w0, [x0,#68]
ffff000000006f9c:	2a0003e1 	mov	w1, w0
ffff000000006fa0:	52980080 	mov	w0, #0xc004                	// #49156
ffff000000006fa4:	72bfff20 	movk	w0, #0xfff9, lsl #16
ffff000000006fa8:	0a000020 	and	w0, w1, w0
ffff000000006fac:	14000045 	b	ffff0000000070c0 <sdSendCommandP+0x2fc>
ffff000000006fb0:	f0000440 	adrp	x0, ffff000000091000 <mem_map+0x7d3d0>
ffff000000006fb4:	9111e000 	add	x0, x0, #0x478
ffff000000006fb8:	b900441f 	str	wzr, [x0,#68]
ffff000000006fbc:	b9402ba1 	ldr	w1, [x29,#40]
ffff000000006fc0:	b94017a0 	ldr	w0, [x29,#20]
ffff000000006fc4:	6b00003f 	cmp	w1, w0
ffff000000006fc8:	1a9f07e0 	cset	w0, ne
ffff000000006fcc:	53001c00 	uxtb	w0, w0
ffff000000006fd0:	1400003c 	b	ffff0000000070c0 <sdSendCommandP+0x2fc>
ffff000000006fd4:	f0000440 	adrp	x0, ffff000000091000 <mem_map+0x7d3d0>
ffff000000006fd8:	9111e000 	add	x0, x0, #0x478
ffff000000006fdc:	b900441f 	str	wzr, [x0,#68]
ffff000000006fe0:	f0000440 	adrp	x0, ffff000000091000 <mem_map+0x7d3d0>
ffff000000006fe4:	9111e000 	add	x0, x0, #0x478
ffff000000006fe8:	b9402ba1 	ldr	w1, [x29,#40]
ffff000000006fec:	b9004001 	str	w1, [x0,#64]
ffff000000006ff0:	52800000 	mov	w0, #0x0                   	// #0
ffff000000006ff4:	14000033 	b	ffff0000000070c0 <sdSendCommandP+0x2fc>
ffff000000006ff8:	f0000440 	adrp	x0, ffff000000091000 <mem_map+0x7d3d0>
ffff000000006ffc:	9111e000 	add	x0, x0, #0x478
ffff000000007000:	b9402ba1 	ldr	w1, [x29,#40]
ffff000000007004:	b9004401 	str	w1, [x0,#68]
ffff000000007008:	b9402ba1 	ldr	w1, [x29,#40]
ffff00000000700c:	52980080 	mov	w0, #0xc004                	// #49156
ffff000000007010:	72bfff20 	movk	w0, #0xfff9, lsl #16
ffff000000007014:	0a000020 	and	w0, w1, w0
ffff000000007018:	1400002a 	b	ffff0000000070c0 <sdSendCommandP+0x2fc>
ffff00000000701c:	d0000440 	adrp	x0, ffff000000091000 <mem_map+0x7d3d0>
ffff000000007020:	9111e000 	add	x0, x0, #0x478
ffff000000007024:	b900441f 	str	wzr, [x0,#68]
ffff000000007028:	f9400fa0 	ldr	x0, [x29,#24]
ffff00000000702c:	b9401000 	ldr	w0, [x0,#16]
ffff000000007030:	d3587400 	ubfx	x0, x0, #24, #6
ffff000000007034:	53001c00 	uxtb	w0, w0
ffff000000007038:	7100241f 	cmp	w0, #0x9
ffff00000000703c:	540000a1 	b.ne	ffff000000007050 <sdSendCommandP+0x28c>
ffff000000007040:	d0000440 	adrp	x0, ffff000000091000 <mem_map+0x7d3d0>
ffff000000007044:	91122000 	add	x0, x0, #0x488
ffff000000007048:	97fffd9e 	bl	ffff0000000066c0 <unpack_csd>
ffff00000000704c:	1400001c 	b	ffff0000000070bc <sdSendCommandP+0x2f8>
ffff000000007050:	d0000440 	adrp	x0, ffff000000091000 <mem_map+0x7d3d0>
ffff000000007054:	9111e000 	add	x0, x0, #0x478
ffff000000007058:	f90013a0 	str	x0, [x29,#32]
ffff00000000705c:	f94013a0 	ldr	x0, [x29,#32]
ffff000000007060:	91003000 	add	x0, x0, #0xc
ffff000000007064:	b9402ba1 	ldr	w1, [x29,#40]
ffff000000007068:	b9000001 	str	w1, [x0]
ffff00000000706c:	f94013a0 	ldr	x0, [x29,#32]
ffff000000007070:	91002000 	add	x0, x0, #0x8
ffff000000007074:	d2800281 	mov	x1, #0x14                  	// #20
ffff000000007078:	f2a7e601 	movk	x1, #0x3f30, lsl #16
ffff00000000707c:	f2ffffe1 	movk	x1, #0xffff, lsl #48
ffff000000007080:	b9400021 	ldr	w1, [x1]
ffff000000007084:	b9000001 	str	w1, [x0]
ffff000000007088:	f94013a0 	ldr	x0, [x29,#32]
ffff00000000708c:	91001000 	add	x0, x0, #0x4
ffff000000007090:	d2800301 	mov	x1, #0x18                  	// #24
ffff000000007094:	f2a7e601 	movk	x1, #0x3f30, lsl #16
ffff000000007098:	f2ffffe1 	movk	x1, #0xffff, lsl #48
ffff00000000709c:	b9400021 	ldr	w1, [x1]
ffff0000000070a0:	b9000001 	str	w1, [x0]
ffff0000000070a4:	d2800380 	mov	x0, #0x1c                  	// #28
ffff0000000070a8:	f2a7e600 	movk	x0, #0x3f30, lsl #16
ffff0000000070ac:	f2ffffe0 	movk	x0, #0xffff, lsl #48
ffff0000000070b0:	b9400001 	ldr	w1, [x0]
ffff0000000070b4:	f94013a0 	ldr	x0, [x29,#32]
ffff0000000070b8:	b9000001 	str	w1, [x0]
ffff0000000070bc:	52800000 	mov	w0, #0x0                   	// #0
ffff0000000070c0:	a8c37bfd 	ldp	x29, x30, [sp],#48
ffff0000000070c4:	d65f03c0 	ret

ffff0000000070c8 <sdSendAppCommand>:
ffff0000000070c8:	a9be7bfd 	stp	x29, x30, [sp,#-32]!
ffff0000000070cc:	910003fd 	mov	x29, sp
ffff0000000070d0:	d0000440 	adrp	x0, ffff000000091000 <mem_map+0x7d3d0>
ffff0000000070d4:	9111e000 	add	x0, x0, #0x478
ffff0000000070d8:	b9403c00 	ldr	w0, [x0,#60]
ffff0000000070dc:	7100001f 	cmp	w0, #0x0
ffff0000000070e0:	540000c1 	b.ne	ffff0000000070f8 <sdSendAppCommand+0x30>
ffff0000000070e4:	90000060 	adrp	x0, ffff000000013000 <sdCommandTable+0x110>
ffff0000000070e8:	9106a000 	add	x0, x0, #0x1a8
ffff0000000070ec:	52800001 	mov	w1, #0x0                   	// #0
ffff0000000070f0:	97ffff35 	bl	ffff000000006dc4 <sdSendCommandP>
ffff0000000070f4:	14000016 	b	ffff00000000714c <sdSendAppCommand+0x84>
ffff0000000070f8:	d0000440 	adrp	x0, ffff000000091000 <mem_map+0x7d3d0>
ffff0000000070fc:	9111e000 	add	x0, x0, #0x478
ffff000000007100:	b9403c01 	ldr	w1, [x0,#60]
ffff000000007104:	90000060 	adrp	x0, ffff000000013000 <sdCommandTable+0x110>
ffff000000007108:	91070000 	add	x0, x0, #0x1c0
ffff00000000710c:	97ffff2e 	bl	ffff000000006dc4 <sdSendCommandP>
ffff000000007110:	b9001fa0 	str	w0, [x29,#28]
ffff000000007114:	b9401fa0 	ldr	w0, [x29,#28]
ffff000000007118:	7100001f 	cmp	w0, #0x0
ffff00000000711c:	54000080 	b.eq	ffff00000000712c <sdSendAppCommand+0x64>
ffff000000007120:	b9401fa0 	ldr	w0, [x29,#28]
ffff000000007124:	97fffc17 	bl	ffff000000006180 <sdDebugResponse>
ffff000000007128:	1400000a 	b	ffff000000007150 <sdSendAppCommand+0x88>
ffff00000000712c:	d0000440 	adrp	x0, ffff000000091000 <mem_map+0x7d3d0>
ffff000000007130:	9111e000 	add	x0, x0, #0x478
ffff000000007134:	b9404400 	ldr	w0, [x0,#68]
ffff000000007138:	121b0000 	and	w0, w0, #0x20
ffff00000000713c:	7100001f 	cmp	w0, #0x0
ffff000000007140:	54000061 	b.ne	ffff00000000714c <sdSendAppCommand+0x84>
ffff000000007144:	52800020 	mov	w0, #0x1                   	// #1
ffff000000007148:	14000002 	b	ffff000000007150 <sdSendAppCommand+0x88>
ffff00000000714c:	52800000 	mov	w0, #0x0                   	// #0
ffff000000007150:	a8c27bfd 	ldp	x29, x30, [sp],#32
ffff000000007154:	d65f03c0 	ret

ffff000000007158 <sdSendCommand>:
ffff000000007158:	a9bd7bfd 	stp	x29, x30, [sp,#-48]!
ffff00000000715c:	910003fd 	mov	x29, sp
ffff000000007160:	b9001fa0 	str	w0, [x29,#28]
ffff000000007164:	b9401fa0 	ldr	w0, [x29,#28]
ffff000000007168:	71007c1f 	cmp	w0, #0x1f
ffff00000000716c:	5400012d 	b.le	ffff000000007190 <sdSendCommand+0x38>
ffff000000007170:	97ffffd6 	bl	ffff0000000070c8 <sdSendAppCommand>
ffff000000007174:	b9002ba0 	str	w0, [x29,#40]
ffff000000007178:	b9402ba0 	ldr	w0, [x29,#40]
ffff00000000717c:	7100001f 	cmp	w0, #0x0
ffff000000007180:	54000080 	b.eq	ffff000000007190 <sdSendCommand+0x38>
ffff000000007184:	b9402ba0 	ldr	w0, [x29,#40]
ffff000000007188:	97fffbfe 	bl	ffff000000006180 <sdDebugResponse>
ffff00000000718c:	1400002d 	b	ffff000000007240 <sdSendCommand+0xe8>
ffff000000007190:	b9801fa1 	ldrsw	x1, [x29,#28]
ffff000000007194:	d2800300 	mov	x0, #0x18                  	// #24
ffff000000007198:	9b007c21 	mul	x1, x1, x0
ffff00000000719c:	f0000040 	adrp	x0, ffff000000012000 <sys_call_table+0x1c8>
ffff0000000071a0:	913bc000 	add	x0, x0, #0xef0
ffff0000000071a4:	8b000020 	add	x0, x1, x0
ffff0000000071a8:	f90013a0 	str	x0, [x29,#32]
ffff0000000071ac:	b9002fbf 	str	wzr, [x29,#44]
ffff0000000071b0:	f94013a0 	ldr	x0, [x29,#32]
ffff0000000071b4:	39405000 	ldrb	w0, [x0,#20]
ffff0000000071b8:	12000000 	and	w0, w0, #0x1
ffff0000000071bc:	53001c00 	uxtb	w0, w0
ffff0000000071c0:	7100001f 	cmp	w0, #0x0
ffff0000000071c4:	540000a0 	b.eq	ffff0000000071d8 <sdSendCommand+0x80>
ffff0000000071c8:	d0000440 	adrp	x0, ffff000000091000 <mem_map+0x7d3d0>
ffff0000000071cc:	9111e000 	add	x0, x0, #0x478
ffff0000000071d0:	b9403c00 	ldr	w0, [x0,#60]
ffff0000000071d4:	b9002fa0 	str	w0, [x29,#44]
ffff0000000071d8:	b9402fa1 	ldr	w1, [x29,#44]
ffff0000000071dc:	f94013a0 	ldr	x0, [x29,#32]
ffff0000000071e0:	97fffef9 	bl	ffff000000006dc4 <sdSendCommandP>
ffff0000000071e4:	b9002ba0 	str	w0, [x29,#40]
ffff0000000071e8:	b9402ba0 	ldr	w0, [x29,#40]
ffff0000000071ec:	7100001f 	cmp	w0, #0x0
ffff0000000071f0:	54000060 	b.eq	ffff0000000071fc <sdSendCommand+0xa4>
ffff0000000071f4:	b9402ba0 	ldr	w0, [x29,#40]
ffff0000000071f8:	14000012 	b	ffff000000007240 <sdSendCommand+0xe8>
ffff0000000071fc:	b9401fa0 	ldr	w0, [x29,#28]
ffff000000007200:	71007c1f 	cmp	w0, #0x1f
ffff000000007204:	540001cd 	b.le	ffff00000000723c <sdSendCommand+0xe4>
ffff000000007208:	d0000440 	adrp	x0, ffff000000091000 <mem_map+0x7d3d0>
ffff00000000720c:	9111e000 	add	x0, x0, #0x478
ffff000000007210:	b9403c00 	ldr	w0, [x0,#60]
ffff000000007214:	7100001f 	cmp	w0, #0x0
ffff000000007218:	54000120 	b.eq	ffff00000000723c <sdSendCommand+0xe4>
ffff00000000721c:	d0000440 	adrp	x0, ffff000000091000 <mem_map+0x7d3d0>
ffff000000007220:	9111e000 	add	x0, x0, #0x478
ffff000000007224:	b9404400 	ldr	w0, [x0,#68]
ffff000000007228:	121b0000 	and	w0, w0, #0x20
ffff00000000722c:	7100001f 	cmp	w0, #0x0
ffff000000007230:	54000061 	b.ne	ffff00000000723c <sdSendCommand+0xe4>
ffff000000007234:	52800120 	mov	w0, #0x9                   	// #9
ffff000000007238:	14000002 	b	ffff000000007240 <sdSendCommand+0xe8>
ffff00000000723c:	b9402ba0 	ldr	w0, [x29,#40]
ffff000000007240:	a8c37bfd 	ldp	x29, x30, [sp],#48
ffff000000007244:	d65f03c0 	ret

ffff000000007248 <sdSendCommandA>:
ffff000000007248:	a9bd7bfd 	stp	x29, x30, [sp,#-48]!
ffff00000000724c:	910003fd 	mov	x29, sp
ffff000000007250:	b9001fa0 	str	w0, [x29,#28]
ffff000000007254:	b9001ba1 	str	w1, [x29,#24]
ffff000000007258:	b9401fa0 	ldr	w0, [x29,#28]
ffff00000000725c:	71007c1f 	cmp	w0, #0x1f
ffff000000007260:	5400012d 	b.le	ffff000000007284 <sdSendCommandA+0x3c>
ffff000000007264:	97ffff99 	bl	ffff0000000070c8 <sdSendAppCommand>
ffff000000007268:	b9002fa0 	str	w0, [x29,#44]
ffff00000000726c:	b9402fa0 	ldr	w0, [x29,#44]
ffff000000007270:	7100001f 	cmp	w0, #0x0
ffff000000007274:	54000080 	b.eq	ffff000000007284 <sdSendCommandA+0x3c>
ffff000000007278:	b9402fa0 	ldr	w0, [x29,#44]
ffff00000000727c:	97fffbc1 	bl	ffff000000006180 <sdDebugResponse>
ffff000000007280:	14000020 	b	ffff000000007300 <sdSendCommandA+0xb8>
ffff000000007284:	b9801fa1 	ldrsw	x1, [x29,#28]
ffff000000007288:	d2800300 	mov	x0, #0x18                  	// #24
ffff00000000728c:	9b007c21 	mul	x1, x1, x0
ffff000000007290:	f0000040 	adrp	x0, ffff000000012000 <sys_call_table+0x1c8>
ffff000000007294:	913bc000 	add	x0, x0, #0xef0
ffff000000007298:	8b000020 	add	x0, x1, x0
ffff00000000729c:	b9401ba1 	ldr	w1, [x29,#24]
ffff0000000072a0:	97fffec9 	bl	ffff000000006dc4 <sdSendCommandP>
ffff0000000072a4:	b9002fa0 	str	w0, [x29,#44]
ffff0000000072a8:	b9402fa0 	ldr	w0, [x29,#44]
ffff0000000072ac:	7100001f 	cmp	w0, #0x0
ffff0000000072b0:	54000060 	b.eq	ffff0000000072bc <sdSendCommandA+0x74>
ffff0000000072b4:	b9402fa0 	ldr	w0, [x29,#44]
ffff0000000072b8:	14000012 	b	ffff000000007300 <sdSendCommandA+0xb8>
ffff0000000072bc:	b9401fa0 	ldr	w0, [x29,#28]
ffff0000000072c0:	71007c1f 	cmp	w0, #0x1f
ffff0000000072c4:	540001cd 	b.le	ffff0000000072fc <sdSendCommandA+0xb4>
ffff0000000072c8:	d0000440 	adrp	x0, ffff000000091000 <mem_map+0x7d3d0>
ffff0000000072cc:	9111e000 	add	x0, x0, #0x478
ffff0000000072d0:	b9403c00 	ldr	w0, [x0,#60]
ffff0000000072d4:	7100001f 	cmp	w0, #0x0
ffff0000000072d8:	54000120 	b.eq	ffff0000000072fc <sdSendCommandA+0xb4>
ffff0000000072dc:	d0000440 	adrp	x0, ffff000000091000 <mem_map+0x7d3d0>
ffff0000000072e0:	9111e000 	add	x0, x0, #0x478
ffff0000000072e4:	b9404400 	ldr	w0, [x0,#68]
ffff0000000072e8:	121b0000 	and	w0, w0, #0x20
ffff0000000072ec:	7100001f 	cmp	w0, #0x0
ffff0000000072f0:	54000061 	b.ne	ffff0000000072fc <sdSendCommandA+0xb4>
ffff0000000072f4:	52800120 	mov	w0, #0x9                   	// #9
ffff0000000072f8:	14000002 	b	ffff000000007300 <sdSendCommandA+0xb8>
ffff0000000072fc:	b9402fa0 	ldr	w0, [x29,#44]
ffff000000007300:	a8c37bfd 	ldp	x29, x30, [sp],#48
ffff000000007304:	d65f03c0 	ret

ffff000000007308 <sdReadSCR>:
ffff000000007308:	a9be7bfd 	stp	x29, x30, [sp,#-32]!
ffff00000000730c:	910003fd 	mov	x29, sp
ffff000000007310:	97fffc9c 	bl	ffff000000006580 <sdWaitForData>
ffff000000007314:	7100001f 	cmp	w0, #0x0
ffff000000007318:	54000060 	b.eq	ffff000000007324 <sdReadSCR+0x1c>
ffff00000000731c:	52800040 	mov	w0, #0x2                   	// #2
ffff000000007320:	14000090 	b	ffff000000007560 <sdReadSCR+0x258>
ffff000000007324:	d2800081 	mov	x1, #0x4                   	// #4
ffff000000007328:	f2a7e601 	movk	x1, #0x3f30, lsl #16
ffff00000000732c:	f2ffffe1 	movk	x1, #0xffff, lsl #48
ffff000000007330:	b9400020 	ldr	w0, [x1]
ffff000000007334:	12003c00 	and	w0, w0, #0xffff
ffff000000007338:	32100000 	orr	w0, w0, #0x10000
ffff00000000733c:	b9000020 	str	w0, [x1]
ffff000000007340:	d2800081 	mov	x1, #0x4                   	// #4
ffff000000007344:	f2a7e601 	movk	x1, #0x3f30, lsl #16
ffff000000007348:	f2ffffe1 	movk	x1, #0xffff, lsl #48
ffff00000000734c:	b9400020 	ldr	w0, [x1]
ffff000000007350:	52800102 	mov	w2, #0x8                   	// #8
ffff000000007354:	33002440 	bfxil	w0, w2, #0, #10
ffff000000007358:	b9000020 	str	w0, [x1]
ffff00000000735c:	528004c0 	mov	w0, #0x26                  	// #38
ffff000000007360:	97ffff7e 	bl	ffff000000007158 <sdSendCommand>
ffff000000007364:	b90017a0 	str	w0, [x29,#20]
ffff000000007368:	b94017a0 	ldr	w0, [x29,#20]
ffff00000000736c:	7100001f 	cmp	w0, #0x0
ffff000000007370:	54000080 	b.eq	ffff000000007380 <sdReadSCR+0x78>
ffff000000007374:	b94017a0 	ldr	w0, [x29,#20]
ffff000000007378:	97fffb82 	bl	ffff000000006180 <sdDebugResponse>
ffff00000000737c:	14000079 	b	ffff000000007560 <sdReadSCR+0x258>
ffff000000007380:	52800400 	mov	w0, #0x20                  	// #32
ffff000000007384:	97fffbb2 	bl	ffff00000000624c <sdWaitForInterrupt>
ffff000000007388:	b90017a0 	str	w0, [x29,#20]
ffff00000000738c:	b94017a0 	ldr	w0, [x29,#20]
ffff000000007390:	7100001f 	cmp	w0, #0x0
ffff000000007394:	540001e0 	b.eq	ffff0000000073d0 <sdReadSCR+0xc8>
ffff000000007398:	d0000440 	adrp	x0, ffff000000091000 <mem_map+0x7d3d0>
ffff00000000739c:	9111c000 	add	x0, x0, #0x470
ffff0000000073a0:	f9400000 	ldr	x0, [x0]
ffff0000000073a4:	f100001f 	cmp	x0, #0x0
ffff0000000073a8:	540000e0 	b.eq	ffff0000000073c4 <sdReadSCR+0xbc>
ffff0000000073ac:	d0000440 	adrp	x0, ffff000000091000 <mem_map+0x7d3d0>
ffff0000000073b0:	9111c000 	add	x0, x0, #0x470
ffff0000000073b4:	f9400001 	ldr	x1, [x0]
ffff0000000073b8:	f0000040 	adrp	x0, ffff000000012000 <sys_call_table+0x1c8>
ffff0000000073bc:	91050000 	add	x0, x0, #0x140
ffff0000000073c0:	d63f0020 	blr	x1
ffff0000000073c4:	b94017a0 	ldr	w0, [x29,#20]
ffff0000000073c8:	97fffb6e 	bl	ffff000000006180 <sdDebugResponse>
ffff0000000073cc:	14000065 	b	ffff000000007560 <sdReadSCR+0x258>
ffff0000000073d0:	b9001fbf 	str	wzr, [x29,#28]
ffff0000000073d4:	5290d400 	mov	w0, #0x86a0                	// #34464
ffff0000000073d8:	72a00020 	movk	w0, #0x1, lsl #16
ffff0000000073dc:	b9001ba0 	str	w0, [x29,#24]
ffff0000000073e0:	14000037 	b	ffff0000000074bc <sdReadSCR+0x1b4>
ffff0000000073e4:	d2800480 	mov	x0, #0x24                  	// #36
ffff0000000073e8:	f2a7e600 	movk	x0, #0x3f30, lsl #16
ffff0000000073ec:	f2ffffe0 	movk	x0, #0xffff, lsl #48
ffff0000000073f0:	b9400000 	ldr	w0, [x0]
ffff0000000073f4:	d3492400 	ubfx	x0, x0, #9, #1
ffff0000000073f8:	53001c00 	uxtb	w0, w0
ffff0000000073fc:	7100001f 	cmp	w0, #0x0
ffff000000007400:	540004e0 	b.eq	ffff00000000749c <sdReadSCR+0x194>
ffff000000007404:	b9401fa0 	ldr	w0, [x29,#28]
ffff000000007408:	7100001f 	cmp	w0, #0x0
ffff00000000740c:	54000221 	b.ne	ffff000000007450 <sdReadSCR+0x148>
ffff000000007410:	d2800400 	mov	x0, #0x20                  	// #32
ffff000000007414:	f2a7e600 	movk	x0, #0x3f30, lsl #16
ffff000000007418:	f2ffffe0 	movk	x0, #0xffff, lsl #48
ffff00000000741c:	b9400001 	ldr	w1, [x0]
ffff000000007420:	d0000440 	adrp	x0, ffff000000091000 <mem_map+0x7d3d0>
ffff000000007424:	9111e000 	add	x0, x0, #0x478
ffff000000007428:	b9002401 	str	w1, [x0,#36]
ffff00000000742c:	d0000440 	adrp	x0, ffff000000091000 <mem_map+0x7d3d0>
ffff000000007430:	9111e000 	add	x0, x0, #0x478
ffff000000007434:	b9402400 	ldr	w0, [x0,#36]
ffff000000007438:	2a0003e2 	mov	w2, w0
ffff00000000743c:	b00004a0 	adrp	x0, ffff00000009c000 <task+0x18>
ffff000000007440:	91222000 	add	x0, x0, #0x888
ffff000000007444:	b9801fa1 	ldrsw	x1, [x29,#28]
ffff000000007448:	f8217802 	str	x2, [x0,x1,lsl #3]
ffff00000000744c:	14000010 	b	ffff00000000748c <sdReadSCR+0x184>
ffff000000007450:	d2800400 	mov	x0, #0x20                  	// #32
ffff000000007454:	f2a7e600 	movk	x0, #0x3f30, lsl #16
ffff000000007458:	f2ffffe0 	movk	x0, #0xffff, lsl #48
ffff00000000745c:	b9400001 	ldr	w1, [x0]
ffff000000007460:	d0000440 	adrp	x0, ffff000000091000 <mem_map+0x7d3d0>
ffff000000007464:	9111e000 	add	x0, x0, #0x478
ffff000000007468:	b9002801 	str	w1, [x0,#40]
ffff00000000746c:	d0000440 	adrp	x0, ffff000000091000 <mem_map+0x7d3d0>
ffff000000007470:	9111e000 	add	x0, x0, #0x478
ffff000000007474:	b9402800 	ldr	w0, [x0,#40]
ffff000000007478:	2a0003e2 	mov	w2, w0
ffff00000000747c:	b00004a0 	adrp	x0, ffff00000009c000 <task+0x18>
ffff000000007480:	91222000 	add	x0, x0, #0x888
ffff000000007484:	b9801fa1 	ldrsw	x1, [x29,#28]
ffff000000007488:	f8217802 	str	x2, [x0,x1,lsl #3]
ffff00000000748c:	b9401fa0 	ldr	w0, [x29,#28]
ffff000000007490:	11000400 	add	w0, w0, #0x1
ffff000000007494:	b9001fa0 	str	w0, [x29,#28]
ffff000000007498:	14000009 	b	ffff0000000074bc <sdReadSCR+0x1b4>
ffff00000000749c:	52800020 	mov	w0, #0x1                   	// #1
ffff0000000074a0:	940010a9 	bl	ffff00000000b744 <wait_msec>
ffff0000000074a4:	b9401ba0 	ldr	w0, [x29,#24]
ffff0000000074a8:	51000400 	sub	w0, w0, #0x1
ffff0000000074ac:	b9001ba0 	str	w0, [x29,#24]
ffff0000000074b0:	b9401ba0 	ldr	w0, [x29,#24]
ffff0000000074b4:	7100001f 	cmp	w0, #0x0
ffff0000000074b8:	540000a0 	b.eq	ffff0000000074cc <sdReadSCR+0x1c4>
ffff0000000074bc:	b9401fa0 	ldr	w0, [x29,#28]
ffff0000000074c0:	7100041f 	cmp	w0, #0x1
ffff0000000074c4:	54fff90d 	b.le	ffff0000000073e4 <sdReadSCR+0xdc>
ffff0000000074c8:	14000002 	b	ffff0000000074d0 <sdReadSCR+0x1c8>
ffff0000000074cc:	d503201f 	nop
ffff0000000074d0:	b9401fa0 	ldr	w0, [x29,#28]
ffff0000000074d4:	7100081f 	cmp	w0, #0x2
ffff0000000074d8:	54000420 	b.eq	ffff00000000755c <sdReadSCR+0x254>
ffff0000000074dc:	d0000440 	adrp	x0, ffff000000091000 <mem_map+0x7d3d0>
ffff0000000074e0:	9111c000 	add	x0, x0, #0x470
ffff0000000074e4:	f9400000 	ldr	x0, [x0]
ffff0000000074e8:	f100001f 	cmp	x0, #0x0
ffff0000000074ec:	54000340 	b.eq	ffff000000007554 <sdReadSCR+0x24c>
ffff0000000074f0:	d0000440 	adrp	x0, ffff000000091000 <mem_map+0x7d3d0>
ffff0000000074f4:	9111c000 	add	x0, x0, #0x470
ffff0000000074f8:	f9400004 	ldr	x4, [x0]
ffff0000000074fc:	d2800480 	mov	x0, #0x24                  	// #36
ffff000000007500:	f2a7e600 	movk	x0, #0x3f30, lsl #16
ffff000000007504:	f2ffffe0 	movk	x0, #0xffff, lsl #48
ffff000000007508:	b9400001 	ldr	w1, [x0]
ffff00000000750c:	d2800600 	mov	x0, #0x30                  	// #48
ffff000000007510:	f2a7e600 	movk	x0, #0x3f30, lsl #16
ffff000000007514:	f2ffffe0 	movk	x0, #0xffff, lsl #48
ffff000000007518:	b9400002 	ldr	w2, [x0]
ffff00000000751c:	d2800200 	mov	x0, #0x10                  	// #16
ffff000000007520:	f2a7e600 	movk	x0, #0x3f30, lsl #16
ffff000000007524:	f2ffffe0 	movk	x0, #0xffff, lsl #48
ffff000000007528:	b9400003 	ldr	w3, [x0]
ffff00000000752c:	f0000040 	adrp	x0, ffff000000012000 <sys_call_table+0x1c8>
ffff000000007530:	9105c000 	add	x0, x0, #0x170
ffff000000007534:	d63f0080 	blr	x4
ffff000000007538:	d0000440 	adrp	x0, ffff000000091000 <mem_map+0x7d3d0>
ffff00000000753c:	9111c000 	add	x0, x0, #0x470
ffff000000007540:	f9400002 	ldr	x2, [x0]
ffff000000007544:	f0000040 	adrp	x0, ffff000000012000 <sys_call_table+0x1c8>
ffff000000007548:	91064000 	add	x0, x0, #0x190
ffff00000000754c:	b9401fa1 	ldr	w1, [x29,#28]
ffff000000007550:	d63f0040 	blr	x2
ffff000000007554:	52800040 	mov	w0, #0x2                   	// #2
ffff000000007558:	14000002 	b	ffff000000007560 <sdReadSCR+0x258>
ffff00000000755c:	52800000 	mov	w0, #0x0                   	// #0
ffff000000007560:	a8c27bfd 	ldp	x29, x30, [sp],#32
ffff000000007564:	d65f03c0 	ret

ffff000000007568 <fls_uint32_t>:
ffff000000007568:	d10083ff 	sub	sp, sp, #0x20
ffff00000000756c:	b9000fe0 	str	w0, [sp,#12]
ffff000000007570:	52800400 	mov	w0, #0x20                  	// #32
ffff000000007574:	39007fe0 	strb	w0, [sp,#31]
ffff000000007578:	b9400fe0 	ldr	w0, [sp,#12]
ffff00000000757c:	7100001f 	cmp	w0, #0x0
ffff000000007580:	54000061 	b.ne	ffff00000000758c <fls_uint32_t+0x24>
ffff000000007584:	52800000 	mov	w0, #0x0                   	// #0
ffff000000007588:	14000033 	b	ffff000000007654 <fls_uint32_t+0xec>
ffff00000000758c:	b9400fe0 	ldr	w0, [sp,#12]
ffff000000007590:	12103c00 	and	w0, w0, #0xffff0000
ffff000000007594:	7100001f 	cmp	w0, #0x0
ffff000000007598:	540000e1 	b.ne	ffff0000000075b4 <fls_uint32_t+0x4c>
ffff00000000759c:	b9400fe0 	ldr	w0, [sp,#12]
ffff0000000075a0:	53103c00 	lsl	w0, w0, #16
ffff0000000075a4:	b9000fe0 	str	w0, [sp,#12]
ffff0000000075a8:	39407fe0 	ldrb	w0, [sp,#31]
ffff0000000075ac:	51004000 	sub	w0, w0, #0x10
ffff0000000075b0:	39007fe0 	strb	w0, [sp,#31]
ffff0000000075b4:	b9400fe0 	ldr	w0, [sp,#12]
ffff0000000075b8:	12081c00 	and	w0, w0, #0xff000000
ffff0000000075bc:	7100001f 	cmp	w0, #0x0
ffff0000000075c0:	540000e1 	b.ne	ffff0000000075dc <fls_uint32_t+0x74>
ffff0000000075c4:	b9400fe0 	ldr	w0, [sp,#12]
ffff0000000075c8:	53185c00 	lsl	w0, w0, #8
ffff0000000075cc:	b9000fe0 	str	w0, [sp,#12]
ffff0000000075d0:	39407fe0 	ldrb	w0, [sp,#31]
ffff0000000075d4:	51002000 	sub	w0, w0, #0x8
ffff0000000075d8:	39007fe0 	strb	w0, [sp,#31]
ffff0000000075dc:	b9400fe0 	ldr	w0, [sp,#12]
ffff0000000075e0:	12040c00 	and	w0, w0, #0xf0000000
ffff0000000075e4:	7100001f 	cmp	w0, #0x0
ffff0000000075e8:	540000e1 	b.ne	ffff000000007604 <fls_uint32_t+0x9c>
ffff0000000075ec:	b9400fe0 	ldr	w0, [sp,#12]
ffff0000000075f0:	531c6c00 	lsl	w0, w0, #4
ffff0000000075f4:	b9000fe0 	str	w0, [sp,#12]
ffff0000000075f8:	39407fe0 	ldrb	w0, [sp,#31]
ffff0000000075fc:	51001000 	sub	w0, w0, #0x4
ffff000000007600:	39007fe0 	strb	w0, [sp,#31]
ffff000000007604:	b9400fe0 	ldr	w0, [sp,#12]
ffff000000007608:	12020400 	and	w0, w0, #0xc0000000
ffff00000000760c:	7100001f 	cmp	w0, #0x0
ffff000000007610:	540000e1 	b.ne	ffff00000000762c <fls_uint32_t+0xc4>
ffff000000007614:	b9400fe0 	ldr	w0, [sp,#12]
ffff000000007618:	531e7400 	lsl	w0, w0, #2
ffff00000000761c:	b9000fe0 	str	w0, [sp,#12]
ffff000000007620:	39407fe0 	ldrb	w0, [sp,#31]
ffff000000007624:	51000800 	sub	w0, w0, #0x2
ffff000000007628:	39007fe0 	strb	w0, [sp,#31]
ffff00000000762c:	b9400fe0 	ldr	w0, [sp,#12]
ffff000000007630:	7100001f 	cmp	w0, #0x0
ffff000000007634:	540000eb 	b.lt	ffff000000007650 <fls_uint32_t+0xe8>
ffff000000007638:	b9400fe0 	ldr	w0, [sp,#12]
ffff00000000763c:	0b000000 	add	w0, w0, w0
ffff000000007640:	b9000fe0 	str	w0, [sp,#12]
ffff000000007644:	39407fe0 	ldrb	w0, [sp,#31]
ffff000000007648:	51000400 	sub	w0, w0, #0x1
ffff00000000764c:	39007fe0 	strb	w0, [sp,#31]
ffff000000007650:	39407fe0 	ldrb	w0, [sp,#31]
ffff000000007654:	910083ff 	add	sp, sp, #0x20
ffff000000007658:	d65f03c0 	ret

ffff00000000765c <sdGetClockDivider>:
ffff00000000765c:	a9bd7bfd 	stp	x29, x30, [sp,#-48]!
ffff000000007660:	910003fd 	mov	x29, sp
ffff000000007664:	b9001fa0 	str	w0, [x29,#28]
ffff000000007668:	b9401fa1 	ldr	w1, [x29,#28]
ffff00000000766c:	52990d40 	mov	w0, #0xc86a                	// #51306
ffff000000007670:	72a04f60 	movk	w0, #0x27b, lsl #16
ffff000000007674:	0b000021 	add	w1, w1, w0
ffff000000007678:	b9401fa0 	ldr	w0, [x29,#28]
ffff00000000767c:	1ac00820 	udiv	w0, w1, w0
ffff000000007680:	b9002fa0 	str	w0, [x29,#44]
ffff000000007684:	b9402fa0 	ldr	w0, [x29,#44]
ffff000000007688:	710ffc1f 	cmp	w0, #0x3ff
ffff00000000768c:	54000069 	b.ls	ffff000000007698 <sdGetClockDivider+0x3c>
ffff000000007690:	52807fe0 	mov	w0, #0x3ff                 	// #1023
ffff000000007694:	b9002fa0 	str	w0, [x29,#44]
ffff000000007698:	d2801f80 	mov	x0, #0xfc                  	// #252
ffff00000000769c:	f2a7e600 	movk	x0, #0x3f30, lsl #16
ffff0000000076a0:	f2ffffe0 	movk	x0, #0xffff, lsl #48
ffff0000000076a4:	b9400000 	ldr	w0, [x0]
ffff0000000076a8:	d3505c00 	ubfx	x0, x0, #16, #8
ffff0000000076ac:	53001c00 	uxtb	w0, w0
ffff0000000076b0:	7100041f 	cmp	w0, #0x1
ffff0000000076b4:	54000288 	b.hi	ffff000000007704 <sdGetClockDivider+0xa8>
ffff0000000076b8:	b9402fa0 	ldr	w0, [x29,#44]
ffff0000000076bc:	97ffffab 	bl	ffff000000007568 <fls_uint32_t>
ffff0000000076c0:	3900afa0 	strb	w0, [x29,#43]
ffff0000000076c4:	3940afa0 	ldrb	w0, [x29,#43]
ffff0000000076c8:	7100001f 	cmp	w0, #0x0
ffff0000000076cc:	54000080 	b.eq	ffff0000000076dc <sdGetClockDivider+0x80>
ffff0000000076d0:	3940afa0 	ldrb	w0, [x29,#43]
ffff0000000076d4:	51000400 	sub	w0, w0, #0x1
ffff0000000076d8:	3900afa0 	strb	w0, [x29,#43]
ffff0000000076dc:	3940afa0 	ldrb	w0, [x29,#43]
ffff0000000076e0:	71001c1f 	cmp	w0, #0x7
ffff0000000076e4:	54000069 	b.ls	ffff0000000076f0 <sdGetClockDivider+0x94>
ffff0000000076e8:	528000e0 	mov	w0, #0x7                   	// #7
ffff0000000076ec:	3900afa0 	strb	w0, [x29,#43]
ffff0000000076f0:	3940afa0 	ldrb	w0, [x29,#43]
ffff0000000076f4:	52800021 	mov	w1, #0x1                   	// #1
ffff0000000076f8:	1ac02020 	lsl	w0, w1, w0
ffff0000000076fc:	b9002fa0 	str	w0, [x29,#44]
ffff000000007700:	14000006 	b	ffff000000007718 <sdGetClockDivider+0xbc>
ffff000000007704:	b9402fa0 	ldr	w0, [x29,#44]
ffff000000007708:	7100081f 	cmp	w0, #0x2
ffff00000000770c:	54000068 	b.hi	ffff000000007718 <sdGetClockDivider+0xbc>
ffff000000007710:	52800080 	mov	w0, #0x4                   	// #4
ffff000000007714:	b9002fa0 	str	w0, [x29,#44]
ffff000000007718:	b9402fa0 	ldr	w0, [x29,#44]
ffff00000000771c:	a8c37bfd 	ldp	x29, x30, [sp],#48
ffff000000007720:	d65f03c0 	ret

ffff000000007724 <sdSetClock>:
ffff000000007724:	a9bb7bfd 	stp	x29, x30, [sp,#-80]!
ffff000000007728:	910003fd 	mov	x29, sp
ffff00000000772c:	b9001fa0 	str	w0, [x29,#28]
ffff000000007730:	f90027bf 	str	xzr, [x29,#72]
ffff000000007734:	f90023bf 	str	xzr, [x29,#64]
ffff000000007738:	f0000040 	adrp	x0, ffff000000012000 <sys_call_table+0x1c8>
ffff00000000773c:	9106e000 	add	x0, x0, #0x1b8
ffff000000007740:	b9401fa1 	ldr	w1, [x29,#28]
ffff000000007744:	97fff7f1 	bl	ffff000000005708 <tfp_printf>
ffff000000007748:	1400000c 	b	ffff000000007778 <sdSetClock+0x54>
ffff00000000774c:	f94023a0 	ldr	x0, [x29,#64]
ffff000000007750:	f100001f 	cmp	x0, #0x0
ffff000000007754:	54000081 	b.ne	ffff000000007764 <sdSetClock+0x40>
ffff000000007758:	97fff1a4 	bl	ffff000000003de8 <get_system_timer>
ffff00000000775c:	f90023a0 	str	x0, [x29,#64]
ffff000000007760:	14000006 	b	ffff000000007778 <sdSetClock+0x54>
ffff000000007764:	97fff1a1 	bl	ffff000000003de8 <get_system_timer>
ffff000000007768:	aa0003e1 	mov	x1, x0
ffff00000000776c:	f94023a0 	ldr	x0, [x29,#64]
ffff000000007770:	cb000020 	sub	x0, x1, x0
ffff000000007774:	f90027a0 	str	x0, [x29,#72]
ffff000000007778:	d2800480 	mov	x0, #0x24                  	// #36
ffff00000000777c:	f2a7e600 	movk	x0, #0x3f30, lsl #16
ffff000000007780:	f2ffffe0 	movk	x0, #0xffff, lsl #48
ffff000000007784:	b9400000 	ldr	w0, [x0]
ffff000000007788:	d3400000 	ubfx	x0, x0, #0, #1
ffff00000000778c:	53001c00 	uxtb	w0, w0
ffff000000007790:	7100001f 	cmp	w0, #0x0
ffff000000007794:	54000121 	b.ne	ffff0000000077b8 <sdSetClock+0x94>
ffff000000007798:	d2800480 	mov	x0, #0x24                  	// #36
ffff00000000779c:	f2a7e600 	movk	x0, #0x3f30, lsl #16
ffff0000000077a0:	f2ffffe0 	movk	x0, #0xffff, lsl #48
ffff0000000077a4:	b9400000 	ldr	w0, [x0]
ffff0000000077a8:	d3410400 	ubfx	x0, x0, #1, #1
ffff0000000077ac:	53001c00 	uxtb	w0, w0
ffff0000000077b0:	7100001f 	cmp	w0, #0x0
ffff0000000077b4:	540000c0 	b.eq	ffff0000000077cc <sdSetClock+0xa8>
ffff0000000077b8:	f94027a1 	ldr	x1, [x29,#72]
ffff0000000077bc:	d290d3e0 	mov	x0, #0x869f                	// #34463
ffff0000000077c0:	f2a00020 	movk	x0, #0x1, lsl #16
ffff0000000077c4:	eb00003f 	cmp	x1, x0
ffff0000000077c8:	54fffc29 	b.ls	ffff00000000774c <sdSetClock+0x28>
ffff0000000077cc:	f94027a1 	ldr	x1, [x29,#72]
ffff0000000077d0:	d290d3e0 	mov	x0, #0x869f                	// #34463
ffff0000000077d4:	f2a00020 	movk	x0, #0x1, lsl #16
ffff0000000077d8:	eb00003f 	cmp	x1, x0
ffff0000000077dc:	54000249 	b.ls	ffff000000007824 <sdSetClock+0x100>
ffff0000000077e0:	d0000440 	adrp	x0, ffff000000091000 <mem_map+0x7d3d0>
ffff0000000077e4:	9111c000 	add	x0, x0, #0x470
ffff0000000077e8:	f9400000 	ldr	x0, [x0]
ffff0000000077ec:	f100001f 	cmp	x0, #0x0
ffff0000000077f0:	54000160 	b.eq	ffff00000000781c <sdSetClock+0xf8>
ffff0000000077f4:	d0000440 	adrp	x0, ffff000000091000 <mem_map+0x7d3d0>
ffff0000000077f8:	9111c000 	add	x0, x0, #0x470
ffff0000000077fc:	f9400002 	ldr	x2, [x0]
ffff000000007800:	d2800480 	mov	x0, #0x24                  	// #36
ffff000000007804:	f2a7e600 	movk	x0, #0x3f30, lsl #16
ffff000000007808:	f2ffffe0 	movk	x0, #0xffff, lsl #48
ffff00000000780c:	b9400001 	ldr	w1, [x0]
ffff000000007810:	f0000040 	adrp	x0, ffff000000012000 <sys_call_table+0x1c8>
ffff000000007814:	91078000 	add	x0, x0, #0x1e0
ffff000000007818:	d63f0040 	blr	x2
ffff00000000781c:	528000e0 	mov	w0, #0x7                   	// #7
ffff000000007820:	14000058 	b	ffff000000007980 <sdSetClock+0x25c>
ffff000000007824:	d2800581 	mov	x1, #0x2c                  	// #44
ffff000000007828:	f2a7e601 	movk	x1, #0x3f30, lsl #16
ffff00000000782c:	f2ffffe1 	movk	x1, #0xffff, lsl #48
ffff000000007830:	b9400020 	ldr	w0, [x1]
ffff000000007834:	121d7800 	and	w0, w0, #0xfffffffb
ffff000000007838:	b9000020 	str	w0, [x1]
ffff00000000783c:	52800140 	mov	w0, #0xa                   	// #10
ffff000000007840:	94000fc1 	bl	ffff00000000b744 <wait_msec>
ffff000000007844:	b9401fa0 	ldr	w0, [x29,#28]
ffff000000007848:	97ffff85 	bl	ffff00000000765c <sdGetClockDivider>
ffff00000000784c:	2a0003e0 	mov	w0, w0
ffff000000007850:	f9001fa0 	str	x0, [x29,#56]
ffff000000007854:	f9401fa0 	ldr	x0, [x29,#56]
ffff000000007858:	d378dc00 	lsl	x0, x0, #8
ffff00000000785c:	92403c00 	and	x0, x0, #0xffff
ffff000000007860:	f9001ba0 	str	x0, [x29,#48]
ffff000000007864:	f9401fa0 	ldr	x0, [x29,#56]
ffff000000007868:	92780400 	and	x0, x0, #0x300
ffff00000000786c:	d342fc00 	lsr	x0, x0, #2
ffff000000007870:	f90017a0 	str	x0, [x29,#40]
ffff000000007874:	d2800580 	mov	x0, #0x2c                  	// #44
ffff000000007878:	f2a7e600 	movk	x0, #0x3f30, lsl #16
ffff00000000787c:	f2ffffe0 	movk	x0, #0xffff, lsl #48
ffff000000007880:	d2800581 	mov	x1, #0x2c                  	// #44
ffff000000007884:	f2a7e601 	movk	x1, #0x3f30, lsl #16
ffff000000007888:	f2ffffe1 	movk	x1, #0xffff, lsl #48
ffff00000000788c:	b9400021 	ldr	w1, [x1]
ffff000000007890:	12105021 	and	w1, w1, #0xffff001f
ffff000000007894:	f9401ba2 	ldr	x2, [x29,#48]
ffff000000007898:	2a020021 	orr	w1, w1, w2
ffff00000000789c:	f94017a2 	ldr	x2, [x29,#40]
ffff0000000078a0:	2a020021 	orr	w1, w1, w2
ffff0000000078a4:	b9000001 	str	w1, [x0]
ffff0000000078a8:	52800140 	mov	w0, #0xa                   	// #10
ffff0000000078ac:	94000fa6 	bl	ffff00000000b744 <wait_msec>
ffff0000000078b0:	d2800581 	mov	x1, #0x2c                  	// #44
ffff0000000078b4:	f2a7e601 	movk	x1, #0x3f30, lsl #16
ffff0000000078b8:	f2ffffe1 	movk	x1, #0xffff, lsl #48
ffff0000000078bc:	b9400020 	ldr	w0, [x1]
ffff0000000078c0:	321e0000 	orr	w0, w0, #0x4
ffff0000000078c4:	b9000020 	str	w0, [x1]
ffff0000000078c8:	f90027bf 	str	xzr, [x29,#72]
ffff0000000078cc:	f90023bf 	str	xzr, [x29,#64]
ffff0000000078d0:	1400000c 	b	ffff000000007900 <sdSetClock+0x1dc>
ffff0000000078d4:	f94023a0 	ldr	x0, [x29,#64]
ffff0000000078d8:	f100001f 	cmp	x0, #0x0
ffff0000000078dc:	54000081 	b.ne	ffff0000000078ec <sdSetClock+0x1c8>
ffff0000000078e0:	97fff142 	bl	ffff000000003de8 <get_system_timer>
ffff0000000078e4:	f90023a0 	str	x0, [x29,#64]
ffff0000000078e8:	14000006 	b	ffff000000007900 <sdSetClock+0x1dc>
ffff0000000078ec:	97fff13f 	bl	ffff000000003de8 <get_system_timer>
ffff0000000078f0:	aa0003e1 	mov	x1, x0
ffff0000000078f4:	f94023a0 	ldr	x0, [x29,#64]
ffff0000000078f8:	cb000020 	sub	x0, x1, x0
ffff0000000078fc:	f90027a0 	str	x0, [x29,#72]
ffff000000007900:	d2800580 	mov	x0, #0x2c                  	// #44
ffff000000007904:	f2a7e600 	movk	x0, #0x3f30, lsl #16
ffff000000007908:	f2ffffe0 	movk	x0, #0xffff, lsl #48
ffff00000000790c:	b9400000 	ldr	w0, [x0]
ffff000000007910:	d3410400 	ubfx	x0, x0, #1, #1
ffff000000007914:	53001c00 	uxtb	w0, w0
ffff000000007918:	7100001f 	cmp	w0, #0x0
ffff00000000791c:	540000c1 	b.ne	ffff000000007934 <sdSetClock+0x210>
ffff000000007920:	f94027a1 	ldr	x1, [x29,#72]
ffff000000007924:	d290d3e0 	mov	x0, #0x869f                	// #34463
ffff000000007928:	f2a00020 	movk	x0, #0x1, lsl #16
ffff00000000792c:	eb00003f 	cmp	x1, x0
ffff000000007930:	54fffd29 	b.ls	ffff0000000078d4 <sdSetClock+0x1b0>
ffff000000007934:	f94027a1 	ldr	x1, [x29,#72]
ffff000000007938:	d290d3e0 	mov	x0, #0x869f                	// #34463
ffff00000000793c:	f2a00020 	movk	x0, #0x1, lsl #16
ffff000000007940:	eb00003f 	cmp	x1, x0
ffff000000007944:	540001c9 	b.ls	ffff00000000797c <sdSetClock+0x258>
ffff000000007948:	d0000440 	adrp	x0, ffff000000091000 <mem_map+0x7d3d0>
ffff00000000794c:	9111c000 	add	x0, x0, #0x470
ffff000000007950:	f9400000 	ldr	x0, [x0]
ffff000000007954:	f100001f 	cmp	x0, #0x0
ffff000000007958:	540000e0 	b.eq	ffff000000007974 <sdSetClock+0x250>
ffff00000000795c:	d0000440 	adrp	x0, ffff000000091000 <mem_map+0x7d3d0>
ffff000000007960:	9111c000 	add	x0, x0, #0x470
ffff000000007964:	f9400001 	ldr	x1, [x0]
ffff000000007968:	f0000040 	adrp	x0, ffff000000012000 <sys_call_table+0x1c8>
ffff00000000796c:	9108a000 	add	x0, x0, #0x228
ffff000000007970:	d63f0020 	blr	x1
ffff000000007974:	528000e0 	mov	w0, #0x7                   	// #7
ffff000000007978:	14000002 	b	ffff000000007980 <sdSetClock+0x25c>
ffff00000000797c:	52800000 	mov	w0, #0x0                   	// #0
ffff000000007980:	a8c57bfd 	ldp	x29, x30, [sp],#80
ffff000000007984:	d65f03c0 	ret

ffff000000007988 <sdResetCard>:
ffff000000007988:	a9bd7bfd 	stp	x29, x30, [sp,#-48]!
ffff00000000798c:	910003fd 	mov	x29, sp
ffff000000007990:	f90017bf 	str	xzr, [x29,#40]
ffff000000007994:	f90013bf 	str	xzr, [x29,#32]
ffff000000007998:	d2800500 	mov	x0, #0x28                  	// #40
ffff00000000799c:	f2a7e600 	movk	x0, #0x3f30, lsl #16
ffff0000000079a0:	f2ffffe0 	movk	x0, #0xffff, lsl #48
ffff0000000079a4:	b900001f 	str	wzr, [x0]
ffff0000000079a8:	d2800580 	mov	x0, #0x2c                  	// #44
ffff0000000079ac:	f2a7e600 	movk	x0, #0x3f30, lsl #16
ffff0000000079b0:	f2ffffe0 	movk	x0, #0xffff, lsl #48
ffff0000000079b4:	b900001f 	str	wzr, [x0]
ffff0000000079b8:	d2800581 	mov	x1, #0x2c                  	// #44
ffff0000000079bc:	f2a7e601 	movk	x1, #0x3f30, lsl #16
ffff0000000079c0:	f2ffffe1 	movk	x1, #0xffff, lsl #48
ffff0000000079c4:	b9400020 	ldr	w0, [x1]
ffff0000000079c8:	32080000 	orr	w0, w0, #0x1000000
ffff0000000079cc:	b9000020 	str	w0, [x1]
ffff0000000079d0:	52800140 	mov	w0, #0xa                   	// #10
ffff0000000079d4:	94000f5c 	bl	ffff00000000b744 <wait_msec>
ffff0000000079d8:	f0000040 	adrp	x0, ffff000000012000 <sys_call_table+0x1c8>
ffff0000000079dc:	91096000 	add	x0, x0, #0x258
ffff0000000079e0:	97fff74a 	bl	ffff000000005708 <tfp_printf>
ffff0000000079e4:	1400000c 	b	ffff000000007a14 <sdResetCard+0x8c>
ffff0000000079e8:	f94013a0 	ldr	x0, [x29,#32]
ffff0000000079ec:	f100001f 	cmp	x0, #0x0
ffff0000000079f0:	54000081 	b.ne	ffff000000007a00 <sdResetCard+0x78>
ffff0000000079f4:	97fff0fd 	bl	ffff000000003de8 <get_system_timer>
ffff0000000079f8:	f90013a0 	str	x0, [x29,#32]
ffff0000000079fc:	14000006 	b	ffff000000007a14 <sdResetCard+0x8c>
ffff000000007a00:	97fff0fa 	bl	ffff000000003de8 <get_system_timer>
ffff000000007a04:	aa0003e1 	mov	x1, x0
ffff000000007a08:	f94013a0 	ldr	x0, [x29,#32]
ffff000000007a0c:	cb000020 	sub	x0, x1, x0
ffff000000007a10:	f90017a0 	str	x0, [x29,#40]
ffff000000007a14:	d2800580 	mov	x0, #0x2c                  	// #44
ffff000000007a18:	f2a7e600 	movk	x0, #0x3f30, lsl #16
ffff000000007a1c:	f2ffffe0 	movk	x0, #0xffff, lsl #48
ffff000000007a20:	b9400000 	ldr	w0, [x0]
ffff000000007a24:	d3586000 	ubfx	x0, x0, #24, #1
ffff000000007a28:	53001c00 	uxtb	w0, w0
ffff000000007a2c:	7100001f 	cmp	w0, #0x0
ffff000000007a30:	540000c0 	b.eq	ffff000000007a48 <sdResetCard+0xc0>
ffff000000007a34:	f94017a1 	ldr	x1, [x29,#40]
ffff000000007a38:	d290d3e0 	mov	x0, #0x869f                	// #34463
ffff000000007a3c:	f2a00020 	movk	x0, #0x1, lsl #16
ffff000000007a40:	eb00003f 	cmp	x1, x0
ffff000000007a44:	54fffd29 	b.ls	ffff0000000079e8 <sdResetCard+0x60>
ffff000000007a48:	f94017a1 	ldr	x1, [x29,#40]
ffff000000007a4c:	d290d3e0 	mov	x0, #0x869f                	// #34463
ffff000000007a50:	f2a00020 	movk	x0, #0x1, lsl #16
ffff000000007a54:	eb00003f 	cmp	x1, x0
ffff000000007a58:	540001c9 	b.ls	ffff000000007a90 <sdResetCard+0x108>
ffff000000007a5c:	d0000440 	adrp	x0, ffff000000091000 <mem_map+0x7d3d0>
ffff000000007a60:	9111c000 	add	x0, x0, #0x470
ffff000000007a64:	f9400000 	ldr	x0, [x0]
ffff000000007a68:	f100001f 	cmp	x0, #0x0
ffff000000007a6c:	540000e0 	b.eq	ffff000000007a88 <sdResetCard+0x100>
ffff000000007a70:	d0000440 	adrp	x0, ffff000000091000 <mem_map+0x7d3d0>
ffff000000007a74:	9111c000 	add	x0, x0, #0x470
ffff000000007a78:	f9400001 	ldr	x1, [x0]
ffff000000007a7c:	f0000040 	adrp	x0, ffff000000012000 <sys_call_table+0x1c8>
ffff000000007a80:	9109c000 	add	x0, x0, #0x270
ffff000000007a84:	d63f0020 	blr	x1
ffff000000007a88:	528000c0 	mov	w0, #0x6                   	// #6
ffff000000007a8c:	1400004b 	b	ffff000000007bb8 <sdResetCard+0x230>
ffff000000007a90:	d2800581 	mov	x1, #0x2c                  	// #44
ffff000000007a94:	f2a7e601 	movk	x1, #0x3f30, lsl #16
ffff000000007a98:	f2ffffe1 	movk	x1, #0xffff, lsl #48
ffff000000007a9c:	b9400020 	ldr	w0, [x1]
ffff000000007aa0:	528001c2 	mov	w2, #0xe                   	// #14
ffff000000007aa4:	33100c40 	bfi	w0, w2, #16, #4
ffff000000007aa8:	b9000020 	str	w0, [x1]
ffff000000007aac:	d2800581 	mov	x1, #0x2c                  	// #44
ffff000000007ab0:	f2a7e601 	movk	x1, #0x3f30, lsl #16
ffff000000007ab4:	f2ffffe1 	movk	x1, #0xffff, lsl #48
ffff000000007ab8:	b9400020 	ldr	w0, [x1]
ffff000000007abc:	32000000 	orr	w0, w0, #0x1
ffff000000007ac0:	b9000020 	str	w0, [x1]
ffff000000007ac4:	52800140 	mov	w0, #0xa                   	// #10
ffff000000007ac8:	94000f1f 	bl	ffff00000000b744 <wait_msec>
ffff000000007acc:	52835000 	mov	w0, #0x1a80                	// #6784
ffff000000007ad0:	72a000c0 	movk	w0, #0x6, lsl #16
ffff000000007ad4:	97ffff14 	bl	ffff000000007724 <sdSetClock>
ffff000000007ad8:	b9001fa0 	str	w0, [x29,#28]
ffff000000007adc:	b9401fa0 	ldr	w0, [x29,#28]
ffff000000007ae0:	7100001f 	cmp	w0, #0x0
ffff000000007ae4:	54000060 	b.eq	ffff000000007af0 <sdResetCard+0x168>
ffff000000007ae8:	b9401fa0 	ldr	w0, [x29,#28]
ffff000000007aec:	14000033 	b	ffff000000007bb8 <sdResetCard+0x230>
ffff000000007af0:	d2800700 	mov	x0, #0x38                  	// #56
ffff000000007af4:	f2a7e600 	movk	x0, #0x3f30, lsl #16
ffff000000007af8:	f2ffffe0 	movk	x0, #0xffff, lsl #48
ffff000000007afc:	12800001 	mov	w1, #0xffffffff            	// #-1
ffff000000007b00:	b9000001 	str	w1, [x0]
ffff000000007b04:	d2800680 	mov	x0, #0x34                  	// #52
ffff000000007b08:	f2a7e600 	movk	x0, #0x3f30, lsl #16
ffff000000007b0c:	f2ffffe0 	movk	x0, #0xffff, lsl #48
ffff000000007b10:	12800001 	mov	w1, #0xffffffff            	// #-1
ffff000000007b14:	b9000001 	str	w1, [x0]
ffff000000007b18:	b00004a0 	adrp	x0, ffff00000009c000 <task+0x18>
ffff000000007b1c:	9121e000 	add	x0, x0, #0x878
ffff000000007b20:	f900001f 	str	xzr, [x0]
ffff000000007b24:	b00004a0 	adrp	x0, ffff00000009c000 <task+0x18>
ffff000000007b28:	9121e000 	add	x0, x0, #0x878
ffff000000007b2c:	f9400001 	ldr	x1, [x0]
ffff000000007b30:	b00004a0 	adrp	x0, ffff00000009c000 <task+0x18>
ffff000000007b34:	91220000 	add	x0, x0, #0x880
ffff000000007b38:	f9000001 	str	x1, [x0]
ffff000000007b3c:	b00004a0 	adrp	x0, ffff00000009c000 <task+0x18>
ffff000000007b40:	91220000 	add	x0, x0, #0x880
ffff000000007b44:	f9400001 	ldr	x1, [x0]
ffff000000007b48:	b00004a0 	adrp	x0, ffff00000009c000 <task+0x18>
ffff000000007b4c:	91222000 	add	x0, x0, #0x888
ffff000000007b50:	f9000401 	str	x1, [x0,#8]
ffff000000007b54:	b00004a0 	adrp	x0, ffff00000009c000 <task+0x18>
ffff000000007b58:	91222000 	add	x0, x0, #0x888
ffff000000007b5c:	f9400401 	ldr	x1, [x0,#8]
ffff000000007b60:	b00004a0 	adrp	x0, ffff00000009c000 <task+0x18>
ffff000000007b64:	91222000 	add	x0, x0, #0x888
ffff000000007b68:	f9000001 	str	x1, [x0]
ffff000000007b6c:	d0000440 	adrp	x0, ffff000000091000 <mem_map+0x7d3d0>
ffff000000007b70:	9111e000 	add	x0, x0, #0x478
ffff000000007b74:	b9003c1f 	str	wzr, [x0,#60]
ffff000000007b78:	d0000440 	adrp	x0, ffff000000091000 <mem_map+0x7d3d0>
ffff000000007b7c:	9111e000 	add	x0, x0, #0x478
ffff000000007b80:	b900401f 	str	wzr, [x0,#64]
ffff000000007b84:	d0000440 	adrp	x0, ffff000000091000 <mem_map+0x7d3d0>
ffff000000007b88:	9111e000 	add	x0, x0, #0x478
ffff000000007b8c:	f900241f 	str	xzr, [x0,#72]
ffff000000007b90:	d0000440 	adrp	x0, ffff000000091000 <mem_map+0x7d3d0>
ffff000000007b94:	9111e000 	add	x0, x0, #0x478
ffff000000007b98:	b900441f 	str	wzr, [x0,#68]
ffff000000007b9c:	d0000440 	adrp	x0, ffff000000091000 <mem_map+0x7d3d0>
ffff000000007ba0:	9111e000 	add	x0, x0, #0x478
ffff000000007ba4:	b900381f 	str	wzr, [x0,#56]
ffff000000007ba8:	52800000 	mov	w0, #0x0                   	// #0
ffff000000007bac:	97fffd6b 	bl	ffff000000007158 <sdSendCommand>
ffff000000007bb0:	b9001fa0 	str	w0, [x29,#28]
ffff000000007bb4:	b9401fa0 	ldr	w0, [x29,#28]
ffff000000007bb8:	a8c37bfd 	ldp	x29, x30, [sp],#48
ffff000000007bbc:	d65f03c0 	ret

ffff000000007bc0 <sdAppSendOpCond>:
ffff000000007bc0:	a9bd7bfd 	stp	x29, x30, [sp,#-48]!
ffff000000007bc4:	910003fd 	mov	x29, sp
ffff000000007bc8:	b9001fa0 	str	w0, [x29,#28]
ffff000000007bcc:	b9401fa1 	ldr	w1, [x29,#28]
ffff000000007bd0:	52800480 	mov	w0, #0x24                  	// #36
ffff000000007bd4:	97fffd9d 	bl	ffff000000007248 <sdSendCommandA>
ffff000000007bd8:	b9002ba0 	str	w0, [x29,#40]
ffff000000007bdc:	b9402ba0 	ldr	w0, [x29,#40]
ffff000000007be0:	7100001f 	cmp	w0, #0x0
ffff000000007be4:	54000240 	b.eq	ffff000000007c2c <sdAppSendOpCond+0x6c>
ffff000000007be8:	b9402ba0 	ldr	w0, [x29,#40]
ffff000000007bec:	7100081f 	cmp	w0, #0x2
ffff000000007bf0:	540001e0 	b.eq	ffff000000007c2c <sdAppSendOpCond+0x6c>
ffff000000007bf4:	d0000440 	adrp	x0, ffff000000091000 <mem_map+0x7d3d0>
ffff000000007bf8:	9111c000 	add	x0, x0, #0x470
ffff000000007bfc:	f9400000 	ldr	x0, [x0]
ffff000000007c00:	f100001f 	cmp	x0, #0x0
ffff000000007c04:	54000100 	b.eq	ffff000000007c24 <sdAppSendOpCond+0x64>
ffff000000007c08:	d0000440 	adrp	x0, ffff000000091000 <mem_map+0x7d3d0>
ffff000000007c0c:	9111c000 	add	x0, x0, #0x470
ffff000000007c10:	f9400002 	ldr	x2, [x0]
ffff000000007c14:	f0000040 	adrp	x0, ffff000000012000 <sys_call_table+0x1c8>
ffff000000007c18:	910a4000 	add	x0, x0, #0x290
ffff000000007c1c:	b9402ba1 	ldr	w1, [x29,#40]
ffff000000007c20:	d63f0040 	blr	x2
ffff000000007c24:	b9402ba0 	ldr	w0, [x29,#40]
ffff000000007c28:	14000045 	b	ffff000000007d3c <sdAppSendOpCond+0x17c>
ffff000000007c2c:	528000c0 	mov	w0, #0x6                   	// #6
ffff000000007c30:	b9002fa0 	str	w0, [x29,#44]
ffff000000007c34:	1400001c 	b	ffff000000007ca4 <sdAppSendOpCond+0xe4>
ffff000000007c38:	52835000 	mov	w0, #0x1a80                	// #6784
ffff000000007c3c:	72a000c0 	movk	w0, #0x6, lsl #16
ffff000000007c40:	94000ec1 	bl	ffff00000000b744 <wait_msec>
ffff000000007c44:	b9401fa1 	ldr	w1, [x29,#28]
ffff000000007c48:	52800480 	mov	w0, #0x24                  	// #36
ffff000000007c4c:	97fffd7f 	bl	ffff000000007248 <sdSendCommandA>
ffff000000007c50:	b9002ba0 	str	w0, [x29,#40]
ffff000000007c54:	b9402ba0 	ldr	w0, [x29,#40]
ffff000000007c58:	7100001f 	cmp	w0, #0x0
ffff000000007c5c:	54000240 	b.eq	ffff000000007ca4 <sdAppSendOpCond+0xe4>
ffff000000007c60:	b9402ba0 	ldr	w0, [x29,#40]
ffff000000007c64:	7100081f 	cmp	w0, #0x2
ffff000000007c68:	540001e0 	b.eq	ffff000000007ca4 <sdAppSendOpCond+0xe4>
ffff000000007c6c:	d0000440 	adrp	x0, ffff000000091000 <mem_map+0x7d3d0>
ffff000000007c70:	9111c000 	add	x0, x0, #0x470
ffff000000007c74:	f9400000 	ldr	x0, [x0]
ffff000000007c78:	f100001f 	cmp	x0, #0x0
ffff000000007c7c:	54000100 	b.eq	ffff000000007c9c <sdAppSendOpCond+0xdc>
ffff000000007c80:	d0000440 	adrp	x0, ffff000000091000 <mem_map+0x7d3d0>
ffff000000007c84:	9111c000 	add	x0, x0, #0x470
ffff000000007c88:	f9400002 	ldr	x2, [x0]
ffff000000007c8c:	f0000040 	adrp	x0, ffff000000012000 <sys_call_table+0x1c8>
ffff000000007c90:	910a4000 	add	x0, x0, #0x290
ffff000000007c94:	b9402ba1 	ldr	w1, [x29,#40]
ffff000000007c98:	d63f0040 	blr	x2
ffff000000007c9c:	b9402ba0 	ldr	w0, [x29,#40]
ffff000000007ca0:	14000027 	b	ffff000000007d3c <sdAppSendOpCond+0x17c>
ffff000000007ca4:	d0000440 	adrp	x0, ffff000000091000 <mem_map+0x7d3d0>
ffff000000007ca8:	9111e000 	add	x0, x0, #0x478
ffff000000007cac:	39410c00 	ldrb	w0, [x0,#67]
ffff000000007cb0:	12196000 	and	w0, w0, #0xffffff80
ffff000000007cb4:	53001c00 	uxtb	w0, w0
ffff000000007cb8:	7100001f 	cmp	w0, #0x0
ffff000000007cbc:	540000c1 	b.ne	ffff000000007cd4 <sdAppSendOpCond+0x114>
ffff000000007cc0:	b9402fa0 	ldr	w0, [x29,#44]
ffff000000007cc4:	51000401 	sub	w1, w0, #0x1
ffff000000007cc8:	b9002fa1 	str	w1, [x29,#44]
ffff000000007ccc:	7100001f 	cmp	w0, #0x0
ffff000000007cd0:	54fffb41 	b.ne	ffff000000007c38 <sdAppSendOpCond+0x78>
ffff000000007cd4:	d0000440 	adrp	x0, ffff000000091000 <mem_map+0x7d3d0>
ffff000000007cd8:	9111e000 	add	x0, x0, #0x478
ffff000000007cdc:	39410c00 	ldrb	w0, [x0,#67]
ffff000000007ce0:	12196000 	and	w0, w0, #0xffffff80
ffff000000007ce4:	53001c00 	uxtb	w0, w0
ffff000000007ce8:	7100001f 	cmp	w0, #0x0
ffff000000007cec:	54000061 	b.ne	ffff000000007cf8 <sdAppSendOpCond+0x138>
ffff000000007cf0:	52800040 	mov	w0, #0x2                   	// #2
ffff000000007cf4:	14000012 	b	ffff000000007d3c <sdAppSendOpCond+0x17c>
ffff000000007cf8:	d0000440 	adrp	x0, ffff000000091000 <mem_map+0x7d3d0>
ffff000000007cfc:	9111e000 	add	x0, x0, #0x478
ffff000000007d00:	39410800 	ldrb	w0, [x0,#66]
ffff000000007d04:	121c0000 	and	w0, w0, #0x10
ffff000000007d08:	53001c00 	uxtb	w0, w0
ffff000000007d0c:	7100001f 	cmp	w0, #0x0
ffff000000007d10:	54000141 	b.ne	ffff000000007d38 <sdAppSendOpCond+0x178>
ffff000000007d14:	d0000440 	adrp	x0, ffff000000091000 <mem_map+0x7d3d0>
ffff000000007d18:	9111e000 	add	x0, x0, #0x478
ffff000000007d1c:	39410800 	ldrb	w0, [x0,#66]
ffff000000007d20:	121b0000 	and	w0, w0, #0x20
ffff000000007d24:	53001c00 	uxtb	w0, w0
ffff000000007d28:	7100001f 	cmp	w0, #0x0
ffff000000007d2c:	54000061 	b.ne	ffff000000007d38 <sdAppSendOpCond+0x178>
ffff000000007d30:	52800100 	mov	w0, #0x8                   	// #8
ffff000000007d34:	14000002 	b	ffff000000007d3c <sdAppSendOpCond+0x17c>
ffff000000007d38:	52800000 	mov	w0, #0x0                   	// #0
ffff000000007d3c:	a8c37bfd 	ldp	x29, x30, [sp],#48
ffff000000007d40:	d65f03c0 	ret

ffff000000007d44 <sdTransferBlocks>:
ffff000000007d44:	a9b97bfd 	stp	x29, x30, [sp,#-112]!
ffff000000007d48:	910003fd 	mov	x29, sp
ffff000000007d4c:	b9002fa0 	str	w0, [x29,#44]
ffff000000007d50:	b9002ba1 	str	w1, [x29,#40]
ffff000000007d54:	f90013a2 	str	x2, [x29,#32]
ffff000000007d58:	39007fa3 	strb	w3, [x29,#31]
ffff000000007d5c:	d0000440 	adrp	x0, ffff000000091000 <mem_map+0x7d3d0>
ffff000000007d60:	9111e000 	add	x0, x0, #0x478
ffff000000007d64:	b9403800 	ldr	w0, [x0,#56]
ffff000000007d68:	7100001f 	cmp	w0, #0x0
ffff000000007d6c:	54000061 	b.ne	ffff000000007d78 <sdTransferBlocks+0x34>
ffff000000007d70:	528000a0 	mov	w0, #0x5                   	// #5
ffff000000007d74:	14000154 	b	ffff0000000082c4 <sdTransferBlocks+0x580>
ffff000000007d78:	97fffa02 	bl	ffff000000006580 <sdWaitForData>
ffff000000007d7c:	7100001f 	cmp	w0, #0x0
ffff000000007d80:	54000060 	b.eq	ffff000000007d8c <sdTransferBlocks+0x48>
ffff000000007d84:	52800040 	mov	w0, #0x2                   	// #2
ffff000000007d88:	1400014f 	b	ffff0000000082c4 <sdTransferBlocks+0x580>
ffff000000007d8c:	39407fa0 	ldrb	w0, [x29,#31]
ffff000000007d90:	7100001f 	cmp	w0, #0x0
ffff000000007d94:	54000060 	b.eq	ffff000000007da0 <sdTransferBlocks+0x5c>
ffff000000007d98:	52800200 	mov	w0, #0x10                  	// #16
ffff000000007d9c:	14000002 	b	ffff000000007da4 <sdTransferBlocks+0x60>
ffff000000007da0:	52800400 	mov	w0, #0x20                  	// #32
ffff000000007da4:	b90057a0 	str	w0, [x29,#84]
ffff000000007da8:	39407fa0 	ldrb	w0, [x29,#31]
ffff000000007dac:	7100001f 	cmp	w0, #0x0
ffff000000007db0:	54000100 	b.eq	ffff000000007dd0 <sdTransferBlocks+0x8c>
ffff000000007db4:	b9402ba0 	ldr	w0, [x29,#40]
ffff000000007db8:	7100041f 	cmp	w0, #0x1
ffff000000007dbc:	54000061 	b.ne	ffff000000007dc8 <sdTransferBlocks+0x84>
ffff000000007dc0:	52800260 	mov	w0, #0x13                  	// #19
ffff000000007dc4:	14000009 	b	ffff000000007de8 <sdTransferBlocks+0xa4>
ffff000000007dc8:	52800280 	mov	w0, #0x14                  	// #20
ffff000000007dcc:	14000007 	b	ffff000000007de8 <sdTransferBlocks+0xa4>
ffff000000007dd0:	b9402ba0 	ldr	w0, [x29,#40]
ffff000000007dd4:	7100041f 	cmp	w0, #0x1
ffff000000007dd8:	54000061 	b.ne	ffff000000007de4 <sdTransferBlocks+0xa0>
ffff000000007ddc:	528001c0 	mov	w0, #0xe                   	// #14
ffff000000007de0:	14000002 	b	ffff000000007de8 <sdTransferBlocks+0xa4>
ffff000000007de4:	528001e0 	mov	w0, #0xf                   	// #15
ffff000000007de8:	b90053a0 	str	w0, [x29,#80]
ffff000000007dec:	b9402ba0 	ldr	w0, [x29,#40]
ffff000000007df0:	7100041f 	cmp	w0, #0x1
ffff000000007df4:	54000249 	b.ls	ffff000000007e3c <sdTransferBlocks+0xf8>
ffff000000007df8:	d0000440 	adrp	x0, ffff000000091000 <mem_map+0x7d3d0>
ffff000000007dfc:	9111e000 	add	x0, x0, #0x478
ffff000000007e00:	b9402400 	ldr	w0, [x0,#36]
ffff000000007e04:	d3586400 	ubfx	x0, x0, #24, #2
ffff000000007e08:	53001c00 	uxtb	w0, w0
ffff000000007e0c:	7100081f 	cmp	w0, #0x2
ffff000000007e10:	54000161 	b.ne	ffff000000007e3c <sdTransferBlocks+0xf8>
ffff000000007e14:	b9402ba1 	ldr	w1, [x29,#40]
ffff000000007e18:	52800240 	mov	w0, #0x12                  	// #18
ffff000000007e1c:	97fffd0b 	bl	ffff000000007248 <sdSendCommandA>
ffff000000007e20:	b9004fa0 	str	w0, [x29,#76]
ffff000000007e24:	b9404fa0 	ldr	w0, [x29,#76]
ffff000000007e28:	7100001f 	cmp	w0, #0x0
ffff000000007e2c:	54000080 	b.eq	ffff000000007e3c <sdTransferBlocks+0xf8>
ffff000000007e30:	b9404fa0 	ldr	w0, [x29,#76]
ffff000000007e34:	97fff8d3 	bl	ffff000000006180 <sdDebugResponse>
ffff000000007e38:	14000123 	b	ffff0000000082c4 <sdTransferBlocks+0x580>
ffff000000007e3c:	d0000440 	adrp	x0, ffff000000091000 <mem_map+0x7d3d0>
ffff000000007e40:	9111e000 	add	x0, x0, #0x478
ffff000000007e44:	b9403800 	ldr	w0, [x0,#56]
ffff000000007e48:	71000c1f 	cmp	w0, #0x3
ffff000000007e4c:	54000081 	b.ne	ffff000000007e5c <sdTransferBlocks+0x118>
ffff000000007e50:	b9402fa0 	ldr	w0, [x29,#44]
ffff000000007e54:	53175800 	lsl	w0, w0, #9
ffff000000007e58:	14000002 	b	ffff000000007e60 <sdTransferBlocks+0x11c>
ffff000000007e5c:	b9402fa0 	ldr	w0, [x29,#44]
ffff000000007e60:	b9004ba0 	str	w0, [x29,#72]
ffff000000007e64:	d2800081 	mov	x1, #0x4                   	// #4
ffff000000007e68:	f2a7e601 	movk	x1, #0x3f30, lsl #16
ffff000000007e6c:	f2ffffe1 	movk	x1, #0xffff, lsl #48
ffff000000007e70:	b9402ba0 	ldr	w0, [x29,#40]
ffff000000007e74:	53003c02 	uxth	w2, w0
ffff000000007e78:	b9400020 	ldr	w0, [x1]
ffff000000007e7c:	33103c40 	bfi	w0, w2, #16, #16
ffff000000007e80:	b9000020 	str	w0, [x1]
ffff000000007e84:	d2800081 	mov	x1, #0x4                   	// #4
ffff000000007e88:	f2a7e601 	movk	x1, #0x3f30, lsl #16
ffff000000007e8c:	f2ffffe1 	movk	x1, #0xffff, lsl #48
ffff000000007e90:	b9400020 	ldr	w0, [x1]
ffff000000007e94:	52804002 	mov	w2, #0x200                 	// #512
ffff000000007e98:	33002440 	bfxil	w0, w2, #0, #10
ffff000000007e9c:	b9000020 	str	w0, [x1]
ffff000000007ea0:	b9404ba1 	ldr	w1, [x29,#72]
ffff000000007ea4:	b94053a0 	ldr	w0, [x29,#80]
ffff000000007ea8:	97fffce8 	bl	ffff000000007248 <sdSendCommandA>
ffff000000007eac:	b9004fa0 	str	w0, [x29,#76]
ffff000000007eb0:	b9404fa0 	ldr	w0, [x29,#76]
ffff000000007eb4:	7100001f 	cmp	w0, #0x0
ffff000000007eb8:	54000080 	b.eq	ffff000000007ec8 <sdTransferBlocks+0x184>
ffff000000007ebc:	b9404fa0 	ldr	w0, [x29,#76]
ffff000000007ec0:	97fff8b0 	bl	ffff000000006180 <sdDebugResponse>
ffff000000007ec4:	14000100 	b	ffff0000000082c4 <sdTransferBlocks+0x580>
ffff000000007ec8:	f90037bf 	str	xzr, [x29,#104]
ffff000000007ecc:	14000097 	b	ffff000000008128 <sdTransferBlocks+0x3e4>
ffff000000007ed0:	b94057a0 	ldr	w0, [x29,#84]
ffff000000007ed4:	97fff8de 	bl	ffff00000000624c <sdWaitForInterrupt>
ffff000000007ed8:	b9004fa0 	str	w0, [x29,#76]
ffff000000007edc:	b9404fa0 	ldr	w0, [x29,#76]
ffff000000007ee0:	7100001f 	cmp	w0, #0x0
ffff000000007ee4:	540001e0 	b.eq	ffff000000007f20 <sdTransferBlocks+0x1dc>
ffff000000007ee8:	d0000440 	adrp	x0, ffff000000091000 <mem_map+0x7d3d0>
ffff000000007eec:	9111c000 	add	x0, x0, #0x470
ffff000000007ef0:	f9400000 	ldr	x0, [x0]
ffff000000007ef4:	f100001f 	cmp	x0, #0x0
ffff000000007ef8:	540000e0 	b.eq	ffff000000007f14 <sdTransferBlocks+0x1d0>
ffff000000007efc:	d0000440 	adrp	x0, ffff000000091000 <mem_map+0x7d3d0>
ffff000000007f00:	9111c000 	add	x0, x0, #0x470
ffff000000007f04:	f9400001 	ldr	x1, [x0]
ffff000000007f08:	f0000040 	adrp	x0, ffff000000012000 <sys_call_table+0x1c8>
ffff000000007f0c:	91050000 	add	x0, x0, #0x140
ffff000000007f10:	d63f0020 	blr	x1
ffff000000007f14:	b9404fa0 	ldr	w0, [x29,#76]
ffff000000007f18:	97fff89a 	bl	ffff000000006180 <sdDebugResponse>
ffff000000007f1c:	140000ea 	b	ffff0000000082c4 <sdTransferBlocks+0x580>
ffff000000007f20:	f94013a0 	ldr	x0, [x29,#32]
ffff000000007f24:	92400400 	and	x0, x0, #0x3
ffff000000007f28:	f100001f 	cmp	x0, #0x0
ffff000000007f2c:	54000b20 	b.eq	ffff000000008090 <sdTransferBlocks+0x34c>
ffff000000007f30:	f90033bf 	str	xzr, [x29,#96]
ffff000000007f34:	14000053 	b	ffff000000008080 <sdTransferBlocks+0x33c>
ffff000000007f38:	39407fa0 	ldrb	w0, [x29,#31]
ffff000000007f3c:	7100001f 	cmp	w0, #0x0
ffff000000007f40:	54000540 	b.eq	ffff000000007fe8 <sdTransferBlocks+0x2a4>
ffff000000007f44:	f94013a1 	ldr	x1, [x29,#32]
ffff000000007f48:	f94033a0 	ldr	x0, [x29,#96]
ffff000000007f4c:	8b000020 	add	x0, x1, x0
ffff000000007f50:	39400000 	ldrb	w0, [x0]
ffff000000007f54:	b90047a0 	str	w0, [x29,#68]
ffff000000007f58:	f94033a0 	ldr	x0, [x29,#96]
ffff000000007f5c:	91000400 	add	x0, x0, #0x1
ffff000000007f60:	f94013a1 	ldr	x1, [x29,#32]
ffff000000007f64:	8b000020 	add	x0, x1, x0
ffff000000007f68:	39400000 	ldrb	w0, [x0]
ffff000000007f6c:	53185c00 	lsl	w0, w0, #8
ffff000000007f70:	2a0003e1 	mov	w1, w0
ffff000000007f74:	b94047a0 	ldr	w0, [x29,#68]
ffff000000007f78:	2a010000 	orr	w0, w0, w1
ffff000000007f7c:	b90047a0 	str	w0, [x29,#68]
ffff000000007f80:	f94033a0 	ldr	x0, [x29,#96]
ffff000000007f84:	91000800 	add	x0, x0, #0x2
ffff000000007f88:	f94013a1 	ldr	x1, [x29,#32]
ffff000000007f8c:	8b000020 	add	x0, x1, x0
ffff000000007f90:	39400000 	ldrb	w0, [x0]
ffff000000007f94:	53103c00 	lsl	w0, w0, #16
ffff000000007f98:	2a0003e1 	mov	w1, w0
ffff000000007f9c:	b94047a0 	ldr	w0, [x29,#68]
ffff000000007fa0:	2a010000 	orr	w0, w0, w1
ffff000000007fa4:	b90047a0 	str	w0, [x29,#68]
ffff000000007fa8:	f94033a0 	ldr	x0, [x29,#96]
ffff000000007fac:	91000c00 	add	x0, x0, #0x3
ffff000000007fb0:	f94013a1 	ldr	x1, [x29,#32]
ffff000000007fb4:	8b000020 	add	x0, x1, x0
ffff000000007fb8:	39400000 	ldrb	w0, [x0]
ffff000000007fbc:	53081c00 	lsl	w0, w0, #24
ffff000000007fc0:	2a0003e1 	mov	w1, w0
ffff000000007fc4:	b94047a0 	ldr	w0, [x29,#68]
ffff000000007fc8:	2a010000 	orr	w0, w0, w1
ffff000000007fcc:	b90047a0 	str	w0, [x29,#68]
ffff000000007fd0:	d2800400 	mov	x0, #0x20                  	// #32
ffff000000007fd4:	f2a7e600 	movk	x0, #0x3f30, lsl #16
ffff000000007fd8:	f2ffffe0 	movk	x0, #0xffff, lsl #48
ffff000000007fdc:	b94047a1 	ldr	w1, [x29,#68]
ffff000000007fe0:	b9000001 	str	w1, [x0]
ffff000000007fe4:	14000024 	b	ffff000000008074 <sdTransferBlocks+0x330>
ffff000000007fe8:	d2800400 	mov	x0, #0x20                  	// #32
ffff000000007fec:	f2a7e600 	movk	x0, #0x3f30, lsl #16
ffff000000007ff0:	f2ffffe0 	movk	x0, #0xffff, lsl #48
ffff000000007ff4:	b9400000 	ldr	w0, [x0]
ffff000000007ff8:	b90043a0 	str	w0, [x29,#64]
ffff000000007ffc:	f94013a1 	ldr	x1, [x29,#32]
ffff000000008000:	f94033a0 	ldr	x0, [x29,#96]
ffff000000008004:	8b000020 	add	x0, x1, x0
ffff000000008008:	b94043a1 	ldr	w1, [x29,#64]
ffff00000000800c:	53001c21 	uxtb	w1, w1
ffff000000008010:	39000001 	strb	w1, [x0]
ffff000000008014:	f94033a0 	ldr	x0, [x29,#96]
ffff000000008018:	91000400 	add	x0, x0, #0x1
ffff00000000801c:	f94013a1 	ldr	x1, [x29,#32]
ffff000000008020:	8b000020 	add	x0, x1, x0
ffff000000008024:	b94043a1 	ldr	w1, [x29,#64]
ffff000000008028:	53087c21 	lsr	w1, w1, #8
ffff00000000802c:	53001c21 	uxtb	w1, w1
ffff000000008030:	39000001 	strb	w1, [x0]
ffff000000008034:	f94033a0 	ldr	x0, [x29,#96]
ffff000000008038:	91000800 	add	x0, x0, #0x2
ffff00000000803c:	f94013a1 	ldr	x1, [x29,#32]
ffff000000008040:	8b000020 	add	x0, x1, x0
ffff000000008044:	b94043a1 	ldr	w1, [x29,#64]
ffff000000008048:	53107c21 	lsr	w1, w1, #16
ffff00000000804c:	53001c21 	uxtb	w1, w1
ffff000000008050:	39000001 	strb	w1, [x0]
ffff000000008054:	f94033a0 	ldr	x0, [x29,#96]
ffff000000008058:	91000c00 	add	x0, x0, #0x3
ffff00000000805c:	f94013a1 	ldr	x1, [x29,#32]
ffff000000008060:	8b000020 	add	x0, x1, x0
ffff000000008064:	b94043a1 	ldr	w1, [x29,#64]
ffff000000008068:	53187c21 	lsr	w1, w1, #24
ffff00000000806c:	53001c21 	uxtb	w1, w1
ffff000000008070:	39000001 	strb	w1, [x0]
ffff000000008074:	f94033a0 	ldr	x0, [x29,#96]
ffff000000008078:	91000400 	add	x0, x0, #0x1
ffff00000000807c:	f90033a0 	str	x0, [x29,#96]
ffff000000008080:	f94033a0 	ldr	x0, [x29,#96]
ffff000000008084:	f107fc1f 	cmp	x0, #0x1ff
ffff000000008088:	54fff589 	b.ls	ffff000000007f38 <sdTransferBlocks+0x1f4>
ffff00000000808c:	14000021 	b	ffff000000008110 <sdTransferBlocks+0x3cc>
ffff000000008090:	f94013a0 	ldr	x0, [x29,#32]
ffff000000008094:	f9001fa0 	str	x0, [x29,#56]
ffff000000008098:	f9002fbf 	str	xzr, [x29,#88]
ffff00000000809c:	1400001a 	b	ffff000000008104 <sdTransferBlocks+0x3c0>
ffff0000000080a0:	39407fa0 	ldrb	w0, [x29,#31]
ffff0000000080a4:	7100001f 	cmp	w0, #0x0
ffff0000000080a8:	54000160 	b.eq	ffff0000000080d4 <sdTransferBlocks+0x390>
ffff0000000080ac:	d2800400 	mov	x0, #0x20                  	// #32
ffff0000000080b0:	f2a7e600 	movk	x0, #0x3f30, lsl #16
ffff0000000080b4:	f2ffffe0 	movk	x0, #0xffff, lsl #48
ffff0000000080b8:	f9402fa1 	ldr	x1, [x29,#88]
ffff0000000080bc:	d37ef421 	lsl	x1, x1, #2
ffff0000000080c0:	f9401fa2 	ldr	x2, [x29,#56]
ffff0000000080c4:	8b010041 	add	x1, x2, x1
ffff0000000080c8:	b9400021 	ldr	w1, [x1]
ffff0000000080cc:	b9000001 	str	w1, [x0]
ffff0000000080d0:	1400000a 	b	ffff0000000080f8 <sdTransferBlocks+0x3b4>
ffff0000000080d4:	f9402fa0 	ldr	x0, [x29,#88]
ffff0000000080d8:	d37ef400 	lsl	x0, x0, #2
ffff0000000080dc:	f9401fa1 	ldr	x1, [x29,#56]
ffff0000000080e0:	8b000020 	add	x0, x1, x0
ffff0000000080e4:	d2800401 	mov	x1, #0x20                  	// #32
ffff0000000080e8:	f2a7e601 	movk	x1, #0x3f30, lsl #16
ffff0000000080ec:	f2ffffe1 	movk	x1, #0xffff, lsl #48
ffff0000000080f0:	b9400021 	ldr	w1, [x1]
ffff0000000080f4:	b9000001 	str	w1, [x0]
ffff0000000080f8:	f9402fa0 	ldr	x0, [x29,#88]
ffff0000000080fc:	91000400 	add	x0, x0, #0x1
ffff000000008100:	f9002fa0 	str	x0, [x29,#88]
ffff000000008104:	f9402fa0 	ldr	x0, [x29,#88]
ffff000000008108:	f101fc1f 	cmp	x0, #0x7f
ffff00000000810c:	54fffca9 	b.ls	ffff0000000080a0 <sdTransferBlocks+0x35c>
ffff000000008110:	f94037a0 	ldr	x0, [x29,#104]
ffff000000008114:	91000400 	add	x0, x0, #0x1
ffff000000008118:	f90037a0 	str	x0, [x29,#104]
ffff00000000811c:	f94013a0 	ldr	x0, [x29,#32]
ffff000000008120:	91080000 	add	x0, x0, #0x200
ffff000000008124:	f90013a0 	str	x0, [x29,#32]
ffff000000008128:	b9402ba1 	ldr	w1, [x29,#40]
ffff00000000812c:	f94037a0 	ldr	x0, [x29,#104]
ffff000000008130:	eb00003f 	cmp	x1, x0
ffff000000008134:	54ffece8 	b.hi	ffff000000007ed0 <sdTransferBlocks+0x18c>
ffff000000008138:	b9402ba1 	ldr	w1, [x29,#40]
ffff00000000813c:	f94037a0 	ldr	x0, [x29,#104]
ffff000000008140:	eb00003f 	cmp	x1, x0
ffff000000008144:	540006a0 	b.eq	ffff000000008218 <sdTransferBlocks+0x4d4>
ffff000000008148:	b0000440 	adrp	x0, ffff000000091000 <mem_map+0x7d3d0>
ffff00000000814c:	9111c000 	add	x0, x0, #0x470
ffff000000008150:	f9400000 	ldr	x0, [x0]
ffff000000008154:	f100001f 	cmp	x0, #0x0
ffff000000008158:	54000120 	b.eq	ffff00000000817c <sdTransferBlocks+0x438>
ffff00000000815c:	b0000440 	adrp	x0, ffff000000091000 <mem_map+0x7d3d0>
ffff000000008160:	9111c000 	add	x0, x0, #0x470
ffff000000008164:	f9400003 	ldr	x3, [x0]
ffff000000008168:	d0000040 	adrp	x0, ffff000000012000 <sys_call_table+0x1c8>
ffff00000000816c:	910b0000 	add	x0, x0, #0x2c0
ffff000000008170:	b9402ba2 	ldr	w2, [x29,#40]
ffff000000008174:	f94037a1 	ldr	x1, [x29,#104]
ffff000000008178:	d63f0060 	blr	x3
ffff00000000817c:	d2800480 	mov	x0, #0x24                  	// #36
ffff000000008180:	f2a7e600 	movk	x0, #0x3f30, lsl #16
ffff000000008184:	f2ffffe0 	movk	x0, #0xffff, lsl #48
ffff000000008188:	b9400001 	ldr	w1, [x0]
ffff00000000818c:	d2800600 	mov	x0, #0x30                  	// #48
ffff000000008190:	f2a7e600 	movk	x0, #0x3f30, lsl #16
ffff000000008194:	f2ffffe0 	movk	x0, #0xffff, lsl #48
ffff000000008198:	b9400002 	ldr	w2, [x0]
ffff00000000819c:	d2800200 	mov	x0, #0x10                  	// #16
ffff0000000081a0:	f2a7e600 	movk	x0, #0x3f30, lsl #16
ffff0000000081a4:	f2ffffe0 	movk	x0, #0xffff, lsl #48
ffff0000000081a8:	b9400003 	ldr	w3, [x0]
ffff0000000081ac:	d2800080 	mov	x0, #0x4                   	// #4
ffff0000000081b0:	f2a7e600 	movk	x0, #0x3f30, lsl #16
ffff0000000081b4:	f2ffffe0 	movk	x0, #0xffff, lsl #48
ffff0000000081b8:	b9400004 	ldr	w4, [x0]
ffff0000000081bc:	d0000040 	adrp	x0, ffff000000012000 <sys_call_table+0x1c8>
ffff0000000081c0:	910bc000 	add	x0, x0, #0x2f0
ffff0000000081c4:	97fff551 	bl	ffff000000005708 <tfp_printf>
ffff0000000081c8:	39407fa0 	ldrb	w0, [x29,#31]
ffff0000000081cc:	52000000 	eor	w0, w0, #0x1
ffff0000000081d0:	53001c00 	uxtb	w0, w0
ffff0000000081d4:	7100001f 	cmp	w0, #0x0
ffff0000000081d8:	540001c0 	b.eq	ffff000000008210 <sdTransferBlocks+0x4cc>
ffff0000000081dc:	b9402ba0 	ldr	w0, [x29,#40]
ffff0000000081e0:	7100041f 	cmp	w0, #0x1
ffff0000000081e4:	54000169 	b.ls	ffff000000008210 <sdTransferBlocks+0x4cc>
ffff0000000081e8:	52800140 	mov	w0, #0xa                   	// #10
ffff0000000081ec:	97fffbdb 	bl	ffff000000007158 <sdSendCommand>
ffff0000000081f0:	b9004fa0 	str	w0, [x29,#76]
ffff0000000081f4:	b9404fa0 	ldr	w0, [x29,#76]
ffff0000000081f8:	7100001f 	cmp	w0, #0x0
ffff0000000081fc:	540000a0 	b.eq	ffff000000008210 <sdTransferBlocks+0x4cc>
ffff000000008200:	d0000040 	adrp	x0, ffff000000012000 <sys_call_table+0x1c8>
ffff000000008204:	910c6000 	add	x0, x0, #0x318
ffff000000008208:	b9404fa1 	ldr	w1, [x29,#76]
ffff00000000820c:	97fff53f 	bl	ffff000000005708 <tfp_printf>
ffff000000008210:	52800040 	mov	w0, #0x2                   	// #2
ffff000000008214:	1400002c 	b	ffff0000000082c4 <sdTransferBlocks+0x580>
ffff000000008218:	39407fa0 	ldrb	w0, [x29,#31]
ffff00000000821c:	7100001f 	cmp	w0, #0x0
ffff000000008220:	540002a0 	b.eq	ffff000000008274 <sdTransferBlocks+0x530>
ffff000000008224:	52800040 	mov	w0, #0x2                   	// #2
ffff000000008228:	97fff809 	bl	ffff00000000624c <sdWaitForInterrupt>
ffff00000000822c:	b9004fa0 	str	w0, [x29,#76]
ffff000000008230:	b9404fa0 	ldr	w0, [x29,#76]
ffff000000008234:	7100001f 	cmp	w0, #0x0
ffff000000008238:	540001e0 	b.eq	ffff000000008274 <sdTransferBlocks+0x530>
ffff00000000823c:	b0000440 	adrp	x0, ffff000000091000 <mem_map+0x7d3d0>
ffff000000008240:	9111c000 	add	x0, x0, #0x470
ffff000000008244:	f9400000 	ldr	x0, [x0]
ffff000000008248:	f100001f 	cmp	x0, #0x0
ffff00000000824c:	540000e0 	b.eq	ffff000000008268 <sdTransferBlocks+0x524>
ffff000000008250:	b0000440 	adrp	x0, ffff000000091000 <mem_map+0x7d3d0>
ffff000000008254:	9111c000 	add	x0, x0, #0x470
ffff000000008258:	f9400001 	ldr	x1, [x0]
ffff00000000825c:	d0000040 	adrp	x0, ffff000000012000 <sys_call_table+0x1c8>
ffff000000008260:	910d4000 	add	x0, x0, #0x350
ffff000000008264:	d63f0020 	blr	x1
ffff000000008268:	b9404fa0 	ldr	w0, [x29,#76]
ffff00000000826c:	97fff7c5 	bl	ffff000000006180 <sdDebugResponse>
ffff000000008270:	14000015 	b	ffff0000000082c4 <sdTransferBlocks+0x580>
ffff000000008274:	b9402ba0 	ldr	w0, [x29,#40]
ffff000000008278:	7100041f 	cmp	w0, #0x1
ffff00000000827c:	54000229 	b.ls	ffff0000000082c0 <sdTransferBlocks+0x57c>
ffff000000008280:	b0000440 	adrp	x0, ffff000000091000 <mem_map+0x7d3d0>
ffff000000008284:	9111e000 	add	x0, x0, #0x478
ffff000000008288:	b9402400 	ldr	w0, [x0,#36]
ffff00000000828c:	d3586400 	ubfx	x0, x0, #24, #2
ffff000000008290:	53001c00 	uxtb	w0, w0
ffff000000008294:	7100081f 	cmp	w0, #0x2
ffff000000008298:	54000140 	b.eq	ffff0000000082c0 <sdTransferBlocks+0x57c>
ffff00000000829c:	52800140 	mov	w0, #0xa                   	// #10
ffff0000000082a0:	97fffbae 	bl	ffff000000007158 <sdSendCommand>
ffff0000000082a4:	b9004fa0 	str	w0, [x29,#76]
ffff0000000082a8:	b9404fa0 	ldr	w0, [x29,#76]
ffff0000000082ac:	7100001f 	cmp	w0, #0x0
ffff0000000082b0:	54000080 	b.eq	ffff0000000082c0 <sdTransferBlocks+0x57c>
ffff0000000082b4:	b9404fa0 	ldr	w0, [x29,#76]
ffff0000000082b8:	97fff7b2 	bl	ffff000000006180 <sdDebugResponse>
ffff0000000082bc:	14000002 	b	ffff0000000082c4 <sdTransferBlocks+0x580>
ffff0000000082c0:	52800000 	mov	w0, #0x0                   	// #0
ffff0000000082c4:	a8c77bfd 	ldp	x29, x30, [sp],#112
ffff0000000082c8:	d65f03c0 	ret

ffff0000000082cc <sdClearBlocks>:
ffff0000000082cc:	a9bd7bfd 	stp	x29, x30, [sp,#-48]!
ffff0000000082d0:	910003fd 	mov	x29, sp
ffff0000000082d4:	b9001fa0 	str	w0, [x29,#28]
ffff0000000082d8:	b9001ba1 	str	w1, [x29,#24]
ffff0000000082dc:	b0000440 	adrp	x0, ffff000000091000 <mem_map+0x7d3d0>
ffff0000000082e0:	9111e000 	add	x0, x0, #0x478
ffff0000000082e4:	b9403800 	ldr	w0, [x0,#56]
ffff0000000082e8:	7100001f 	cmp	w0, #0x0
ffff0000000082ec:	54000061 	b.ne	ffff0000000082f8 <sdClearBlocks+0x2c>
ffff0000000082f0:	528000a0 	mov	w0, #0x5                   	// #5
ffff0000000082f4:	1400006a 	b	ffff00000000849c <sdClearBlocks+0x1d0>
ffff0000000082f8:	97fff8a2 	bl	ffff000000006580 <sdWaitForData>
ffff0000000082fc:	7100001f 	cmp	w0, #0x0
ffff000000008300:	54000060 	b.eq	ffff00000000830c <sdClearBlocks+0x40>
ffff000000008304:	52800040 	mov	w0, #0x2                   	// #2
ffff000000008308:	14000065 	b	ffff00000000849c <sdClearBlocks+0x1d0>
ffff00000000830c:	b0000440 	adrp	x0, ffff000000091000 <mem_map+0x7d3d0>
ffff000000008310:	9111e000 	add	x0, x0, #0x478
ffff000000008314:	b9403800 	ldr	w0, [x0,#56]
ffff000000008318:	71000c1f 	cmp	w0, #0x3
ffff00000000831c:	54000081 	b.ne	ffff00000000832c <sdClearBlocks+0x60>
ffff000000008320:	b9401fa0 	ldr	w0, [x29,#28]
ffff000000008324:	53175800 	lsl	w0, w0, #9
ffff000000008328:	14000002 	b	ffff000000008330 <sdClearBlocks+0x64>
ffff00000000832c:	b9401fa0 	ldr	w0, [x29,#28]
ffff000000008330:	b9002ba0 	str	w0, [x29,#40]
ffff000000008334:	b0000440 	adrp	x0, ffff000000091000 <mem_map+0x7d3d0>
ffff000000008338:	9111e000 	add	x0, x0, #0x478
ffff00000000833c:	b9403800 	ldr	w0, [x0,#56]
ffff000000008340:	71000c1f 	cmp	w0, #0x3
ffff000000008344:	540000c1 	b.ne	ffff00000000835c <sdClearBlocks+0x90>
ffff000000008348:	b9401fa1 	ldr	w1, [x29,#28]
ffff00000000834c:	b9401ba0 	ldr	w0, [x29,#24]
ffff000000008350:	0b000020 	add	w0, w1, w0
ffff000000008354:	53175800 	lsl	w0, w0, #9
ffff000000008358:	14000004 	b	ffff000000008368 <sdClearBlocks+0x9c>
ffff00000000835c:	b9401fa1 	ldr	w1, [x29,#28]
ffff000000008360:	b9401ba0 	ldr	w0, [x29,#24]
ffff000000008364:	0b000020 	add	w0, w1, w0
ffff000000008368:	b90027a0 	str	w0, [x29,#36]
ffff00000000836c:	d0000040 	adrp	x0, ffff000000012000 <sys_call_table+0x1c8>
ffff000000008370:	910de000 	add	x0, x0, #0x378
ffff000000008374:	b94027a2 	ldr	w2, [x29,#36]
ffff000000008378:	b9402ba1 	ldr	w1, [x29,#40]
ffff00000000837c:	97fff4e3 	bl	ffff000000005708 <tfp_printf>
ffff000000008380:	b9402ba1 	ldr	w1, [x29,#40]
ffff000000008384:	52800320 	mov	w0, #0x19                  	// #25
ffff000000008388:	97fffbb0 	bl	ffff000000007248 <sdSendCommandA>
ffff00000000838c:	b90023a0 	str	w0, [x29,#32]
ffff000000008390:	b94023a0 	ldr	w0, [x29,#32]
ffff000000008394:	7100001f 	cmp	w0, #0x0
ffff000000008398:	54000080 	b.eq	ffff0000000083a8 <sdClearBlocks+0xdc>
ffff00000000839c:	b94023a0 	ldr	w0, [x29,#32]
ffff0000000083a0:	97fff778 	bl	ffff000000006180 <sdDebugResponse>
ffff0000000083a4:	1400003e 	b	ffff00000000849c <sdClearBlocks+0x1d0>
ffff0000000083a8:	b94027a1 	ldr	w1, [x29,#36]
ffff0000000083ac:	52800340 	mov	w0, #0x1a                  	// #26
ffff0000000083b0:	97fffba6 	bl	ffff000000007248 <sdSendCommandA>
ffff0000000083b4:	b90023a0 	str	w0, [x29,#32]
ffff0000000083b8:	b94023a0 	ldr	w0, [x29,#32]
ffff0000000083bc:	7100001f 	cmp	w0, #0x0
ffff0000000083c0:	54000080 	b.eq	ffff0000000083d0 <sdClearBlocks+0x104>
ffff0000000083c4:	b94023a0 	ldr	w0, [x29,#32]
ffff0000000083c8:	97fff76e 	bl	ffff000000006180 <sdDebugResponse>
ffff0000000083cc:	14000034 	b	ffff00000000849c <sdClearBlocks+0x1d0>
ffff0000000083d0:	52800360 	mov	w0, #0x1b                  	// #27
ffff0000000083d4:	97fffb61 	bl	ffff000000007158 <sdSendCommand>
ffff0000000083d8:	b90023a0 	str	w0, [x29,#32]
ffff0000000083dc:	b94023a0 	ldr	w0, [x29,#32]
ffff0000000083e0:	7100001f 	cmp	w0, #0x0
ffff0000000083e4:	54000080 	b.eq	ffff0000000083f4 <sdClearBlocks+0x128>
ffff0000000083e8:	b94023a0 	ldr	w0, [x29,#32]
ffff0000000083ec:	97fff765 	bl	ffff000000006180 <sdDebugResponse>
ffff0000000083f0:	1400002b 	b	ffff00000000849c <sdClearBlocks+0x1d0>
ffff0000000083f4:	52884800 	mov	w0, #0x4240                	// #16960
ffff0000000083f8:	72a001e0 	movk	w0, #0xf, lsl #16
ffff0000000083fc:	b9002fa0 	str	w0, [x29,#44]
ffff000000008400:	1400001e 	b	ffff000000008478 <sdClearBlocks+0x1ac>
ffff000000008404:	b9402fa0 	ldr	w0, [x29,#44]
ffff000000008408:	51000400 	sub	w0, w0, #0x1
ffff00000000840c:	b9002fa0 	str	w0, [x29,#44]
ffff000000008410:	b9402fa0 	ldr	w0, [x29,#44]
ffff000000008414:	7100001f 	cmp	w0, #0x0
ffff000000008418:	540002c1 	b.ne	ffff000000008470 <sdClearBlocks+0x1a4>
ffff00000000841c:	b0000440 	adrp	x0, ffff000000091000 <mem_map+0x7d3d0>
ffff000000008420:	9111c000 	add	x0, x0, #0x470
ffff000000008424:	f9400000 	ldr	x0, [x0]
ffff000000008428:	f100001f 	cmp	x0, #0x0
ffff00000000842c:	540001e0 	b.eq	ffff000000008468 <sdClearBlocks+0x19c>
ffff000000008430:	b0000440 	adrp	x0, ffff000000091000 <mem_map+0x7d3d0>
ffff000000008434:	9111c000 	add	x0, x0, #0x470
ffff000000008438:	f9400003 	ldr	x3, [x0]
ffff00000000843c:	d2800480 	mov	x0, #0x24                  	// #36
ffff000000008440:	f2a7e600 	movk	x0, #0x3f30, lsl #16
ffff000000008444:	f2ffffe0 	movk	x0, #0xffff, lsl #48
ffff000000008448:	b9400001 	ldr	w1, [x0]
ffff00000000844c:	d2800600 	mov	x0, #0x30                  	// #48
ffff000000008450:	f2a7e600 	movk	x0, #0x3f30, lsl #16
ffff000000008454:	f2ffffe0 	movk	x0, #0xffff, lsl #48
ffff000000008458:	b9400002 	ldr	w2, [x0]
ffff00000000845c:	d0000040 	adrp	x0, ffff000000012000 <sys_call_table+0x1c8>
ffff000000008460:	910e8000 	add	x0, x0, #0x3a0
ffff000000008464:	d63f0060 	blr	x3
ffff000000008468:	52800040 	mov	w0, #0x2                   	// #2
ffff00000000846c:	1400000c 	b	ffff00000000849c <sdClearBlocks+0x1d0>
ffff000000008470:	52800140 	mov	w0, #0xa                   	// #10
ffff000000008474:	94000cb4 	bl	ffff00000000b744 <wait_msec>
ffff000000008478:	d2800480 	mov	x0, #0x24                  	// #36
ffff00000000847c:	f2a7e600 	movk	x0, #0x3f30, lsl #16
ffff000000008480:	f2ffffe0 	movk	x0, #0xffff, lsl #48
ffff000000008484:	b9400000 	ldr	w0, [x0]
ffff000000008488:	d3410400 	ubfx	x0, x0, #1, #1
ffff00000000848c:	53001c00 	uxtb	w0, w0
ffff000000008490:	7100001f 	cmp	w0, #0x0
ffff000000008494:	54fffb81 	b.ne	ffff000000008404 <sdClearBlocks+0x138>
ffff000000008498:	52800000 	mov	w0, #0x0                   	// #0
ffff00000000849c:	a8c37bfd 	ldp	x29, x30, [sp],#48
ffff0000000084a0:	d65f03c0 	ret

ffff0000000084a4 <getFirstSector>:
ffff0000000084a4:	d10043ff 	sub	sp, sp, #0x10
ffff0000000084a8:	b9000fe0 	str	w0, [sp,#12]
ffff0000000084ac:	b9000be1 	str	w1, [sp,#8]
ffff0000000084b0:	b90007e2 	str	w2, [sp,#4]
ffff0000000084b4:	b9400fe0 	ldr	w0, [sp,#12]
ffff0000000084b8:	51000801 	sub	w1, w0, #0x2
ffff0000000084bc:	b9400be0 	ldr	w0, [sp,#8]
ffff0000000084c0:	1b007c21 	mul	w1, w1, w0
ffff0000000084c4:	b94007e0 	ldr	w0, [sp,#4]
ffff0000000084c8:	0b000020 	add	w0, w1, w0
ffff0000000084cc:	910043ff 	add	sp, sp, #0x10
ffff0000000084d0:	d65f03c0 	ret

ffff0000000084d4 <getSetNextCluster>:
ffff0000000084d4:	d10883ff 	sub	sp, sp, #0x220
ffff0000000084d8:	a9bf7bfd 	stp	x29, x30, [sp,#-16]!
ffff0000000084dc:	910003fd 	mov	x29, sp
ffff0000000084e0:	b9001fa0 	str	w0, [x29,#28]
ffff0000000084e4:	39006fa1 	strb	w1, [x29,#27]
ffff0000000084e8:	b90017a2 	str	w2, [x29,#20]
ffff0000000084ec:	b0000440 	adrp	x0, ffff000000091000 <mem_map+0x7d3d0>
ffff0000000084f0:	9111e000 	add	x0, x0, #0x478
ffff0000000084f4:	b9406401 	ldr	w1, [x0,#100]
ffff0000000084f8:	b0000440 	adrp	x0, ffff000000091000 <mem_map+0x7d3d0>
ffff0000000084fc:	9111e000 	add	x0, x0, #0x478
ffff000000008500:	b9406800 	ldr	w0, [x0,#104]
ffff000000008504:	0b000021 	add	w1, w1, w0
ffff000000008508:	b9401fa0 	ldr	w0, [x29,#28]
ffff00000000850c:	531e7402 	lsl	w2, w0, #2
ffff000000008510:	b0000440 	adrp	x0, ffff000000091000 <mem_map+0x7d3d0>
ffff000000008514:	9111e000 	add	x0, x0, #0x478
ffff000000008518:	b9405800 	ldr	w0, [x0,#88]
ffff00000000851c:	1ac00840 	udiv	w0, w2, w0
ffff000000008520:	0b000020 	add	w0, w1, w0
ffff000000008524:	b9022fa0 	str	w0, [x29,#556]
ffff000000008528:	b9401fa0 	ldr	w0, [x29,#28]
ffff00000000852c:	531e7400 	lsl	w0, w0, #2
ffff000000008530:	b0000441 	adrp	x1, ffff000000091000 <mem_map+0x7d3d0>
ffff000000008534:	9111e021 	add	x1, x1, #0x478
ffff000000008538:	b9405821 	ldr	w1, [x1,#88]
ffff00000000853c:	1ac10802 	udiv	w2, w0, w1
ffff000000008540:	1b017c41 	mul	w1, w2, w1
ffff000000008544:	4b010000 	sub	w0, w0, w1
ffff000000008548:	b9022ba0 	str	w0, [x29,#552]
ffff00000000854c:	910083a0 	add	x0, x29, #0x20
ffff000000008550:	52800003 	mov	w3, #0x0                   	// #0
ffff000000008554:	aa0003e2 	mov	x2, x0
ffff000000008558:	52800021 	mov	w1, #0x1                   	// #1
ffff00000000855c:	b9422fa0 	ldr	w0, [x29,#556]
ffff000000008560:	97fffdf9 	bl	ffff000000007d44 <sdTransferBlocks>
ffff000000008564:	7100001f 	cmp	w0, #0x0
ffff000000008568:	54000060 	b.eq	ffff000000008574 <getSetNextCluster+0xa0>
ffff00000000856c:	12800000 	mov	w0, #0xffffffff            	// #-1
ffff000000008570:	1400001b 	b	ffff0000000085dc <getSetNextCluster+0x108>
ffff000000008574:	910083a1 	add	x1, x29, #0x20
ffff000000008578:	b9422ba0 	ldr	w0, [x29,#552]
ffff00000000857c:	8b000020 	add	x0, x1, x0
ffff000000008580:	f90113a0 	str	x0, [x29,#544]
ffff000000008584:	39406fa0 	ldrb	w0, [x29,#27]
ffff000000008588:	52000000 	eor	w0, w0, #0x1
ffff00000000858c:	53001c00 	uxtb	w0, w0
ffff000000008590:	7100001f 	cmp	w0, #0x0
ffff000000008594:	54000080 	b.eq	ffff0000000085a4 <getSetNextCluster+0xd0>
ffff000000008598:	f94113a0 	ldr	x0, [x29,#544]
ffff00000000859c:	b9400000 	ldr	w0, [x0]
ffff0000000085a0:	1400000f 	b	ffff0000000085dc <getSetNextCluster+0x108>
ffff0000000085a4:	f94113a0 	ldr	x0, [x29,#544]
ffff0000000085a8:	b94017a1 	ldr	w1, [x29,#20]
ffff0000000085ac:	b9000001 	str	w1, [x0]
ffff0000000085b0:	910083a0 	add	x0, x29, #0x20
ffff0000000085b4:	52800023 	mov	w3, #0x1                   	// #1
ffff0000000085b8:	aa0003e2 	mov	x2, x0
ffff0000000085bc:	52800021 	mov	w1, #0x1                   	// #1
ffff0000000085c0:	b9422fa0 	ldr	w0, [x29,#556]
ffff0000000085c4:	97fffde0 	bl	ffff000000007d44 <sdTransferBlocks>
ffff0000000085c8:	7100001f 	cmp	w0, #0x0
ffff0000000085cc:	54000060 	b.eq	ffff0000000085d8 <getSetNextCluster+0x104>
ffff0000000085d0:	12800000 	mov	w0, #0xffffffff            	// #-1
ffff0000000085d4:	14000002 	b	ffff0000000085dc <getSetNextCluster+0x108>
ffff0000000085d8:	52800000 	mov	w0, #0x0                   	// #0
ffff0000000085dc:	a8c17bfd 	ldp	x29, x30, [sp],#16
ffff0000000085e0:	910883ff 	add	sp, sp, #0x220
ffff0000000085e4:	d65f03c0 	ret

ffff0000000085e8 <SetFindDataFromFATEntry>:
ffff0000000085e8:	d10083ff 	sub	sp, sp, #0x20
ffff0000000085ec:	f90007e0 	str	x0, [sp,#8]
ffff0000000085f0:	f90003e1 	str	x1, [sp]
ffff0000000085f4:	f94007e0 	ldr	x0, [sp,#8]
ffff0000000085f8:	f100001f 	cmp	x0, #0x0
ffff0000000085fc:	54001000 	b.eq	ffff0000000087fc <SetFindDataFromFATEntry+0x214>
ffff000000008600:	f94003e0 	ldr	x0, [sp]
ffff000000008604:	f100001f 	cmp	x0, #0x0
ffff000000008608:	54000fa0 	b.eq	ffff0000000087fc <SetFindDataFromFATEntry+0x214>
ffff00000000860c:	f94007e0 	ldr	x0, [sp,#8]
ffff000000008610:	39402c00 	ldrb	w0, [x0,#11]
ffff000000008614:	2a0003e1 	mov	w1, w0
ffff000000008618:	f94003e0 	ldr	x0, [sp]
ffff00000000861c:	b900a801 	str	w1, [x0,#168]
ffff000000008620:	f94007e0 	ldr	x0, [sp,#8]
ffff000000008624:	79403000 	ldrh	w0, [x0,#24]
ffff000000008628:	53097c00 	lsr	w0, w0, #9
ffff00000000862c:	53003c00 	uxth	w0, w0
ffff000000008630:	11014001 	add	w1, w0, #0x50
ffff000000008634:	f94003e0 	ldr	x0, [sp]
ffff000000008638:	b9001401 	str	w1, [x0,#20]
ffff00000000863c:	f94007e0 	ldr	x0, [sp,#8]
ffff000000008640:	79403000 	ldrh	w0, [x0,#24]
ffff000000008644:	121b0c00 	and	w0, w0, #0x1e0
ffff000000008648:	13057c00 	asr	w0, w0, #5
ffff00000000864c:	51000401 	sub	w1, w0, #0x1
ffff000000008650:	f94003e0 	ldr	x0, [sp]
ffff000000008654:	b9001001 	str	w1, [x0,#16]
ffff000000008658:	f94007e0 	ldr	x0, [sp,#8]
ffff00000000865c:	79403000 	ldrh	w0, [x0,#24]
ffff000000008660:	12001001 	and	w1, w0, #0x1f
ffff000000008664:	f94003e0 	ldr	x0, [sp]
ffff000000008668:	b9000c01 	str	w1, [x0,#12]
ffff00000000866c:	f94007e0 	ldr	x0, [sp,#8]
ffff000000008670:	79402c00 	ldrh	w0, [x0,#22]
ffff000000008674:	530b7c00 	lsr	w0, w0, #11
ffff000000008678:	53003c00 	uxth	w0, w0
ffff00000000867c:	2a0003e1 	mov	w1, w0
ffff000000008680:	f94003e0 	ldr	x0, [sp]
ffff000000008684:	b9000801 	str	w1, [x0,#8]
ffff000000008688:	f94007e0 	ldr	x0, [sp,#8]
ffff00000000868c:	79402c00 	ldrh	w0, [x0,#22]
ffff000000008690:	121b1400 	and	w0, w0, #0x7e0
ffff000000008694:	13057c01 	asr	w1, w0, #5
ffff000000008698:	f94003e0 	ldr	x0, [sp]
ffff00000000869c:	b9000401 	str	w1, [x0,#4]
ffff0000000086a0:	f94007e0 	ldr	x0, [sp,#8]
ffff0000000086a4:	79402c00 	ldrh	w0, [x0,#22]
ffff0000000086a8:	12001000 	and	w0, w0, #0x1f
ffff0000000086ac:	0b000000 	add	w0, w0, w0
ffff0000000086b0:	2a0003e1 	mov	w1, w0
ffff0000000086b4:	f94003e0 	ldr	x0, [sp]
ffff0000000086b8:	b9000001 	str	w1, [x0]
ffff0000000086bc:	f94007e0 	ldr	x0, [sp,#8]
ffff0000000086c0:	79402400 	ldrh	w0, [x0,#18]
ffff0000000086c4:	53097c00 	lsr	w0, w0, #9
ffff0000000086c8:	53003c00 	uxth	w0, w0
ffff0000000086cc:	11014001 	add	w1, w0, #0x50
ffff0000000086d0:	f94003e0 	ldr	x0, [sp]
ffff0000000086d4:	b9004c01 	str	w1, [x0,#76]
ffff0000000086d8:	f94007e0 	ldr	x0, [sp,#8]
ffff0000000086dc:	79402400 	ldrh	w0, [x0,#18]
ffff0000000086e0:	121b0c00 	and	w0, w0, #0x1e0
ffff0000000086e4:	13057c00 	asr	w0, w0, #5
ffff0000000086e8:	51000401 	sub	w1, w0, #0x1
ffff0000000086ec:	f94003e0 	ldr	x0, [sp]
ffff0000000086f0:	b9004801 	str	w1, [x0,#72]
ffff0000000086f4:	f94007e0 	ldr	x0, [sp,#8]
ffff0000000086f8:	79402400 	ldrh	w0, [x0,#18]
ffff0000000086fc:	12001001 	and	w1, w0, #0x1f
ffff000000008700:	f94003e0 	ldr	x0, [sp]
ffff000000008704:	b9004401 	str	w1, [x0,#68]
ffff000000008708:	f94007e0 	ldr	x0, [sp,#8]
ffff00000000870c:	79402000 	ldrh	w0, [x0,#16]
ffff000000008710:	53097c00 	lsr	w0, w0, #9
ffff000000008714:	53003c00 	uxth	w0, w0
ffff000000008718:	11014001 	add	w1, w0, #0x50
ffff00000000871c:	f94003e0 	ldr	x0, [sp]
ffff000000008720:	b9008401 	str	w1, [x0,#132]
ffff000000008724:	f94007e0 	ldr	x0, [sp,#8]
ffff000000008728:	79402000 	ldrh	w0, [x0,#16]
ffff00000000872c:	121b0c00 	and	w0, w0, #0x1e0
ffff000000008730:	13057c00 	asr	w0, w0, #5
ffff000000008734:	51000401 	sub	w1, w0, #0x1
ffff000000008738:	f94003e0 	ldr	x0, [sp]
ffff00000000873c:	b9008001 	str	w1, [x0,#128]
ffff000000008740:	f94007e0 	ldr	x0, [sp,#8]
ffff000000008744:	79402000 	ldrh	w0, [x0,#16]
ffff000000008748:	12001001 	and	w1, w0, #0x1f
ffff00000000874c:	f94003e0 	ldr	x0, [sp]
ffff000000008750:	b9007c01 	str	w1, [x0,#124]
ffff000000008754:	f94007e0 	ldr	x0, [sp,#8]
ffff000000008758:	79401c00 	ldrh	w0, [x0,#14]
ffff00000000875c:	530b7c00 	lsr	w0, w0, #11
ffff000000008760:	53003c00 	uxth	w0, w0
ffff000000008764:	2a0003e1 	mov	w1, w0
ffff000000008768:	f94003e0 	ldr	x0, [sp]
ffff00000000876c:	b9007801 	str	w1, [x0,#120]
ffff000000008770:	f94007e0 	ldr	x0, [sp,#8]
ffff000000008774:	79401c00 	ldrh	w0, [x0,#14]
ffff000000008778:	121b1400 	and	w0, w0, #0x7e0
ffff00000000877c:	13057c01 	asr	w1, w0, #5
ffff000000008780:	f94003e0 	ldr	x0, [sp]
ffff000000008784:	b9007401 	str	w1, [x0,#116]
ffff000000008788:	f94007e0 	ldr	x0, [sp,#8]
ffff00000000878c:	79401c00 	ldrh	w0, [x0,#14]
ffff000000008790:	12001000 	and	w0, w0, #0x1f
ffff000000008794:	0b000000 	add	w0, w0, w0
ffff000000008798:	2a0003e1 	mov	w1, w0
ffff00000000879c:	f94003e0 	ldr	x0, [sp]
ffff0000000087a0:	b9007001 	str	w1, [x0,#112]
ffff0000000087a4:	f94007e0 	ldr	x0, [sp,#8]
ffff0000000087a8:	b9401c01 	ldr	w1, [x0,#28]
ffff0000000087ac:	f94003e0 	ldr	x0, [sp]
ffff0000000087b0:	b900b001 	str	w1, [x0,#176]
ffff0000000087b4:	f94003e0 	ldr	x0, [sp]
ffff0000000087b8:	b900ac1f 	str	wzr, [x0,#172]
ffff0000000087bc:	b9001fff 	str	wzr, [sp,#28]
ffff0000000087c0:	1400000c 	b	ffff0000000087f0 <SetFindDataFromFATEntry+0x208>
ffff0000000087c4:	f94007e1 	ldr	x1, [sp,#8]
ffff0000000087c8:	b9801fe0 	ldrsw	x0, [sp,#28]
ffff0000000087cc:	38606822 	ldrb	w2, [x1,x0]
ffff0000000087d0:	f94003e1 	ldr	x1, [sp]
ffff0000000087d4:	b9801fe0 	ldrsw	x0, [sp,#28]
ffff0000000087d8:	8b000020 	add	x0, x1, x0
ffff0000000087dc:	2a0203e1 	mov	w1, w2
ffff0000000087e0:	3906d001 	strb	w1, [x0,#436]
ffff0000000087e4:	b9401fe0 	ldr	w0, [sp,#28]
ffff0000000087e8:	11000400 	add	w0, w0, #0x1
ffff0000000087ec:	b9001fe0 	str	w0, [sp,#28]
ffff0000000087f0:	b9401fe0 	ldr	w0, [sp,#28]
ffff0000000087f4:	7100281f 	cmp	w0, #0xa
ffff0000000087f8:	54fffe69 	b.ls	ffff0000000087c4 <SetFindDataFromFATEntry+0x1dc>
ffff0000000087fc:	d503201f 	nop
ffff000000008800:	910083ff 	add	sp, sp, #0x20
ffff000000008804:	d65f03c0 	ret

ffff000000008808 <ReadLFNEntry>:
ffff000000008808:	a9bc7bfd 	stp	x29, x30, [sp,#-64]!
ffff00000000880c:	910003fd 	mov	x29, sp
ffff000000008810:	f9000bf3 	str	x19, [sp,#16]
ffff000000008814:	f90017a0 	str	x0, [x29,#40]
ffff000000008818:	f90013a1 	str	x1, [x29,#32]
ffff00000000881c:	3900f7bf 	strb	wzr, [x29,#61]
ffff000000008820:	3900f3bf 	strb	wzr, [x29,#60]
ffff000000008824:	f94017a0 	ldr	x0, [x29,#40]
ffff000000008828:	f100001f 	cmp	x0, #0x0
ffff00000000882c:	54000fc0 	b.eq	ffff000000008a24 <ReadLFNEntry+0x21c>
ffff000000008830:	79007fbf 	strh	wzr, [x29,#62]
ffff000000008834:	1400002b 	b	ffff0000000088e0 <ReadLFNEntry+0xd8>
ffff000000008838:	79407fa0 	ldrh	w0, [x29,#62]
ffff00000000883c:	0b000000 	add	w0, w0, w0
ffff000000008840:	f94017a1 	ldr	x1, [x29,#40]
ffff000000008844:	93407c00 	sxtw	x0, w0
ffff000000008848:	8b000020 	add	x0, x1, x0
ffff00000000884c:	39400400 	ldrb	w0, [x0,#1]
ffff000000008850:	3900efa0 	strb	w0, [x29,#59]
ffff000000008854:	79407fa0 	ldrh	w0, [x29,#62]
ffff000000008858:	0b000000 	add	w0, w0, w0
ffff00000000885c:	11000400 	add	w0, w0, #0x1
ffff000000008860:	f94017a1 	ldr	x1, [x29,#40]
ffff000000008864:	93407c00 	sxtw	x0, w0
ffff000000008868:	8b000020 	add	x0, x1, x0
ffff00000000886c:	39400400 	ldrb	w0, [x0,#1]
ffff000000008870:	3900eba0 	strb	w0, [x29,#58]
ffff000000008874:	3940eba0 	ldrb	w0, [x29,#58]
ffff000000008878:	53185c00 	lsl	w0, w0, #8
ffff00000000887c:	13003c01 	sxth	w1, w0
ffff000000008880:	3940efa0 	ldrb	w0, [x29,#59]
ffff000000008884:	13003c00 	sxth	w0, w0
ffff000000008888:	2a000020 	orr	w0, w1, w0
ffff00000000888c:	13003c00 	sxth	w0, w0
ffff000000008890:	790073a0 	strh	w0, [x29,#56]
ffff000000008894:	794073a0 	ldrh	w0, [x29,#56]
ffff000000008898:	7100001f 	cmp	w0, #0x0
ffff00000000889c:	54000081 	b.ne	ffff0000000088ac <ReadLFNEntry+0xa4>
ffff0000000088a0:	52800020 	mov	w0, #0x1                   	// #1
ffff0000000088a4:	3900f7a0 	strb	w0, [x29,#61]
ffff0000000088a8:	1400000b 	b	ffff0000000088d4 <ReadLFNEntry+0xcc>
ffff0000000088ac:	3940f3a0 	ldrb	w0, [x29,#60]
ffff0000000088b0:	11000401 	add	w1, w0, #0x1
ffff0000000088b4:	3900f3a1 	strb	w1, [x29,#60]
ffff0000000088b8:	53001c00 	uxtb	w0, w0
ffff0000000088bc:	f94013a1 	ldr	x1, [x29,#32]
ffff0000000088c0:	8b000033 	add	x19, x1, x0
ffff0000000088c4:	794073a0 	ldrh	w0, [x29,#56]
ffff0000000088c8:	97fff624 	bl	ffff000000006158 <wctob>
ffff0000000088cc:	53001c00 	uxtb	w0, w0
ffff0000000088d0:	39000260 	strb	w0, [x19]
ffff0000000088d4:	79407fa0 	ldrh	w0, [x29,#62]
ffff0000000088d8:	11000400 	add	w0, w0, #0x1
ffff0000000088dc:	79007fa0 	strh	w0, [x29,#62]
ffff0000000088e0:	79407fa0 	ldrh	w0, [x29,#62]
ffff0000000088e4:	7100101f 	cmp	w0, #0x4
ffff0000000088e8:	540000c8 	b.hi	ffff000000008900 <ReadLFNEntry+0xf8>
ffff0000000088ec:	3940f7a0 	ldrb	w0, [x29,#61]
ffff0000000088f0:	52000000 	eor	w0, w0, #0x1
ffff0000000088f4:	53001c00 	uxtb	w0, w0
ffff0000000088f8:	7100001f 	cmp	w0, #0x0
ffff0000000088fc:	54fff9e1 	b.ne	ffff000000008838 <ReadLFNEntry+0x30>
ffff000000008900:	79007fbf 	strh	wzr, [x29,#62]
ffff000000008904:	1400001b 	b	ffff000000008970 <ReadLFNEntry+0x168>
ffff000000008908:	79407fa0 	ldrh	w0, [x29,#62]
ffff00000000890c:	f94017a1 	ldr	x1, [x29,#40]
ffff000000008910:	93407c00 	sxtw	x0, w0
ffff000000008914:	8b000000 	add	x0, x0, x0
ffff000000008918:	8b000020 	add	x0, x1, x0
ffff00000000891c:	79401c00 	ldrh	w0, [x0,#14]
ffff000000008920:	790073a0 	strh	w0, [x29,#56]
ffff000000008924:	794073a0 	ldrh	w0, [x29,#56]
ffff000000008928:	7100001f 	cmp	w0, #0x0
ffff00000000892c:	54000081 	b.ne	ffff00000000893c <ReadLFNEntry+0x134>
ffff000000008930:	52800020 	mov	w0, #0x1                   	// #1
ffff000000008934:	3900f7a0 	strb	w0, [x29,#61]
ffff000000008938:	1400000b 	b	ffff000000008964 <ReadLFNEntry+0x15c>
ffff00000000893c:	3940f3a0 	ldrb	w0, [x29,#60]
ffff000000008940:	11000401 	add	w1, w0, #0x1
ffff000000008944:	3900f3a1 	strb	w1, [x29,#60]
ffff000000008948:	53001c00 	uxtb	w0, w0
ffff00000000894c:	f94013a1 	ldr	x1, [x29,#32]
ffff000000008950:	8b000033 	add	x19, x1, x0
ffff000000008954:	794073a0 	ldrh	w0, [x29,#56]
ffff000000008958:	97fff600 	bl	ffff000000006158 <wctob>
ffff00000000895c:	53001c00 	uxtb	w0, w0
ffff000000008960:	39000260 	strb	w0, [x19]
ffff000000008964:	79407fa0 	ldrh	w0, [x29,#62]
ffff000000008968:	11000400 	add	w0, w0, #0x1
ffff00000000896c:	79007fa0 	strh	w0, [x29,#62]
ffff000000008970:	79407fa0 	ldrh	w0, [x29,#62]
ffff000000008974:	7100141f 	cmp	w0, #0x5
ffff000000008978:	540000c8 	b.hi	ffff000000008990 <ReadLFNEntry+0x188>
ffff00000000897c:	3940f7a0 	ldrb	w0, [x29,#61]
ffff000000008980:	52000000 	eor	w0, w0, #0x1
ffff000000008984:	53001c00 	uxtb	w0, w0
ffff000000008988:	7100001f 	cmp	w0, #0x0
ffff00000000898c:	54fffbe1 	b.ne	ffff000000008908 <ReadLFNEntry+0x100>
ffff000000008990:	79007fbf 	strh	wzr, [x29,#62]
ffff000000008994:	1400001c 	b	ffff000000008a04 <ReadLFNEntry+0x1fc>
ffff000000008998:	79407fa0 	ldrh	w0, [x29,#62]
ffff00000000899c:	f94017a1 	ldr	x1, [x29,#40]
ffff0000000089a0:	93407c00 	sxtw	x0, w0
ffff0000000089a4:	91002000 	add	x0, x0, #0x8
ffff0000000089a8:	8b000000 	add	x0, x0, x0
ffff0000000089ac:	8b000020 	add	x0, x1, x0
ffff0000000089b0:	79401800 	ldrh	w0, [x0,#12]
ffff0000000089b4:	790073a0 	strh	w0, [x29,#56]
ffff0000000089b8:	794073a0 	ldrh	w0, [x29,#56]
ffff0000000089bc:	7100001f 	cmp	w0, #0x0
ffff0000000089c0:	54000081 	b.ne	ffff0000000089d0 <ReadLFNEntry+0x1c8>
ffff0000000089c4:	52800020 	mov	w0, #0x1                   	// #1
ffff0000000089c8:	3900f7a0 	strb	w0, [x29,#61]
ffff0000000089cc:	1400000b 	b	ffff0000000089f8 <ReadLFNEntry+0x1f0>
ffff0000000089d0:	3940f3a0 	ldrb	w0, [x29,#60]
ffff0000000089d4:	11000401 	add	w1, w0, #0x1
ffff0000000089d8:	3900f3a1 	strb	w1, [x29,#60]
ffff0000000089dc:	53001c00 	uxtb	w0, w0
ffff0000000089e0:	f94013a1 	ldr	x1, [x29,#32]
ffff0000000089e4:	8b000033 	add	x19, x1, x0
ffff0000000089e8:	794073a0 	ldrh	w0, [x29,#56]
ffff0000000089ec:	97fff5db 	bl	ffff000000006158 <wctob>
ffff0000000089f0:	53001c00 	uxtb	w0, w0
ffff0000000089f4:	39000260 	strb	w0, [x19]
ffff0000000089f8:	79407fa0 	ldrh	w0, [x29,#62]
ffff0000000089fc:	11000400 	add	w0, w0, #0x1
ffff000000008a00:	79007fa0 	strh	w0, [x29,#62]
ffff000000008a04:	79407fa0 	ldrh	w0, [x29,#62]
ffff000000008a08:	7100041f 	cmp	w0, #0x1
ffff000000008a0c:	540000c8 	b.hi	ffff000000008a24 <ReadLFNEntry+0x21c>
ffff000000008a10:	3940f7a0 	ldrb	w0, [x29,#61]
ffff000000008a14:	52000000 	eor	w0, w0, #0x1
ffff000000008a18:	53001c00 	uxtb	w0, w0
ffff000000008a1c:	7100001f 	cmp	w0, #0x0
ffff000000008a20:	54fffbc1 	b.ne	ffff000000008998 <ReadLFNEntry+0x190>
ffff000000008a24:	3940f3a0 	ldrb	w0, [x29,#60]
ffff000000008a28:	f94013a1 	ldr	x1, [x29,#32]
ffff000000008a2c:	8b000020 	add	x0, x1, x0
ffff000000008a30:	3900001f 	strb	wzr, [x0]
ffff000000008a34:	3940f3a0 	ldrb	w0, [x29,#60]
ffff000000008a38:	f9400bf3 	ldr	x19, [sp,#16]
ffff000000008a3c:	a8c47bfd 	ldp	x29, x30, [sp],#64
ffff000000008a40:	d65f03c0 	ret

ffff000000008a44 <WildcardMatch>:
ffff000000008a44:	a9bb7bfd 	stp	x29, x30, [sp,#-80]!
ffff000000008a48:	910003fd 	mov	x29, sp
ffff000000008a4c:	f9000bf3 	str	x19, [sp,#16]
ffff000000008a50:	f90017a0 	str	x0, [x29,#40]
ffff000000008a54:	f90013a1 	str	x1, [x29,#32]
ffff000000008a58:	f90027bf 	str	xzr, [x29,#72]
ffff000000008a5c:	f90023bf 	str	xzr, [x29,#64]
ffff000000008a60:	1400007a 	b	ffff000000008c48 <WildcardMatch+0x204>
ffff000000008a64:	f94017a0 	ldr	x0, [x29,#40]
ffff000000008a68:	91000401 	add	x1, x0, #0x1
ffff000000008a6c:	f90017a1 	str	x1, [x29,#40]
ffff000000008a70:	39400000 	ldrb	w0, [x0]
ffff000000008a74:	b9003fa0 	str	w0, [x29,#60]
ffff000000008a78:	b9403fa0 	ldr	w0, [x29,#60]
ffff000000008a7c:	7100fc1f 	cmp	w0, #0x3f
ffff000000008a80:	54000740 	b.eq	ffff000000008b68 <WildcardMatch+0x124>
ffff000000008a84:	7100fc1f 	cmp	w0, #0x3f
ffff000000008a88:	5400008c 	b.gt	ffff000000008a98 <WildcardMatch+0x54>
ffff000000008a8c:	7100a81f 	cmp	w0, #0x2a
ffff000000008a90:	540000e0 	b.eq	ffff000000008aac <WildcardMatch+0x68>
ffff000000008a94:	14000047 	b	ffff000000008bb0 <WildcardMatch+0x16c>
ffff000000008a98:	71016c1f 	cmp	w0, #0x5b
ffff000000008a9c:	54000120 	b.eq	ffff000000008ac0 <WildcardMatch+0x7c>
ffff000000008aa0:	7101701f 	cmp	w0, #0x5c
ffff000000008aa4:	54000720 	b.eq	ffff000000008b88 <WildcardMatch+0x144>
ffff000000008aa8:	14000042 	b	ffff000000008bb0 <WildcardMatch+0x16c>
ffff000000008aac:	f94017a0 	ldr	x0, [x29,#40]
ffff000000008ab0:	f90027a0 	str	x0, [x29,#72]
ffff000000008ab4:	f94013a0 	ldr	x0, [x29,#32]
ffff000000008ab8:	f90023a0 	str	x0, [x29,#64]
ffff000000008abc:	1400005e 	b	ffff000000008c34 <WildcardMatch+0x1f0>
ffff000000008ac0:	3900efbf 	strb	wzr, [x29,#59]
ffff000000008ac4:	14000015 	b	ffff000000008b18 <WildcardMatch+0xd4>
ffff000000008ac8:	b9403fa0 	ldr	w0, [x29,#60]
ffff000000008acc:	7101701f 	cmp	w0, #0x5c
ffff000000008ad0:	540000c1 	b.ne	ffff000000008ae8 <WildcardMatch+0xa4>
ffff000000008ad4:	f94017a0 	ldr	x0, [x29,#40]
ffff000000008ad8:	91000401 	add	x1, x0, #0x1
ffff000000008adc:	f90017a1 	str	x1, [x29,#40]
ffff000000008ae0:	39400000 	ldrb	w0, [x0]
ffff000000008ae4:	b9003fa0 	str	w0, [x29,#60]
ffff000000008ae8:	b9403fa0 	ldr	w0, [x29,#60]
ffff000000008aec:	7100001f 	cmp	w0, #0x0
ffff000000008af0:	54000061 	b.ne	ffff000000008afc <WildcardMatch+0xb8>
ffff000000008af4:	52800000 	mov	w0, #0x0                   	// #0
ffff000000008af8:	1400005f 	b	ffff000000008c74 <WildcardMatch+0x230>
ffff000000008afc:	f94013a0 	ldr	x0, [x29,#32]
ffff000000008b00:	39400000 	ldrb	w0, [x0]
ffff000000008b04:	2a0003e1 	mov	w1, w0
ffff000000008b08:	b9403fa0 	ldr	w0, [x29,#60]
ffff000000008b0c:	6b00003f 	cmp	w1, w0
ffff000000008b10:	54000041 	b.ne	ffff000000008b18 <WildcardMatch+0xd4>
ffff000000008b14:	3900efbf 	strb	wzr, [x29,#59]
ffff000000008b18:	f94017a0 	ldr	x0, [x29,#40]
ffff000000008b1c:	91000401 	add	x1, x0, #0x1
ffff000000008b20:	f90017a1 	str	x1, [x29,#40]
ffff000000008b24:	39400000 	ldrb	w0, [x0]
ffff000000008b28:	b9003fa0 	str	w0, [x29,#60]
ffff000000008b2c:	b9403fa0 	ldr	w0, [x29,#60]
ffff000000008b30:	7101741f 	cmp	w0, #0x5d
ffff000000008b34:	54fffca1 	b.ne	ffff000000008ac8 <WildcardMatch+0x84>
ffff000000008b38:	3940efa0 	ldrb	w0, [x29,#59]
ffff000000008b3c:	52000000 	eor	w0, w0, #0x1
ffff000000008b40:	53001c00 	uxtb	w0, w0
ffff000000008b44:	7100001f 	cmp	w0, #0x0
ffff000000008b48:	54000100 	b.eq	ffff000000008b68 <WildcardMatch+0x124>
ffff000000008b4c:	f94027a0 	ldr	x0, [x29,#72]
ffff000000008b50:	f90017a0 	str	x0, [x29,#40]
ffff000000008b54:	f94023a0 	ldr	x0, [x29,#64]
ffff000000008b58:	91000400 	add	x0, x0, #0x1
ffff000000008b5c:	f90023a0 	str	x0, [x29,#64]
ffff000000008b60:	f94023a0 	ldr	x0, [x29,#64]
ffff000000008b64:	f90013a0 	str	x0, [x29,#32]
ffff000000008b68:	f94013a0 	ldr	x0, [x29,#32]
ffff000000008b6c:	91000401 	add	x1, x0, #0x1
ffff000000008b70:	f90013a1 	str	x1, [x29,#32]
ffff000000008b74:	39400000 	ldrb	w0, [x0]
ffff000000008b78:	7100001f 	cmp	w0, #0x0
ffff000000008b7c:	54000561 	b.ne	ffff000000008c28 <WildcardMatch+0x1e4>
ffff000000008b80:	52800000 	mov	w0, #0x0                   	// #0
ffff000000008b84:	1400003c 	b	ffff000000008c74 <WildcardMatch+0x230>
ffff000000008b88:	f94017a0 	ldr	x0, [x29,#40]
ffff000000008b8c:	91000401 	add	x1, x0, #0x1
ffff000000008b90:	f90017a1 	str	x1, [x29,#40]
ffff000000008b94:	39400000 	ldrb	w0, [x0]
ffff000000008b98:	b9003fa0 	str	w0, [x29,#60]
ffff000000008b9c:	b9403fa0 	ldr	w0, [x29,#60]
ffff000000008ba0:	7100001f 	cmp	w0, #0x0
ffff000000008ba4:	54000061 	b.ne	ffff000000008bb0 <WildcardMatch+0x16c>
ffff000000008ba8:	52800000 	mov	w0, #0x0                   	// #0
ffff000000008bac:	14000032 	b	ffff000000008c74 <WildcardMatch+0x230>
ffff000000008bb0:	f94013a0 	ldr	x0, [x29,#32]
ffff000000008bb4:	39400000 	ldrb	w0, [x0]
ffff000000008bb8:	97fff55a 	bl	ffff000000006120 <toupper>
ffff000000008bbc:	2a0003f3 	mov	w19, w0
ffff000000008bc0:	b9403fa0 	ldr	w0, [x29,#60]
ffff000000008bc4:	97fff557 	bl	ffff000000006120 <toupper>
ffff000000008bc8:	6b00027f 	cmp	w19, w0
ffff000000008bcc:	54000121 	b.ne	ffff000000008bf0 <WildcardMatch+0x1ac>
ffff000000008bd0:	f94013a0 	ldr	x0, [x29,#32]
ffff000000008bd4:	39400000 	ldrb	w0, [x0]
ffff000000008bd8:	7100001f 	cmp	w0, #0x0
ffff000000008bdc:	540002a0 	b.eq	ffff000000008c30 <WildcardMatch+0x1ec>
ffff000000008be0:	f94013a0 	ldr	x0, [x29,#32]
ffff000000008be4:	91000400 	add	x0, x0, #0x1
ffff000000008be8:	f90013a0 	str	x0, [x29,#32]
ffff000000008bec:	14000011 	b	ffff000000008c30 <WildcardMatch+0x1ec>
ffff000000008bf0:	f94013a0 	ldr	x0, [x29,#32]
ffff000000008bf4:	39400000 	ldrb	w0, [x0]
ffff000000008bf8:	7100001f 	cmp	w0, #0x0
ffff000000008bfc:	54000120 	b.eq	ffff000000008c20 <WildcardMatch+0x1dc>
ffff000000008c00:	f94027a0 	ldr	x0, [x29,#72]
ffff000000008c04:	f90017a0 	str	x0, [x29,#40]
ffff000000008c08:	f94023a0 	ldr	x0, [x29,#64]
ffff000000008c0c:	91000400 	add	x0, x0, #0x1
ffff000000008c10:	f90023a0 	str	x0, [x29,#64]
ffff000000008c14:	f94023a0 	ldr	x0, [x29,#64]
ffff000000008c18:	f90013a0 	str	x0, [x29,#32]
ffff000000008c1c:	14000006 	b	ffff000000008c34 <WildcardMatch+0x1f0>
ffff000000008c20:	52800000 	mov	w0, #0x0                   	// #0
ffff000000008c24:	14000014 	b	ffff000000008c74 <WildcardMatch+0x230>
ffff000000008c28:	d503201f 	nop
ffff000000008c2c:	14000002 	b	ffff000000008c34 <WildcardMatch+0x1f0>
ffff000000008c30:	d503201f 	nop
ffff000000008c34:	f94017a0 	ldr	x0, [x29,#40]
ffff000000008c38:	f100001f 	cmp	x0, #0x0
ffff000000008c3c:	54000061 	b.ne	ffff000000008c48 <WildcardMatch+0x204>
ffff000000008c40:	52800000 	mov	w0, #0x0                   	// #0
ffff000000008c44:	1400000c 	b	ffff000000008c74 <WildcardMatch+0x230>
ffff000000008c48:	f94013a0 	ldr	x0, [x29,#32]
ffff000000008c4c:	39400000 	ldrb	w0, [x0]
ffff000000008c50:	97fff534 	bl	ffff000000006120 <toupper>
ffff000000008c54:	7100001f 	cmp	w0, #0x0
ffff000000008c58:	54fff061 	b.ne	ffff000000008a64 <WildcardMatch+0x20>
ffff000000008c5c:	f94017a0 	ldr	x0, [x29,#40]
ffff000000008c60:	39400000 	ldrb	w0, [x0]
ffff000000008c64:	97fff52f 	bl	ffff000000006120 <toupper>
ffff000000008c68:	7100001f 	cmp	w0, #0x0
ffff000000008c6c:	54ffefc1 	b.ne	ffff000000008a64 <WildcardMatch+0x20>
ffff000000008c70:	52800020 	mov	w0, #0x1                   	// #1
ffff000000008c74:	f9400bf3 	ldr	x19, [sp,#16]
ffff000000008c78:	a8c57bfd 	ldp	x29, x30, [sp],#80
ffff000000008c7c:	d65f03c0 	ret

ffff000000008c80 <LocateFATEntry>:
ffff000000008c80:	a9b87bfd 	stp	x29, x30, [sp,#-128]!
ffff000000008c84:	910003fd 	mov	x29, sp
ffff000000008c88:	f9001fa0 	str	x0, [x29,#56]
ffff000000008c8c:	f9001ba1 	str	x1, [x29,#48]
ffff000000008c90:	3900bfa2 	strb	w2, [x29,#47]
ffff000000008c94:	f90013a3 	str	x3, [x29,#32]
ffff000000008c98:	f9000fa4 	str	x4, [x29,#24]
ffff000000008c9c:	b9007fbf 	str	wzr, [x29,#124]
ffff000000008ca0:	1400015b 	b	ffff00000000920c <LocateFATEntry+0x58c>
ffff000000008ca4:	f9401ba0 	ldr	x0, [x29,#48]
ffff000000008ca8:	b9400c00 	ldr	w0, [x0,#12]
ffff000000008cac:	2a0003e0 	mov	w0, w0
ffff000000008cb0:	91004000 	add	x0, x0, #0x10
ffff000000008cb4:	f9401ba1 	ldr	x1, [x29,#48]
ffff000000008cb8:	8b000020 	add	x0, x1, x0
ffff000000008cbc:	f9002fa0 	str	x0, [x29,#88]
ffff000000008cc0:	f9402fa0 	ldr	x0, [x29,#88]
ffff000000008cc4:	39400000 	ldrb	w0, [x0]
ffff000000008cc8:	7100001f 	cmp	w0, #0x0
ffff000000008ccc:	54000121 	b.ne	ffff000000008cf0 <LocateFATEntry+0x70>
ffff000000008cd0:	f9400fa0 	ldr	x0, [x29,#24]
ffff000000008cd4:	f100001f 	cmp	x0, #0x0
ffff000000008cd8:	54000080 	b.eq	ffff000000008ce8 <LocateFATEntry+0x68>
ffff000000008cdc:	f9400fa0 	ldr	x0, [x29,#24]
ffff000000008ce0:	52800021 	mov	w1, #0x1                   	// #1
ffff000000008ce4:	b9000001 	str	w1, [x0]
ffff000000008ce8:	d2800000 	mov	x0, #0x0                   	// #0
ffff000000008cec:	14000159 	b	ffff000000009250 <LocateFATEntry+0x5d0>
ffff000000008cf0:	f9402fa0 	ldr	x0, [x29,#88]
ffff000000008cf4:	39400000 	ldrb	w0, [x0]
ffff000000008cf8:	7103941f 	cmp	w0, #0xe5
ffff000000008cfc:	54001c00 	b.eq	ffff00000000907c <LocateFATEntry+0x3fc>
ffff000000008d00:	f9402fa0 	ldr	x0, [x29,#88]
ffff000000008d04:	39402c00 	ldrb	w0, [x0,#11]
ffff000000008d08:	7100201f 	cmp	w0, #0x8
ffff000000008d0c:	54001b80 	b.eq	ffff00000000907c <LocateFATEntry+0x3fc>
ffff000000008d10:	f9402fa0 	ldr	x0, [x29,#88]
ffff000000008d14:	39402c00 	ldrb	w0, [x0,#11]
ffff000000008d18:	71003c1f 	cmp	w0, #0xf
ffff000000008d1c:	54000541 	b.ne	ffff000000008dc4 <LocateFATEntry+0x144>
ffff000000008d20:	f90027bf 	str	xzr, [x29,#72]
ffff000000008d24:	b90053bf 	str	wzr, [x29,#80]
ffff000000008d28:	7900abbf 	strh	wzr, [x29,#84]
ffff000000008d2c:	f9401ba0 	ldr	x0, [x29,#48]
ffff000000008d30:	b9400c00 	ldr	w0, [x0,#12]
ffff000000008d34:	2a0003e0 	mov	w0, w0
ffff000000008d38:	91004000 	add	x0, x0, #0x10
ffff000000008d3c:	f9401ba1 	ldr	x1, [x29,#48]
ffff000000008d40:	8b000020 	add	x0, x1, x0
ffff000000008d44:	910123a1 	add	x1, x29, #0x48
ffff000000008d48:	97fffeb0 	bl	ffff000000008808 <ReadLFNEntry>
ffff000000008d4c:	39015fa0 	strb	w0, [x29,#87]
ffff000000008d50:	b9007bbf 	str	wzr, [x29,#120]
ffff000000008d54:	14000013 	b	ffff000000008da0 <LocateFATEntry+0x120>
ffff000000008d58:	b9407fa0 	ldr	w0, [x29,#124]
ffff000000008d5c:	4b0003e1 	neg	w1, w0
ffff000000008d60:	39415fa0 	ldrb	w0, [x29,#87]
ffff000000008d64:	4b000021 	sub	w1, w1, w0
ffff000000008d68:	b9407ba0 	ldr	w0, [x29,#120]
ffff000000008d6c:	0b000020 	add	w0, w1, w0
ffff000000008d70:	1103fc00 	add	w0, w0, #0xff
ffff000000008d74:	2a0003e0 	mov	w0, w0
ffff000000008d78:	f94013a1 	ldr	x1, [x29,#32]
ffff000000008d7c:	8b000020 	add	x0, x1, x0
ffff000000008d80:	b9807ba1 	ldrsw	x1, [x29,#120]
ffff000000008d84:	d13e03a2 	sub	x2, x29, #0xf80
ffff000000008d88:	8b010041 	add	x1, x2, x1
ffff000000008d8c:	397f2021 	ldrb	w1, [x1,#4040]
ffff000000008d90:	39000001 	strb	w1, [x0]
ffff000000008d94:	b9407ba0 	ldr	w0, [x29,#120]
ffff000000008d98:	11000400 	add	w0, w0, #0x1
ffff000000008d9c:	b9007ba0 	str	w0, [x29,#120]
ffff000000008da0:	39415fa1 	ldrb	w1, [x29,#87]
ffff000000008da4:	b9407ba0 	ldr	w0, [x29,#120]
ffff000000008da8:	6b00003f 	cmp	w1, w0
ffff000000008dac:	54fffd6c 	b.gt	ffff000000008d58 <LocateFATEntry+0xd8>
ffff000000008db0:	39415fa0 	ldrb	w0, [x29,#87]
ffff000000008db4:	b9407fa1 	ldr	w1, [x29,#124]
ffff000000008db8:	0b000020 	add	w0, w1, w0
ffff000000008dbc:	b9007fa0 	str	w0, [x29,#124]
ffff000000008dc0:	140000af 	b	ffff00000000907c <LocateFATEntry+0x3fc>
ffff000000008dc4:	f9003bbf 	str	xzr, [x29,#112]
ffff000000008dc8:	b9407fa0 	ldr	w0, [x29,#124]
ffff000000008dcc:	7100001f 	cmp	w0, #0x0
ffff000000008dd0:	54000720 	b.eq	ffff000000008eb4 <LocateFATEntry+0x234>
ffff000000008dd4:	3901bfbf 	strb	wzr, [x29,#111]
ffff000000008dd8:	b9006bbf 	str	wzr, [x29,#104]
ffff000000008ddc:	14000018 	b	ffff000000008e3c <LocateFATEntry+0x1bc>
ffff000000008de0:	b9806ba0 	ldrsw	x0, [x29,#104]
ffff000000008de4:	f94013a1 	ldr	x1, [x29,#32]
ffff000000008de8:	8b000020 	add	x0, x1, x0
ffff000000008dec:	b9406ba2 	ldr	w2, [x29,#104]
ffff000000008df0:	b9407fa1 	ldr	w1, [x29,#124]
ffff000000008df4:	4b010041 	sub	w1, w2, w1
ffff000000008df8:	1103fc21 	add	w1, w1, #0xff
ffff000000008dfc:	2a0103e1 	mov	w1, w1
ffff000000008e00:	f94013a2 	ldr	x2, [x29,#32]
ffff000000008e04:	8b010041 	add	x1, x2, x1
ffff000000008e08:	39400021 	ldrb	w1, [x1]
ffff000000008e0c:	39000001 	strb	w1, [x0]
ffff000000008e10:	b9806ba0 	ldrsw	x0, [x29,#104]
ffff000000008e14:	f94013a1 	ldr	x1, [x29,#32]
ffff000000008e18:	8b000020 	add	x0, x1, x0
ffff000000008e1c:	39400000 	ldrb	w0, [x0]
ffff000000008e20:	7100b81f 	cmp	w0, #0x2e
ffff000000008e24:	54000061 	b.ne	ffff000000008e30 <LocateFATEntry+0x1b0>
ffff000000008e28:	52800020 	mov	w0, #0x1                   	// #1
ffff000000008e2c:	3901bfa0 	strb	w0, [x29,#111]
ffff000000008e30:	b9406ba0 	ldr	w0, [x29,#104]
ffff000000008e34:	11000400 	add	w0, w0, #0x1
ffff000000008e38:	b9006ba0 	str	w0, [x29,#104]
ffff000000008e3c:	b9406ba1 	ldr	w1, [x29,#104]
ffff000000008e40:	b9407fa0 	ldr	w0, [x29,#124]
ffff000000008e44:	6b00003f 	cmp	w1, w0
ffff000000008e48:	54fffcc3 	b.cc	ffff000000008de0 <LocateFATEntry+0x160>
ffff000000008e4c:	3941bfa0 	ldrb	w0, [x29,#111]
ffff000000008e50:	52000000 	eor	w0, w0, #0x1
ffff000000008e54:	53001c00 	uxtb	w0, w0
ffff000000008e58:	7100001f 	cmp	w0, #0x0
ffff000000008e5c:	54000200 	b.eq	ffff000000008e9c <LocateFATEntry+0x21c>
ffff000000008e60:	3940bfa0 	ldrb	w0, [x29,#47]
ffff000000008e64:	52000000 	eor	w0, w0, #0x1
ffff000000008e68:	53001c00 	uxtb	w0, w0
ffff000000008e6c:	7100001f 	cmp	w0, #0x0
ffff000000008e70:	54000160 	b.eq	ffff000000008e9c <LocateFATEntry+0x21c>
ffff000000008e74:	b9407fa0 	ldr	w0, [x29,#124]
ffff000000008e78:	f9003ba0 	str	x0, [x29,#112]
ffff000000008e7c:	b9407fa0 	ldr	w0, [x29,#124]
ffff000000008e80:	11000401 	add	w1, w0, #0x1
ffff000000008e84:	b9007fa1 	str	w1, [x29,#124]
ffff000000008e88:	2a0003e0 	mov	w0, w0
ffff000000008e8c:	f94013a1 	ldr	x1, [x29,#32]
ffff000000008e90:	8b000020 	add	x0, x1, x0
ffff000000008e94:	528005c1 	mov	w1, #0x2e                  	// #46
ffff000000008e98:	39000001 	strb	w1, [x0]
ffff000000008e9c:	b9407fa0 	ldr	w0, [x29,#124]
ffff000000008ea0:	f94013a1 	ldr	x1, [x29,#32]
ffff000000008ea4:	8b000020 	add	x0, x1, x0
ffff000000008ea8:	3900001f 	strb	wzr, [x0]
ffff000000008eac:	b9007fbf 	str	wzr, [x29,#124]
ffff000000008eb0:	14000056 	b	ffff000000009008 <LocateFATEntry+0x388>
ffff000000008eb4:	b90067bf 	str	wzr, [x29,#100]
ffff000000008eb8:	1400000b 	b	ffff000000008ee4 <LocateFATEntry+0x264>
ffff000000008ebc:	b98067a0 	ldrsw	x0, [x29,#100]
ffff000000008ec0:	f94013a1 	ldr	x1, [x29,#32]
ffff000000008ec4:	8b000020 	add	x0, x1, x0
ffff000000008ec8:	f9402fa2 	ldr	x2, [x29,#88]
ffff000000008ecc:	b98067a1 	ldrsw	x1, [x29,#100]
ffff000000008ed0:	38616841 	ldrb	w1, [x2,x1]
ffff000000008ed4:	39000001 	strb	w1, [x0]
ffff000000008ed8:	b94067a0 	ldr	w0, [x29,#100]
ffff000000008edc:	11000400 	add	w0, w0, #0x1
ffff000000008ee0:	b90067a0 	str	w0, [x29,#100]
ffff000000008ee4:	b94067a0 	ldr	w0, [x29,#100]
ffff000000008ee8:	71001c1f 	cmp	w0, #0x7
ffff000000008eec:	5400016c 	b.gt	ffff000000008f18 <LocateFATEntry+0x298>
ffff000000008ef0:	f9402fa1 	ldr	x1, [x29,#88]
ffff000000008ef4:	b98067a0 	ldrsw	x0, [x29,#100]
ffff000000008ef8:	38606820 	ldrb	w0, [x1,x0]
ffff000000008efc:	7100001f 	cmp	w0, #0x0
ffff000000008f00:	540000c0 	b.eq	ffff000000008f18 <LocateFATEntry+0x298>
ffff000000008f04:	f9402fa1 	ldr	x1, [x29,#88]
ffff000000008f08:	b98067a0 	ldrsw	x0, [x29,#100]
ffff000000008f0c:	38606820 	ldrb	w0, [x1,x0]
ffff000000008f10:	7100801f 	cmp	w0, #0x20
ffff000000008f14:	54fffd41 	b.ne	ffff000000008ebc <LocateFATEntry+0x23c>
ffff000000008f18:	3940bfa0 	ldrb	w0, [x29,#47]
ffff000000008f1c:	52000000 	eor	w0, w0, #0x1
ffff000000008f20:	53001c00 	uxtb	w0, w0
ffff000000008f24:	7100001f 	cmp	w0, #0x0
ffff000000008f28:	54000680 	b.eq	ffff000000008ff8 <LocateFATEntry+0x378>
ffff000000008f2c:	b94067a0 	ldr	w0, [x29,#100]
ffff000000008f30:	11000401 	add	w1, w0, #0x1
ffff000000008f34:	b90067a1 	str	w1, [x29,#100]
ffff000000008f38:	93407c00 	sxtw	x0, w0
ffff000000008f3c:	f94013a1 	ldr	x1, [x29,#32]
ffff000000008f40:	8b000020 	add	x0, x1, x0
ffff000000008f44:	528005c1 	mov	w1, #0x2e                  	// #46
ffff000000008f48:	39000001 	strb	w1, [x0]
ffff000000008f4c:	f9402fa0 	ldr	x0, [x29,#88]
ffff000000008f50:	39402c00 	ldrb	w0, [x0,#11]
ffff000000008f54:	7100401f 	cmp	w0, #0x10
ffff000000008f58:	54000480 	b.eq	ffff000000008fe8 <LocateFATEntry+0x368>
ffff000000008f5c:	b90063bf 	str	wzr, [x29,#96]
ffff000000008f60:	14000010 	b	ffff000000008fa0 <LocateFATEntry+0x320>
ffff000000008f64:	b94067a0 	ldr	w0, [x29,#100]
ffff000000008f68:	11000401 	add	w1, w0, #0x1
ffff000000008f6c:	b90067a1 	str	w1, [x29,#100]
ffff000000008f70:	93407c00 	sxtw	x0, w0
ffff000000008f74:	f94013a1 	ldr	x1, [x29,#32]
ffff000000008f78:	8b000020 	add	x0, x1, x0
ffff000000008f7c:	b94063a1 	ldr	w1, [x29,#96]
ffff000000008f80:	11002021 	add	w1, w1, #0x8
ffff000000008f84:	f9402fa2 	ldr	x2, [x29,#88]
ffff000000008f88:	93407c21 	sxtw	x1, w1
ffff000000008f8c:	38616841 	ldrb	w1, [x2,x1]
ffff000000008f90:	39000001 	strb	w1, [x0]
ffff000000008f94:	b94063a0 	ldr	w0, [x29,#96]
ffff000000008f98:	11000400 	add	w0, w0, #0x1
ffff000000008f9c:	b90063a0 	str	w0, [x29,#96]
ffff000000008fa0:	b94063a0 	ldr	w0, [x29,#96]
ffff000000008fa4:	7100081f 	cmp	w0, #0x2
ffff000000008fa8:	5400028c 	b.gt	ffff000000008ff8 <LocateFATEntry+0x378>
ffff000000008fac:	b94063a0 	ldr	w0, [x29,#96]
ffff000000008fb0:	11002000 	add	w0, w0, #0x8
ffff000000008fb4:	f9402fa1 	ldr	x1, [x29,#88]
ffff000000008fb8:	93407c00 	sxtw	x0, w0
ffff000000008fbc:	38606820 	ldrb	w0, [x1,x0]
ffff000000008fc0:	7100001f 	cmp	w0, #0x0
ffff000000008fc4:	540001a0 	b.eq	ffff000000008ff8 <LocateFATEntry+0x378>
ffff000000008fc8:	b94063a0 	ldr	w0, [x29,#96]
ffff000000008fcc:	11002000 	add	w0, w0, #0x8
ffff000000008fd0:	f9402fa1 	ldr	x1, [x29,#88]
ffff000000008fd4:	93407c00 	sxtw	x0, w0
ffff000000008fd8:	38606820 	ldrb	w0, [x1,x0]
ffff000000008fdc:	7100801f 	cmp	w0, #0x20
ffff000000008fe0:	54fffc21 	b.ne	ffff000000008f64 <LocateFATEntry+0x2e4>
ffff000000008fe4:	14000005 	b	ffff000000008ff8 <LocateFATEntry+0x378>
ffff000000008fe8:	b94067a0 	ldr	w0, [x29,#100]
ffff000000008fec:	51000400 	sub	w0, w0, #0x1
ffff000000008ff0:	93407c00 	sxtw	x0, w0
ffff000000008ff4:	f9003ba0 	str	x0, [x29,#112]
ffff000000008ff8:	b98067a0 	ldrsw	x0, [x29,#100]
ffff000000008ffc:	f94013a1 	ldr	x1, [x29,#32]
ffff000000009000:	8b000020 	add	x0, x1, x0
ffff000000009004:	3900001f 	strb	wzr, [x0]
ffff000000009008:	f9402fa0 	ldr	x0, [x29,#88]
ffff00000000900c:	39402c00 	ldrb	w0, [x0,#11]
ffff000000009010:	7100201f 	cmp	w0, #0x8
ffff000000009014:	54000340 	b.eq	ffff00000000907c <LocateFATEntry+0x3fc>
ffff000000009018:	f94013a1 	ldr	x1, [x29,#32]
ffff00000000901c:	f9401fa0 	ldr	x0, [x29,#56]
ffff000000009020:	97fffe89 	bl	ffff000000008a44 <WildcardMatch>
ffff000000009024:	53001c00 	uxtb	w0, w0
ffff000000009028:	7100001f 	cmp	w0, #0x0
ffff00000000902c:	54000280 	b.eq	ffff00000000907c <LocateFATEntry+0x3fc>
ffff000000009030:	f9403ba0 	ldr	x0, [x29,#112]
ffff000000009034:	f100001f 	cmp	x0, #0x0
ffff000000009038:	540000a0 	b.eq	ffff00000000904c <LocateFATEntry+0x3cc>
ffff00000000903c:	f94013a1 	ldr	x1, [x29,#32]
ffff000000009040:	f9403ba0 	ldr	x0, [x29,#112]
ffff000000009044:	8b000020 	add	x0, x1, x0
ffff000000009048:	3900001f 	strb	wzr, [x0]
ffff00000000904c:	f9401ba0 	ldr	x0, [x29,#48]
ffff000000009050:	b9400c00 	ldr	w0, [x0,#12]
ffff000000009054:	11008001 	add	w1, w0, #0x20
ffff000000009058:	f9401ba0 	ldr	x0, [x29,#48]
ffff00000000905c:	b9000c01 	str	w1, [x0,#12]
ffff000000009060:	f9400fa0 	ldr	x0, [x29,#24]
ffff000000009064:	f100001f 	cmp	x0, #0x0
ffff000000009068:	54000060 	b.eq	ffff000000009074 <LocateFATEntry+0x3f4>
ffff00000000906c:	f9400fa0 	ldr	x0, [x29,#24]
ffff000000009070:	b900001f 	str	wzr, [x0]
ffff000000009074:	f9402fa0 	ldr	x0, [x29,#88]
ffff000000009078:	14000076 	b	ffff000000009250 <LocateFATEntry+0x5d0>
ffff00000000907c:	f9401ba0 	ldr	x0, [x29,#48]
ffff000000009080:	b9400c00 	ldr	w0, [x0,#12]
ffff000000009084:	11008001 	add	w1, w0, #0x20
ffff000000009088:	f9401ba0 	ldr	x0, [x29,#48]
ffff00000000908c:	b9000c01 	str	w1, [x0,#12]
ffff000000009090:	f9401ba0 	ldr	x0, [x29,#48]
ffff000000009094:	b9400c00 	ldr	w0, [x0,#12]
ffff000000009098:	7107fc1f 	cmp	w0, #0x1ff
ffff00000000909c:	54ffe049 	b.ls	ffff000000008ca4 <LocateFATEntry+0x24>
ffff0000000090a0:	f9401ba0 	ldr	x0, [x29,#48]
ffff0000000090a4:	b9400800 	ldr	w0, [x0,#8]
ffff0000000090a8:	11000401 	add	w1, w0, #0x1
ffff0000000090ac:	f9401ba0 	ldr	x0, [x29,#48]
ffff0000000090b0:	b9000801 	str	w1, [x0,#8]
ffff0000000090b4:	f9401ba0 	ldr	x0, [x29,#48]
ffff0000000090b8:	b9400801 	ldr	w1, [x0,#8]
ffff0000000090bc:	90000440 	adrp	x0, ffff000000091000 <mem_map+0x7d3d0>
ffff0000000090c0:	9111e000 	add	x0, x0, #0x478
ffff0000000090c4:	b9405400 	ldr	w0, [x0,#84]
ffff0000000090c8:	6b00003f 	cmp	w1, w0
ffff0000000090cc:	54000322 	b.cs	ffff000000009130 <LocateFATEntry+0x4b0>
ffff0000000090d0:	f9401ba0 	ldr	x0, [x29,#48]
ffff0000000090d4:	b9000c1f 	str	wzr, [x0,#12]
ffff0000000090d8:	f9401ba0 	ldr	x0, [x29,#48]
ffff0000000090dc:	b9400401 	ldr	w1, [x0,#4]
ffff0000000090e0:	f9401ba0 	ldr	x0, [x29,#48]
ffff0000000090e4:	b9400800 	ldr	w0, [x0,#8]
ffff0000000090e8:	0b000024 	add	w4, w1, w0
ffff0000000090ec:	f9401ba0 	ldr	x0, [x29,#48]
ffff0000000090f0:	91004000 	add	x0, x0, #0x10
ffff0000000090f4:	52800003 	mov	w3, #0x0                   	// #0
ffff0000000090f8:	aa0003e2 	mov	x2, x0
ffff0000000090fc:	52800021 	mov	w1, #0x1                   	// #1
ffff000000009100:	2a0403e0 	mov	w0, w4
ffff000000009104:	97fffb10 	bl	ffff000000007d44 <sdTransferBlocks>
ffff000000009108:	7100001f 	cmp	w0, #0x0
ffff00000000910c:	54000120 	b.eq	ffff000000009130 <LocateFATEntry+0x4b0>
ffff000000009110:	f9400fa0 	ldr	x0, [x29,#24]
ffff000000009114:	f100001f 	cmp	x0, #0x0
ffff000000009118:	54000080 	b.eq	ffff000000009128 <LocateFATEntry+0x4a8>
ffff00000000911c:	f9400fa0 	ldr	x0, [x29,#24]
ffff000000009120:	52800061 	mov	w1, #0x3                   	// #3
ffff000000009124:	b9000001 	str	w1, [x0]
ffff000000009128:	d2800000 	mov	x0, #0x0                   	// #0
ffff00000000912c:	14000049 	b	ffff000000009250 <LocateFATEntry+0x5d0>
ffff000000009130:	f9401ba0 	ldr	x0, [x29,#48]
ffff000000009134:	b9400801 	ldr	w1, [x0,#8]
ffff000000009138:	90000440 	adrp	x0, ffff000000091000 <mem_map+0x7d3d0>
ffff00000000913c:	9111e000 	add	x0, x0, #0x478
ffff000000009140:	b9405400 	ldr	w0, [x0,#84]
ffff000000009144:	6b00003f 	cmp	w1, w0
ffff000000009148:	54fffa43 	b.cc	ffff000000009090 <LocateFATEntry+0x410>
ffff00000000914c:	f9401ba0 	ldr	x0, [x29,#48]
ffff000000009150:	b9400000 	ldr	w0, [x0]
ffff000000009154:	52800002 	mov	w2, #0x0                   	// #0
ffff000000009158:	52800001 	mov	w1, #0x0                   	// #0
ffff00000000915c:	97fffcde 	bl	ffff0000000084d4 <getSetNextCluster>
ffff000000009160:	2a0003e1 	mov	w1, w0
ffff000000009164:	f9401ba0 	ldr	x0, [x29,#48]
ffff000000009168:	b9000001 	str	w1, [x0]
ffff00000000916c:	f9401ba0 	ldr	x0, [x29,#48]
ffff000000009170:	b9400003 	ldr	w3, [x0]
ffff000000009174:	90000440 	adrp	x0, ffff000000091000 <mem_map+0x7d3d0>
ffff000000009178:	9111e000 	add	x0, x0, #0x478
ffff00000000917c:	b9405401 	ldr	w1, [x0,#84]
ffff000000009180:	90000440 	adrp	x0, ffff000000091000 <mem_map+0x7d3d0>
ffff000000009184:	9111e000 	add	x0, x0, #0x478
ffff000000009188:	b9405c00 	ldr	w0, [x0,#92]
ffff00000000918c:	2a0003e2 	mov	w2, w0
ffff000000009190:	2a0303e0 	mov	w0, w3
ffff000000009194:	97fffcc4 	bl	ffff0000000084a4 <getFirstSector>
ffff000000009198:	2a0003e1 	mov	w1, w0
ffff00000000919c:	f9401ba0 	ldr	x0, [x29,#48]
ffff0000000091a0:	b9000401 	str	w1, [x0,#4]
ffff0000000091a4:	f9401ba0 	ldr	x0, [x29,#48]
ffff0000000091a8:	b900081f 	str	wzr, [x0,#8]
ffff0000000091ac:	f9401ba0 	ldr	x0, [x29,#48]
ffff0000000091b0:	b9000c1f 	str	wzr, [x0,#12]
ffff0000000091b4:	f9401ba0 	ldr	x0, [x29,#48]
ffff0000000091b8:	b9400401 	ldr	w1, [x0,#4]
ffff0000000091bc:	f9401ba0 	ldr	x0, [x29,#48]
ffff0000000091c0:	b9400800 	ldr	w0, [x0,#8]
ffff0000000091c4:	0b000024 	add	w4, w1, w0
ffff0000000091c8:	f9401ba0 	ldr	x0, [x29,#48]
ffff0000000091cc:	91004000 	add	x0, x0, #0x10
ffff0000000091d0:	52800003 	mov	w3, #0x0                   	// #0
ffff0000000091d4:	aa0003e2 	mov	x2, x0
ffff0000000091d8:	52800021 	mov	w1, #0x1                   	// #1
ffff0000000091dc:	2a0403e0 	mov	w0, w4
ffff0000000091e0:	97fffad9 	bl	ffff000000007d44 <sdTransferBlocks>
ffff0000000091e4:	7100001f 	cmp	w0, #0x0
ffff0000000091e8:	54000120 	b.eq	ffff00000000920c <LocateFATEntry+0x58c>
ffff0000000091ec:	f9400fa0 	ldr	x0, [x29,#24]
ffff0000000091f0:	f100001f 	cmp	x0, #0x0
ffff0000000091f4:	54000080 	b.eq	ffff000000009204 <LocateFATEntry+0x584>
ffff0000000091f8:	f9400fa0 	ldr	x0, [x29,#24]
ffff0000000091fc:	52800061 	mov	w1, #0x3                   	// #3
ffff000000009200:	b9000001 	str	w1, [x0]
ffff000000009204:	d2800000 	mov	x0, #0x0                   	// #0
ffff000000009208:	14000012 	b	ffff000000009250 <LocateFATEntry+0x5d0>
ffff00000000920c:	f9401ba0 	ldr	x0, [x29,#48]
ffff000000009210:	b9400001 	ldr	w1, [x0]
ffff000000009214:	529ffea0 	mov	w0, #0xfff5                	// #65525
ffff000000009218:	72a1ffe0 	movk	w0, #0xfff, lsl #16
ffff00000000921c:	6b00003f 	cmp	w1, w0
ffff000000009220:	540000a8 	b.hi	ffff000000009234 <LocateFATEntry+0x5b4>
ffff000000009224:	f9401ba0 	ldr	x0, [x29,#48]
ffff000000009228:	b9400000 	ldr	w0, [x0]
ffff00000000922c:	7100001f 	cmp	w0, #0x0
ffff000000009230:	54fff801 	b.ne	ffff000000009130 <LocateFATEntry+0x4b0>
ffff000000009234:	f9400fa0 	ldr	x0, [x29,#24]
ffff000000009238:	f100001f 	cmp	x0, #0x0
ffff00000000923c:	54000080 	b.eq	ffff00000000924c <LocateFATEntry+0x5cc>
ffff000000009240:	f9400fa0 	ldr	x0, [x29,#24]
ffff000000009244:	52800041 	mov	w1, #0x2                   	// #2
ffff000000009248:	b9000001 	str	w1, [x0]
ffff00000000924c:	d2800000 	mov	x0, #0x0                   	// #0
ffff000000009250:	a8c87bfd 	ldp	x29, x30, [sp],#128
ffff000000009254:	d65f03c0 	ret

ffff000000009258 <CopyUnAlignedString>:
ffff000000009258:	d10043ff 	sub	sp, sp, #0x10
ffff00000000925c:	f90007e0 	str	x0, [sp,#8]
ffff000000009260:	f90003e1 	str	x1, [sp]
ffff000000009264:	f94003e0 	ldr	x0, [sp]
ffff000000009268:	f100001f 	cmp	x0, #0x0
ffff00000000926c:	540002a0 	b.eq	ffff0000000092c0 <CopyUnAlignedString+0x68>
ffff000000009270:	f94007e0 	ldr	x0, [sp,#8]
ffff000000009274:	f100001f 	cmp	x0, #0x0
ffff000000009278:	54000240 	b.eq	ffff0000000092c0 <CopyUnAlignedString+0x68>
ffff00000000927c:	14000009 	b	ffff0000000092a0 <CopyUnAlignedString+0x48>
ffff000000009280:	f94007e0 	ldr	x0, [sp,#8]
ffff000000009284:	91000401 	add	x1, x0, #0x1
ffff000000009288:	f90007e1 	str	x1, [sp,#8]
ffff00000000928c:	f94003e1 	ldr	x1, [sp]
ffff000000009290:	91000422 	add	x2, x1, #0x1
ffff000000009294:	f90003e2 	str	x2, [sp]
ffff000000009298:	39400021 	ldrb	w1, [x1]
ffff00000000929c:	39000001 	strb	w1, [x0]
ffff0000000092a0:	f94003e0 	ldr	x0, [sp]
ffff0000000092a4:	39400000 	ldrb	w0, [x0]
ffff0000000092a8:	7100001f 	cmp	w0, #0x0
ffff0000000092ac:	54fffea1 	b.ne	ffff000000009280 <CopyUnAlignedString+0x28>
ffff0000000092b0:	f94007e0 	ldr	x0, [sp,#8]
ffff0000000092b4:	3900001f 	strb	wzr, [x0]
ffff0000000092b8:	52800020 	mov	w0, #0x1                   	// #1
ffff0000000092bc:	14000002 	b	ffff0000000092c4 <CopyUnAlignedString+0x6c>
ffff0000000092c0:	52800000 	mov	w0, #0x0                   	// #0
ffff0000000092c4:	910043ff 	add	sp, sp, #0x10
ffff0000000092c8:	d65f03c0 	ret

ffff0000000092cc <sdFindFirstFile>:
ffff0000000092cc:	a9ab7bfd 	stp	x29, x30, [sp,#-336]!
ffff0000000092d0:	910003fd 	mov	x29, sp
ffff0000000092d4:	f9000fa0 	str	x0, [x29,#24]
ffff0000000092d8:	f9000ba1 	str	x1, [x29,#16]
ffff0000000092dc:	b90127bf 	str	wzr, [x29,#292]
ffff0000000092e0:	b9014fbf 	str	wzr, [x29,#332]
ffff0000000092e4:	f9400fa0 	ldr	x0, [x29,#24]
ffff0000000092e8:	f100001f 	cmp	x0, #0x0
ffff0000000092ec:	54000080 	b.eq	ffff0000000092fc <sdFindFirstFile+0x30>
ffff0000000092f0:	f9400ba0 	ldr	x0, [x29,#16]
ffff0000000092f4:	f100001f 	cmp	x0, #0x0
ffff0000000092f8:	54000061 	b.ne	ffff000000009304 <sdFindFirstFile+0x38>
ffff0000000092fc:	52800000 	mov	w0, #0x0                   	// #0
ffff000000009300:	14000115 	b	ffff000000009754 <sdFindFirstFile+0x488>
ffff000000009304:	910083a0 	add	x0, x29, #0x20
ffff000000009308:	f9400fa1 	ldr	x1, [x29,#24]
ffff00000000930c:	97ffffd3 	bl	ffff000000009258 <CopyUnAlignedString>
ffff000000009310:	910083a0 	add	x0, x29, #0x20
ffff000000009314:	f900a3a0 	str	x0, [x29,#320]
ffff000000009318:	f940a3a0 	ldr	x0, [x29,#320]
ffff00000000931c:	39400000 	ldrb	w0, [x0]
ffff000000009320:	7101701f 	cmp	w0, #0x5c
ffff000000009324:	54000101 	b.ne	ffff000000009344 <sdFindFirstFile+0x78>
ffff000000009328:	f940a3a0 	ldr	x0, [x29,#320]
ffff00000000932c:	91000400 	add	x0, x0, #0x1
ffff000000009330:	f900a3a0 	str	x0, [x29,#320]
ffff000000009334:	14000004 	b	ffff000000009344 <sdFindFirstFile+0x78>
ffff000000009338:	b9414fa0 	ldr	w0, [x29,#332]
ffff00000000933c:	11000400 	add	w0, w0, #0x1
ffff000000009340:	b9014fa0 	str	w0, [x29,#332]
ffff000000009344:	90000440 	adrp	x0, ffff000000091000 <mem_map+0x7d3d0>
ffff000000009348:	9113c001 	add	x1, x0, #0x4f0
ffff00000000934c:	b9814fa2 	ldrsw	x2, [x29,#332]
ffff000000009350:	d2806200 	mov	x0, #0x310                 	// #784
ffff000000009354:	9b007c40 	mul	x0, x2, x0
ffff000000009358:	8b000020 	add	x0, x1, x0
ffff00000000935c:	91001000 	add	x0, x0, #0x4
ffff000000009360:	b9400000 	ldr	w0, [x0]
ffff000000009364:	7100001f 	cmp	w0, #0x0
ffff000000009368:	54000080 	b.eq	ffff000000009378 <sdFindFirstFile+0xac>
ffff00000000936c:	b9414fa0 	ldr	w0, [x29,#332]
ffff000000009370:	71000c1f 	cmp	w0, #0x3
ffff000000009374:	54fffe2d 	b.le	ffff000000009338 <sdFindFirstFile+0x6c>
ffff000000009378:	b9414fa0 	ldr	w0, [x29,#332]
ffff00000000937c:	7100101f 	cmp	w0, #0x4
ffff000000009380:	54001e80 	b.eq	ffff000000009750 <sdFindFirstFile+0x484>
ffff000000009384:	90000440 	adrp	x0, ffff000000091000 <mem_map+0x7d3d0>
ffff000000009388:	9111e000 	add	x0, x0, #0x478
ffff00000000938c:	b9405001 	ldr	w1, [x0,#80]
ffff000000009390:	90000440 	adrp	x0, ffff000000091000 <mem_map+0x7d3d0>
ffff000000009394:	9113c002 	add	x2, x0, #0x4f0
ffff000000009398:	b9814fa3 	ldrsw	x3, [x29,#332]
ffff00000000939c:	d2806200 	mov	x0, #0x310                 	// #784
ffff0000000093a0:	9b007c60 	mul	x0, x3, x0
ffff0000000093a4:	8b000040 	add	x0, x2, x0
ffff0000000093a8:	b9000001 	str	w1, [x0]
ffff0000000093ac:	90000440 	adrp	x0, ffff000000091000 <mem_map+0x7d3d0>
ffff0000000093b0:	9111e000 	add	x0, x0, #0x478
ffff0000000093b4:	b9405003 	ldr	w3, [x0,#80]
ffff0000000093b8:	90000440 	adrp	x0, ffff000000091000 <mem_map+0x7d3d0>
ffff0000000093bc:	9111e000 	add	x0, x0, #0x478
ffff0000000093c0:	b9405401 	ldr	w1, [x0,#84]
ffff0000000093c4:	90000440 	adrp	x0, ffff000000091000 <mem_map+0x7d3d0>
ffff0000000093c8:	9111e000 	add	x0, x0, #0x478
ffff0000000093cc:	b9405c00 	ldr	w0, [x0,#92]
ffff0000000093d0:	2a0003e2 	mov	w2, w0
ffff0000000093d4:	2a0303e0 	mov	w0, w3
ffff0000000093d8:	97fffc33 	bl	ffff0000000084a4 <getFirstSector>
ffff0000000093dc:	2a0003e3 	mov	w3, w0
ffff0000000093e0:	90000440 	adrp	x0, ffff000000091000 <mem_map+0x7d3d0>
ffff0000000093e4:	9113c001 	add	x1, x0, #0x4f0
ffff0000000093e8:	b9814fa2 	ldrsw	x2, [x29,#332]
ffff0000000093ec:	d2806200 	mov	x0, #0x310                 	// #784
ffff0000000093f0:	9b007c40 	mul	x0, x2, x0
ffff0000000093f4:	8b000020 	add	x0, x1, x0
ffff0000000093f8:	91001000 	add	x0, x0, #0x4
ffff0000000093fc:	b9000003 	str	w3, [x0]
ffff000000009400:	90000440 	adrp	x0, ffff000000091000 <mem_map+0x7d3d0>
ffff000000009404:	9113c001 	add	x1, x0, #0x4f0
ffff000000009408:	b9814fa2 	ldrsw	x2, [x29,#332]
ffff00000000940c:	d2806200 	mov	x0, #0x310                 	// #784
ffff000000009410:	9b007c40 	mul	x0, x2, x0
ffff000000009414:	8b000020 	add	x0, x1, x0
ffff000000009418:	91002000 	add	x0, x0, #0x8
ffff00000000941c:	b900001f 	str	wzr, [x0]
ffff000000009420:	90000440 	adrp	x0, ffff000000091000 <mem_map+0x7d3d0>
ffff000000009424:	9113c001 	add	x1, x0, #0x4f0
ffff000000009428:	b9814fa2 	ldrsw	x2, [x29,#332]
ffff00000000942c:	d2806200 	mov	x0, #0x310                 	// #784
ffff000000009430:	9b007c40 	mul	x0, x2, x0
ffff000000009434:	8b000020 	add	x0, x1, x0
ffff000000009438:	91003000 	add	x0, x0, #0xc
ffff00000000943c:	b900001f 	str	wzr, [x0]
ffff000000009440:	90000440 	adrp	x0, ffff000000091000 <mem_map+0x7d3d0>
ffff000000009444:	9113c001 	add	x1, x0, #0x4f0
ffff000000009448:	b9814fa2 	ldrsw	x2, [x29,#332]
ffff00000000944c:	d2806200 	mov	x0, #0x310                 	// #784
ffff000000009450:	9b007c40 	mul	x0, x2, x0
ffff000000009454:	8b000020 	add	x0, x1, x0
ffff000000009458:	91001000 	add	x0, x0, #0x4
ffff00000000945c:	b9400004 	ldr	w4, [x0]
ffff000000009460:	b9814fa1 	ldrsw	x1, [x29,#332]
ffff000000009464:	d2806200 	mov	x0, #0x310                 	// #784
ffff000000009468:	9b007c20 	mul	x0, x1, x0
ffff00000000946c:	91004001 	add	x1, x0, #0x10
ffff000000009470:	90000440 	adrp	x0, ffff000000091000 <mem_map+0x7d3d0>
ffff000000009474:	9113c000 	add	x0, x0, #0x4f0
ffff000000009478:	8b000020 	add	x0, x1, x0
ffff00000000947c:	52800003 	mov	w3, #0x0                   	// #0
ffff000000009480:	aa0003e2 	mov	x2, x0
ffff000000009484:	52800021 	mov	w1, #0x1                   	// #1
ffff000000009488:	2a0403e0 	mov	w0, w4
ffff00000000948c:	97fffa2e 	bl	ffff000000007d44 <sdTransferBlocks>
ffff000000009490:	7100001f 	cmp	w0, #0x0
ffff000000009494:	540014e1 	b.ne	ffff000000009730 <sdFindFirstFile+0x464>
ffff000000009498:	52800b81 	mov	w1, #0x5c                  	// #92
ffff00000000949c:	f940a3a0 	ldr	x0, [x29,#320]
ffff0000000094a0:	97fff303 	bl	ffff0000000060ac <strchr>
ffff0000000094a4:	f9009ba0 	str	x0, [x29,#304]
ffff0000000094a8:	f9409ba0 	ldr	x0, [x29,#304]
ffff0000000094ac:	f100001f 	cmp	x0, #0x0
ffff0000000094b0:	54000d00 	b.eq	ffff000000009650 <sdFindFirstFile+0x384>
ffff0000000094b4:	f9409ba0 	ldr	x0, [x29,#304]
ffff0000000094b8:	3900001f 	strb	wzr, [x0]
ffff0000000094bc:	b9814fa1 	ldrsw	x1, [x29,#332]
ffff0000000094c0:	d2806200 	mov	x0, #0x310                 	// #784
ffff0000000094c4:	9b007c21 	mul	x1, x1, x0
ffff0000000094c8:	90000440 	adrp	x0, ffff000000091000 <mem_map+0x7d3d0>
ffff0000000094cc:	9113c000 	add	x0, x0, #0x4f0
ffff0000000094d0:	8b000021 	add	x1, x1, x0
ffff0000000094d4:	f9400ba0 	ldr	x0, [x29,#16]
ffff0000000094d8:	9102d000 	add	x0, x0, #0xb4
ffff0000000094dc:	910493a2 	add	x2, x29, #0x124
ffff0000000094e0:	aa0203e4 	mov	x4, x2
ffff0000000094e4:	aa0003e3 	mov	x3, x0
ffff0000000094e8:	52800022 	mov	w2, #0x1                   	// #1
ffff0000000094ec:	f940a3a0 	ldr	x0, [x29,#320]
ffff0000000094f0:	97fffde4 	bl	ffff000000008c80 <LocateFATEntry>
ffff0000000094f4:	f90097a0 	str	x0, [x29,#296]
ffff0000000094f8:	f94097a0 	ldr	x0, [x29,#296]
ffff0000000094fc:	f100001f 	cmp	x0, #0x0
ffff000000009500:	54000061 	b.ne	ffff00000000950c <sdFindFirstFile+0x240>
ffff000000009504:	52800000 	mov	w0, #0x0                   	// #0
ffff000000009508:	14000093 	b	ffff000000009754 <sdFindFirstFile+0x488>
ffff00000000950c:	f94097a0 	ldr	x0, [x29,#296]
ffff000000009510:	79402800 	ldrh	w0, [x0,#20]
ffff000000009514:	53103c00 	lsl	w0, w0, #16
ffff000000009518:	f94097a1 	ldr	x1, [x29,#296]
ffff00000000951c:	79403421 	ldrh	w1, [x1,#26]
ffff000000009520:	2a010001 	orr	w1, w0, w1
ffff000000009524:	90000440 	adrp	x0, ffff000000091000 <mem_map+0x7d3d0>
ffff000000009528:	9113c002 	add	x2, x0, #0x4f0
ffff00000000952c:	b9814fa3 	ldrsw	x3, [x29,#332]
ffff000000009530:	d2806200 	mov	x0, #0x310                 	// #784
ffff000000009534:	9b007c60 	mul	x0, x3, x0
ffff000000009538:	8b000040 	add	x0, x2, x0
ffff00000000953c:	b9000001 	str	w1, [x0]
ffff000000009540:	90000440 	adrp	x0, ffff000000091000 <mem_map+0x7d3d0>
ffff000000009544:	9113c001 	add	x1, x0, #0x4f0
ffff000000009548:	b9814fa2 	ldrsw	x2, [x29,#332]
ffff00000000954c:	d2806200 	mov	x0, #0x310                 	// #784
ffff000000009550:	9b007c40 	mul	x0, x2, x0
ffff000000009554:	8b000020 	add	x0, x1, x0
ffff000000009558:	b9400003 	ldr	w3, [x0]
ffff00000000955c:	90000440 	adrp	x0, ffff000000091000 <mem_map+0x7d3d0>
ffff000000009560:	9111e000 	add	x0, x0, #0x478
ffff000000009564:	b9405401 	ldr	w1, [x0,#84]
ffff000000009568:	90000440 	adrp	x0, ffff000000091000 <mem_map+0x7d3d0>
ffff00000000956c:	9111e000 	add	x0, x0, #0x478
ffff000000009570:	b9405c00 	ldr	w0, [x0,#92]
ffff000000009574:	2a0003e2 	mov	w2, w0
ffff000000009578:	2a0303e0 	mov	w0, w3
ffff00000000957c:	97fffbca 	bl	ffff0000000084a4 <getFirstSector>
ffff000000009580:	2a0003e3 	mov	w3, w0
ffff000000009584:	90000440 	adrp	x0, ffff000000091000 <mem_map+0x7d3d0>
ffff000000009588:	9113c001 	add	x1, x0, #0x4f0
ffff00000000958c:	b9814fa2 	ldrsw	x2, [x29,#332]
ffff000000009590:	d2806200 	mov	x0, #0x310                 	// #784
ffff000000009594:	9b007c40 	mul	x0, x2, x0
ffff000000009598:	8b000020 	add	x0, x1, x0
ffff00000000959c:	91001000 	add	x0, x0, #0x4
ffff0000000095a0:	b9000003 	str	w3, [x0]
ffff0000000095a4:	90000440 	adrp	x0, ffff000000091000 <mem_map+0x7d3d0>
ffff0000000095a8:	9113c001 	add	x1, x0, #0x4f0
ffff0000000095ac:	b9814fa2 	ldrsw	x2, [x29,#332]
ffff0000000095b0:	d2806200 	mov	x0, #0x310                 	// #784
ffff0000000095b4:	9b007c40 	mul	x0, x2, x0
ffff0000000095b8:	8b000020 	add	x0, x1, x0
ffff0000000095bc:	91002000 	add	x0, x0, #0x8
ffff0000000095c0:	b900001f 	str	wzr, [x0]
ffff0000000095c4:	90000440 	adrp	x0, ffff000000091000 <mem_map+0x7d3d0>
ffff0000000095c8:	9113c001 	add	x1, x0, #0x4f0
ffff0000000095cc:	b9814fa2 	ldrsw	x2, [x29,#332]
ffff0000000095d0:	d2806200 	mov	x0, #0x310                 	// #784
ffff0000000095d4:	9b007c40 	mul	x0, x2, x0
ffff0000000095d8:	8b000020 	add	x0, x1, x0
ffff0000000095dc:	91003000 	add	x0, x0, #0xc
ffff0000000095e0:	b900001f 	str	wzr, [x0]
ffff0000000095e4:	90000440 	adrp	x0, ffff000000091000 <mem_map+0x7d3d0>
ffff0000000095e8:	9113c001 	add	x1, x0, #0x4f0
ffff0000000095ec:	b9814fa2 	ldrsw	x2, [x29,#332]
ffff0000000095f0:	d2806200 	mov	x0, #0x310                 	// #784
ffff0000000095f4:	9b007c40 	mul	x0, x2, x0
ffff0000000095f8:	8b000020 	add	x0, x1, x0
ffff0000000095fc:	91001000 	add	x0, x0, #0x4
ffff000000009600:	b9400004 	ldr	w4, [x0]
ffff000000009604:	b9814fa1 	ldrsw	x1, [x29,#332]
ffff000000009608:	d2806200 	mov	x0, #0x310                 	// #784
ffff00000000960c:	9b007c20 	mul	x0, x1, x0
ffff000000009610:	91004001 	add	x1, x0, #0x10
ffff000000009614:	90000440 	adrp	x0, ffff000000091000 <mem_map+0x7d3d0>
ffff000000009618:	9113c000 	add	x0, x0, #0x4f0
ffff00000000961c:	8b000020 	add	x0, x1, x0
ffff000000009620:	52800003 	mov	w3, #0x0                   	// #0
ffff000000009624:	aa0003e2 	mov	x2, x0
ffff000000009628:	52800021 	mov	w1, #0x1                   	// #1
ffff00000000962c:	2a0403e0 	mov	w0, w4
ffff000000009630:	97fff9c5 	bl	ffff000000007d44 <sdTransferBlocks>
ffff000000009634:	7100001f 	cmp	w0, #0x0
ffff000000009638:	54000060 	b.eq	ffff000000009644 <sdFindFirstFile+0x378>
ffff00000000963c:	52800000 	mov	w0, #0x0                   	// #0
ffff000000009640:	14000045 	b	ffff000000009754 <sdFindFirstFile+0x488>
ffff000000009644:	f9409ba0 	ldr	x0, [x29,#304]
ffff000000009648:	91000400 	add	x0, x0, #0x1
ffff00000000964c:	f900a3a0 	str	x0, [x29,#320]
ffff000000009650:	f9409ba0 	ldr	x0, [x29,#304]
ffff000000009654:	f100001f 	cmp	x0, #0x0
ffff000000009658:	54fff201 	b.ne	ffff000000009498 <sdFindFirstFile+0x1cc>
ffff00000000965c:	b9814fa1 	ldrsw	x1, [x29,#332]
ffff000000009660:	d2806200 	mov	x0, #0x310                 	// #784
ffff000000009664:	9b007c21 	mul	x1, x1, x0
ffff000000009668:	90000440 	adrp	x0, ffff000000091000 <mem_map+0x7d3d0>
ffff00000000966c:	9113c000 	add	x0, x0, #0x4f0
ffff000000009670:	8b000021 	add	x1, x1, x0
ffff000000009674:	f9400ba0 	ldr	x0, [x29,#16]
ffff000000009678:	9102d000 	add	x0, x0, #0xb4
ffff00000000967c:	910493a2 	add	x2, x29, #0x124
ffff000000009680:	aa0203e4 	mov	x4, x2
ffff000000009684:	aa0003e3 	mov	x3, x0
ffff000000009688:	52800002 	mov	w2, #0x0                   	// #0
ffff00000000968c:	f940a3a0 	ldr	x0, [x29,#320]
ffff000000009690:	97fffd7c 	bl	ffff000000008c80 <LocateFATEntry>
ffff000000009694:	f90097a0 	str	x0, [x29,#296]
ffff000000009698:	b94127a0 	ldr	w0, [x29,#292]
ffff00000000969c:	7100001f 	cmp	w0, #0x0
ffff0000000096a0:	54000481 	b.ne	ffff000000009730 <sdFindFirstFile+0x464>
ffff0000000096a4:	f94097a0 	ldr	x0, [x29,#296]
ffff0000000096a8:	f100001f 	cmp	x0, #0x0
ffff0000000096ac:	54000420 	b.eq	ffff000000009730 <sdFindFirstFile+0x464>
ffff0000000096b0:	b9013fbf 	str	wzr, [x29,#316]
ffff0000000096b4:	14000013 	b	ffff000000009700 <sdFindFirstFile+0x434>
ffff0000000096b8:	b9813fa0 	ldrsw	x0, [x29,#316]
ffff0000000096bc:	f940a3a1 	ldr	x1, [x29,#320]
ffff0000000096c0:	8b000020 	add	x0, x1, x0
ffff0000000096c4:	39400004 	ldrb	w4, [x0]
ffff0000000096c8:	90000440 	adrp	x0, ffff000000091000 <mem_map+0x7d3d0>
ffff0000000096cc:	9113c002 	add	x2, x0, #0x4f0
ffff0000000096d0:	b9813fa0 	ldrsw	x0, [x29,#316]
ffff0000000096d4:	b9814fa3 	ldrsw	x3, [x29,#332]
ffff0000000096d8:	d2806201 	mov	x1, #0x310                 	// #784
ffff0000000096dc:	9b017c61 	mul	x1, x3, x1
ffff0000000096e0:	8b010041 	add	x1, x2, x1
ffff0000000096e4:	8b000020 	add	x0, x1, x0
ffff0000000096e8:	91084000 	add	x0, x0, #0x210
ffff0000000096ec:	2a0403e1 	mov	w1, w4
ffff0000000096f0:	39000001 	strb	w1, [x0]
ffff0000000096f4:	b9413fa0 	ldr	w0, [x29,#316]
ffff0000000096f8:	11000400 	add	w0, w0, #0x1
ffff0000000096fc:	b9013fa0 	str	w0, [x29,#316]
ffff000000009700:	b9813fa0 	ldrsw	x0, [x29,#316]
ffff000000009704:	f940a3a1 	ldr	x1, [x29,#320]
ffff000000009708:	8b000020 	add	x0, x1, x0
ffff00000000970c:	39400000 	ldrb	w0, [x0]
ffff000000009710:	7100001f 	cmp	w0, #0x0
ffff000000009714:	54fffd21 	b.ne	ffff0000000096b8 <sdFindFirstFile+0x3ec>
ffff000000009718:	f9400ba1 	ldr	x1, [x29,#16]
ffff00000000971c:	f94097a0 	ldr	x0, [x29,#296]
ffff000000009720:	97fffbb2 	bl	ffff0000000085e8 <SetFindDataFromFATEntry>
ffff000000009724:	b9414fa0 	ldr	w0, [x29,#332]
ffff000000009728:	11000400 	add	w0, w0, #0x1
ffff00000000972c:	1400000a 	b	ffff000000009754 <sdFindFirstFile+0x488>
ffff000000009730:	90000440 	adrp	x0, ffff000000091000 <mem_map+0x7d3d0>
ffff000000009734:	9113c001 	add	x1, x0, #0x4f0
ffff000000009738:	b9814fa2 	ldrsw	x2, [x29,#332]
ffff00000000973c:	d2806200 	mov	x0, #0x310                 	// #784
ffff000000009740:	9b007c40 	mul	x0, x2, x0
ffff000000009744:	8b000020 	add	x0, x1, x0
ffff000000009748:	91001000 	add	x0, x0, #0x4
ffff00000000974c:	b900001f 	str	wzr, [x0]
ffff000000009750:	52800000 	mov	w0, #0x0                   	// #0
ffff000000009754:	a8d57bfd 	ldp	x29, x30, [sp],#336
ffff000000009758:	d65f03c0 	ret

ffff00000000975c <sdFindNextFile>:
ffff00000000975c:	a9bd7bfd 	stp	x29, x30, [sp,#-48]!
ffff000000009760:	910003fd 	mov	x29, sp
ffff000000009764:	b9001fa0 	str	w0, [x29,#28]
ffff000000009768:	f9000ba1 	str	x1, [x29,#16]
ffff00000000976c:	b90027bf 	str	wzr, [x29,#36]
ffff000000009770:	b9401fa0 	ldr	w0, [x29,#28]
ffff000000009774:	7100001f 	cmp	w0, #0x0
ffff000000009778:	540007e0 	b.eq	ffff000000009874 <sdFindNextFile+0x118>
ffff00000000977c:	b9401fa0 	ldr	w0, [x29,#28]
ffff000000009780:	7100101f 	cmp	w0, #0x4
ffff000000009784:	54000788 	b.hi	ffff000000009874 <sdFindNextFile+0x118>
ffff000000009788:	b9401fa0 	ldr	w0, [x29,#28]
ffff00000000978c:	51000402 	sub	w2, w0, #0x1
ffff000000009790:	90000440 	adrp	x0, ffff000000091000 <mem_map+0x7d3d0>
ffff000000009794:	9113c001 	add	x1, x0, #0x4f0
ffff000000009798:	2a0203e2 	mov	w2, w2
ffff00000000979c:	d2806200 	mov	x0, #0x310                 	// #784
ffff0000000097a0:	9b007c40 	mul	x0, x2, x0
ffff0000000097a4:	8b000020 	add	x0, x1, x0
ffff0000000097a8:	91001000 	add	x0, x0, #0x4
ffff0000000097ac:	b9400000 	ldr	w0, [x0]
ffff0000000097b0:	7100001f 	cmp	w0, #0x0
ffff0000000097b4:	54000600 	b.eq	ffff000000009874 <sdFindNextFile+0x118>
ffff0000000097b8:	b9401fa0 	ldr	w0, [x29,#28]
ffff0000000097bc:	51000400 	sub	w0, w0, #0x1
ffff0000000097c0:	2a0003e1 	mov	w1, w0
ffff0000000097c4:	d2806200 	mov	x0, #0x310                 	// #784
ffff0000000097c8:	9b007c20 	mul	x0, x1, x0
ffff0000000097cc:	91084001 	add	x1, x0, #0x210
ffff0000000097d0:	90000440 	adrp	x0, ffff000000091000 <mem_map+0x7d3d0>
ffff0000000097d4:	9113c000 	add	x0, x0, #0x4f0
ffff0000000097d8:	8b000025 	add	x5, x1, x0
ffff0000000097dc:	b9401fa0 	ldr	w0, [x29,#28]
ffff0000000097e0:	51000400 	sub	w0, w0, #0x1
ffff0000000097e4:	2a0003e1 	mov	w1, w0
ffff0000000097e8:	d2806200 	mov	x0, #0x310                 	// #784
ffff0000000097ec:	9b007c21 	mul	x1, x1, x0
ffff0000000097f0:	90000440 	adrp	x0, ffff000000091000 <mem_map+0x7d3d0>
ffff0000000097f4:	9113c000 	add	x0, x0, #0x4f0
ffff0000000097f8:	8b000021 	add	x1, x1, x0
ffff0000000097fc:	f9400ba0 	ldr	x0, [x29,#16]
ffff000000009800:	9102d000 	add	x0, x0, #0xb4
ffff000000009804:	910093a2 	add	x2, x29, #0x24
ffff000000009808:	aa0203e4 	mov	x4, x2
ffff00000000980c:	aa0003e3 	mov	x3, x0
ffff000000009810:	52800002 	mov	w2, #0x0                   	// #0
ffff000000009814:	aa0503e0 	mov	x0, x5
ffff000000009818:	97fffd1a 	bl	ffff000000008c80 <LocateFATEntry>
ffff00000000981c:	f90017a0 	str	x0, [x29,#40]
ffff000000009820:	b94027a0 	ldr	w0, [x29,#36]
ffff000000009824:	7100001f 	cmp	w0, #0x0
ffff000000009828:	54000121 	b.ne	ffff00000000984c <sdFindNextFile+0xf0>
ffff00000000982c:	f94017a0 	ldr	x0, [x29,#40]
ffff000000009830:	f100001f 	cmp	x0, #0x0
ffff000000009834:	540000c0 	b.eq	ffff00000000984c <sdFindNextFile+0xf0>
ffff000000009838:	f9400ba1 	ldr	x1, [x29,#16]
ffff00000000983c:	f94017a0 	ldr	x0, [x29,#40]
ffff000000009840:	97fffb6a 	bl	ffff0000000085e8 <SetFindDataFromFATEntry>
ffff000000009844:	b9401fa0 	ldr	w0, [x29,#28]
ffff000000009848:	1400000c 	b	ffff000000009878 <sdFindNextFile+0x11c>
ffff00000000984c:	b9401fa0 	ldr	w0, [x29,#28]
ffff000000009850:	51000402 	sub	w2, w0, #0x1
ffff000000009854:	90000440 	adrp	x0, ffff000000091000 <mem_map+0x7d3d0>
ffff000000009858:	9113c001 	add	x1, x0, #0x4f0
ffff00000000985c:	2a0203e2 	mov	w2, w2
ffff000000009860:	d2806200 	mov	x0, #0x310                 	// #784
ffff000000009864:	9b007c40 	mul	x0, x2, x0
ffff000000009868:	8b000020 	add	x0, x1, x0
ffff00000000986c:	91001000 	add	x0, x0, #0x4
ffff000000009870:	b900001f 	str	wzr, [x0]
ffff000000009874:	52800000 	mov	w0, #0x0                   	// #0
ffff000000009878:	a8c37bfd 	ldp	x29, x30, [sp],#48
ffff00000000987c:	d65f03c0 	ret

ffff000000009880 <sdFindClose>:
ffff000000009880:	d10043ff 	sub	sp, sp, #0x10
ffff000000009884:	b9000fe0 	str	w0, [sp,#12]
ffff000000009888:	b9400fe0 	ldr	w0, [sp,#12]
ffff00000000988c:	7100001f 	cmp	w0, #0x0
ffff000000009890:	54000380 	b.eq	ffff000000009900 <sdFindClose+0x80>
ffff000000009894:	b9400fe0 	ldr	w0, [sp,#12]
ffff000000009898:	7100101f 	cmp	w0, #0x4
ffff00000000989c:	54000328 	b.hi	ffff000000009900 <sdFindClose+0x80>
ffff0000000098a0:	b9400fe0 	ldr	w0, [sp,#12]
ffff0000000098a4:	51000402 	sub	w2, w0, #0x1
ffff0000000098a8:	90000440 	adrp	x0, ffff000000091000 <mem_map+0x7d3d0>
ffff0000000098ac:	9113c001 	add	x1, x0, #0x4f0
ffff0000000098b0:	2a0203e2 	mov	w2, w2
ffff0000000098b4:	d2806200 	mov	x0, #0x310                 	// #784
ffff0000000098b8:	9b007c40 	mul	x0, x2, x0
ffff0000000098bc:	8b000020 	add	x0, x1, x0
ffff0000000098c0:	91001000 	add	x0, x0, #0x4
ffff0000000098c4:	b9400000 	ldr	w0, [x0]
ffff0000000098c8:	7100001f 	cmp	w0, #0x0
ffff0000000098cc:	540001a0 	b.eq	ffff000000009900 <sdFindClose+0x80>
ffff0000000098d0:	b9400fe0 	ldr	w0, [sp,#12]
ffff0000000098d4:	51000402 	sub	w2, w0, #0x1
ffff0000000098d8:	90000440 	adrp	x0, ffff000000091000 <mem_map+0x7d3d0>
ffff0000000098dc:	9113c001 	add	x1, x0, #0x4f0
ffff0000000098e0:	2a0203e2 	mov	w2, w2
ffff0000000098e4:	d2806200 	mov	x0, #0x310                 	// #784
ffff0000000098e8:	9b007c40 	mul	x0, x2, x0
ffff0000000098ec:	8b000020 	add	x0, x1, x0
ffff0000000098f0:	91001000 	add	x0, x0, #0x4
ffff0000000098f4:	b900001f 	str	wzr, [x0]
ffff0000000098f8:	52800020 	mov	w0, #0x1                   	// #1
ffff0000000098fc:	14000002 	b	ffff000000009904 <sdFindClose+0x84>
ffff000000009900:	52800000 	mov	w0, #0x0                   	// #0
ffff000000009904:	910043ff 	add	sp, sp, #0x10
ffff000000009908:	d65f03c0 	ret

ffff00000000990c <sdCreateFile>:
ffff00000000990c:	d10943ff 	sub	sp, sp, #0x250
ffff000000009910:	a9bf7bfd 	stp	x29, x30, [sp,#-16]!
ffff000000009914:	910003fd 	mov	x29, sp
ffff000000009918:	f90017a0 	str	x0, [x29,#40]
ffff00000000991c:	b90027a1 	str	w1, [x29,#36]
ffff000000009920:	b90023a2 	str	w2, [x29,#32]
ffff000000009924:	b9001fa3 	str	w3, [x29,#28]
ffff000000009928:	b9001ba4 	str	w4, [x29,#24]
ffff00000000992c:	b90017a5 	str	w5, [x29,#20]
ffff000000009930:	b90013a6 	str	w6, [x29,#16]
ffff000000009934:	b9023fbf 	str	wzr, [x29,#572]
ffff000000009938:	b9025fbf 	str	wzr, [x29,#604]
ffff00000000993c:	f94017a0 	ldr	x0, [x29,#40]
ffff000000009940:	f100001f 	cmp	x0, #0x0
ffff000000009944:	54000061 	b.ne	ffff000000009950 <sdCreateFile+0x44>
ffff000000009948:	52800000 	mov	w0, #0x0                   	// #0
ffff00000000994c:	1400015e 	b	ffff000000009ec4 <sdCreateFile+0x5b8>
ffff000000009950:	9100e3a0 	add	x0, x29, #0x38
ffff000000009954:	f94017a1 	ldr	x1, [x29,#40]
ffff000000009958:	97fffe40 	bl	ffff000000009258 <CopyUnAlignedString>
ffff00000000995c:	9100e3a0 	add	x0, x29, #0x38
ffff000000009960:	f9012ba0 	str	x0, [x29,#592]
ffff000000009964:	f9412ba0 	ldr	x0, [x29,#592]
ffff000000009968:	39400000 	ldrb	w0, [x0]
ffff00000000996c:	7101701f 	cmp	w0, #0x5c
ffff000000009970:	54000101 	b.ne	ffff000000009990 <sdCreateFile+0x84>
ffff000000009974:	f9412ba0 	ldr	x0, [x29,#592]
ffff000000009978:	91000400 	add	x0, x0, #0x1
ffff00000000997c:	f9012ba0 	str	x0, [x29,#592]
ffff000000009980:	14000004 	b	ffff000000009990 <sdCreateFile+0x84>
ffff000000009984:	b9425fa0 	ldr	w0, [x29,#604]
ffff000000009988:	11000400 	add	w0, w0, #0x1
ffff00000000998c:	b9025fa0 	str	w0, [x29,#604]
ffff000000009990:	b0000440 	adrp	x0, ffff000000092000 <intSearchRecord+0xb10>
ffff000000009994:	9104c001 	add	x1, x0, #0x130
ffff000000009998:	b9825fa2 	ldrsw	x2, [x29,#604]
ffff00000000999c:	d2806380 	mov	x0, #0x31c                 	// #796
ffff0000000099a0:	9b007c40 	mul	x0, x2, x0
ffff0000000099a4:	8b000020 	add	x0, x1, x0
ffff0000000099a8:	91001000 	add	x0, x0, #0x4
ffff0000000099ac:	b9400000 	ldr	w0, [x0]
ffff0000000099b0:	7100001f 	cmp	w0, #0x0
ffff0000000099b4:	54000080 	b.eq	ffff0000000099c4 <sdCreateFile+0xb8>
ffff0000000099b8:	b9425fa0 	ldr	w0, [x29,#604]
ffff0000000099bc:	71001c1f 	cmp	w0, #0x7
ffff0000000099c0:	54fffe2d 	b.le	ffff000000009984 <sdCreateFile+0x78>
ffff0000000099c4:	b9425fa0 	ldr	w0, [x29,#604]
ffff0000000099c8:	7100201f 	cmp	w0, #0x8
ffff0000000099cc:	540027a0 	b.eq	ffff000000009ec0 <sdCreateFile+0x5b4>
ffff0000000099d0:	90000440 	adrp	x0, ffff000000091000 <mem_map+0x7d3d0>
ffff0000000099d4:	9111e000 	add	x0, x0, #0x478
ffff0000000099d8:	b9405001 	ldr	w1, [x0,#80]
ffff0000000099dc:	b0000440 	adrp	x0, ffff000000092000 <intSearchRecord+0xb10>
ffff0000000099e0:	9104c002 	add	x2, x0, #0x130
ffff0000000099e4:	b9825fa3 	ldrsw	x3, [x29,#604]
ffff0000000099e8:	d2806380 	mov	x0, #0x31c                 	// #796
ffff0000000099ec:	9b007c60 	mul	x0, x3, x0
ffff0000000099f0:	8b000040 	add	x0, x2, x0
ffff0000000099f4:	b9000001 	str	w1, [x0]
ffff0000000099f8:	90000440 	adrp	x0, ffff000000091000 <mem_map+0x7d3d0>
ffff0000000099fc:	9111e000 	add	x0, x0, #0x478
ffff000000009a00:	b9405003 	ldr	w3, [x0,#80]
ffff000000009a04:	90000440 	adrp	x0, ffff000000091000 <mem_map+0x7d3d0>
ffff000000009a08:	9111e000 	add	x0, x0, #0x478
ffff000000009a0c:	b9405401 	ldr	w1, [x0,#84]
ffff000000009a10:	90000440 	adrp	x0, ffff000000091000 <mem_map+0x7d3d0>
ffff000000009a14:	9111e000 	add	x0, x0, #0x478
ffff000000009a18:	b9405c00 	ldr	w0, [x0,#92]
ffff000000009a1c:	2a0003e2 	mov	w2, w0
ffff000000009a20:	2a0303e0 	mov	w0, w3
ffff000000009a24:	97fffaa0 	bl	ffff0000000084a4 <getFirstSector>
ffff000000009a28:	2a0003e3 	mov	w3, w0
ffff000000009a2c:	b0000440 	adrp	x0, ffff000000092000 <intSearchRecord+0xb10>
ffff000000009a30:	9104c001 	add	x1, x0, #0x130
ffff000000009a34:	b9825fa2 	ldrsw	x2, [x29,#604]
ffff000000009a38:	d2806380 	mov	x0, #0x31c                 	// #796
ffff000000009a3c:	9b007c40 	mul	x0, x2, x0
ffff000000009a40:	8b000020 	add	x0, x1, x0
ffff000000009a44:	91001000 	add	x0, x0, #0x4
ffff000000009a48:	b9000003 	str	w3, [x0]
ffff000000009a4c:	b0000440 	adrp	x0, ffff000000092000 <intSearchRecord+0xb10>
ffff000000009a50:	9104c001 	add	x1, x0, #0x130
ffff000000009a54:	b9825fa2 	ldrsw	x2, [x29,#604]
ffff000000009a58:	d2806380 	mov	x0, #0x31c                 	// #796
ffff000000009a5c:	9b007c40 	mul	x0, x2, x0
ffff000000009a60:	8b000020 	add	x0, x1, x0
ffff000000009a64:	91002000 	add	x0, x0, #0x8
ffff000000009a68:	b900001f 	str	wzr, [x0]
ffff000000009a6c:	b0000440 	adrp	x0, ffff000000092000 <intSearchRecord+0xb10>
ffff000000009a70:	9104c001 	add	x1, x0, #0x130
ffff000000009a74:	b9825fa2 	ldrsw	x2, [x29,#604]
ffff000000009a78:	d2806380 	mov	x0, #0x31c                 	// #796
ffff000000009a7c:	9b007c40 	mul	x0, x2, x0
ffff000000009a80:	8b000020 	add	x0, x1, x0
ffff000000009a84:	91003000 	add	x0, x0, #0xc
ffff000000009a88:	b900001f 	str	wzr, [x0]
ffff000000009a8c:	b0000440 	adrp	x0, ffff000000092000 <intSearchRecord+0xb10>
ffff000000009a90:	9104c001 	add	x1, x0, #0x130
ffff000000009a94:	b9825fa2 	ldrsw	x2, [x29,#604]
ffff000000009a98:	d2806380 	mov	x0, #0x31c                 	// #796
ffff000000009a9c:	9b007c40 	mul	x0, x2, x0
ffff000000009aa0:	8b000020 	add	x0, x1, x0
ffff000000009aa4:	91001000 	add	x0, x0, #0x4
ffff000000009aa8:	b9400004 	ldr	w4, [x0]
ffff000000009aac:	b9825fa1 	ldrsw	x1, [x29,#604]
ffff000000009ab0:	d2806380 	mov	x0, #0x31c                 	// #796
ffff000000009ab4:	9b007c20 	mul	x0, x1, x0
ffff000000009ab8:	91004001 	add	x1, x0, #0x10
ffff000000009abc:	b0000440 	adrp	x0, ffff000000092000 <intSearchRecord+0xb10>
ffff000000009ac0:	9104c000 	add	x0, x0, #0x130
ffff000000009ac4:	8b000020 	add	x0, x1, x0
ffff000000009ac8:	52800003 	mov	w3, #0x0                   	// #0
ffff000000009acc:	aa0003e2 	mov	x2, x0
ffff000000009ad0:	52800021 	mov	w1, #0x1                   	// #1
ffff000000009ad4:	2a0403e0 	mov	w0, w4
ffff000000009ad8:	97fff89b 	bl	ffff000000007d44 <sdTransferBlocks>
ffff000000009adc:	7100001f 	cmp	w0, #0x0
ffff000000009ae0:	54001f01 	b.ne	ffff000000009ec0 <sdCreateFile+0x5b4>
ffff000000009ae4:	52800b81 	mov	w1, #0x5c                  	// #92
ffff000000009ae8:	f9412ba0 	ldr	x0, [x29,#592]
ffff000000009aec:	97fff170 	bl	ffff0000000060ac <strchr>
ffff000000009af0:	f90127a0 	str	x0, [x29,#584]
ffff000000009af4:	f94127a0 	ldr	x0, [x29,#584]
ffff000000009af8:	f100001f 	cmp	x0, #0x0
ffff000000009afc:	54000d00 	b.eq	ffff000000009c9c <sdCreateFile+0x390>
ffff000000009b00:	f94127a0 	ldr	x0, [x29,#584]
ffff000000009b04:	3900001f 	strb	wzr, [x0]
ffff000000009b08:	b9825fa1 	ldrsw	x1, [x29,#604]
ffff000000009b0c:	d2806380 	mov	x0, #0x31c                 	// #796
ffff000000009b10:	9b007c21 	mul	x1, x1, x0
ffff000000009b14:	b0000440 	adrp	x0, ffff000000092000 <intSearchRecord+0xb10>
ffff000000009b18:	9104c000 	add	x0, x0, #0x130
ffff000000009b1c:	8b000020 	add	x0, x1, x0
ffff000000009b20:	9108f3a2 	add	x2, x29, #0x23c
ffff000000009b24:	9104e3a1 	add	x1, x29, #0x138
ffff000000009b28:	aa0203e4 	mov	x4, x2
ffff000000009b2c:	aa0103e3 	mov	x3, x1
ffff000000009b30:	52800022 	mov	w2, #0x1                   	// #1
ffff000000009b34:	aa0003e1 	mov	x1, x0
ffff000000009b38:	f9412ba0 	ldr	x0, [x29,#592]
ffff000000009b3c:	97fffc51 	bl	ffff000000008c80 <LocateFATEntry>
ffff000000009b40:	f90123a0 	str	x0, [x29,#576]
ffff000000009b44:	f94123a0 	ldr	x0, [x29,#576]
ffff000000009b48:	f100001f 	cmp	x0, #0x0
ffff000000009b4c:	54000061 	b.ne	ffff000000009b58 <sdCreateFile+0x24c>
ffff000000009b50:	52800000 	mov	w0, #0x0                   	// #0
ffff000000009b54:	140000dc 	b	ffff000000009ec4 <sdCreateFile+0x5b8>
ffff000000009b58:	f94123a0 	ldr	x0, [x29,#576]
ffff000000009b5c:	79402800 	ldrh	w0, [x0,#20]
ffff000000009b60:	53103c00 	lsl	w0, w0, #16
ffff000000009b64:	f94123a1 	ldr	x1, [x29,#576]
ffff000000009b68:	79403421 	ldrh	w1, [x1,#26]
ffff000000009b6c:	2a010001 	orr	w1, w0, w1
ffff000000009b70:	b0000440 	adrp	x0, ffff000000092000 <intSearchRecord+0xb10>
ffff000000009b74:	9104c002 	add	x2, x0, #0x130
ffff000000009b78:	b9825fa3 	ldrsw	x3, [x29,#604]
ffff000000009b7c:	d2806380 	mov	x0, #0x31c                 	// #796
ffff000000009b80:	9b007c60 	mul	x0, x3, x0
ffff000000009b84:	8b000040 	add	x0, x2, x0
ffff000000009b88:	b9000001 	str	w1, [x0]
ffff000000009b8c:	b0000440 	adrp	x0, ffff000000092000 <intSearchRecord+0xb10>
ffff000000009b90:	9104c001 	add	x1, x0, #0x130
ffff000000009b94:	b9825fa2 	ldrsw	x2, [x29,#604]
ffff000000009b98:	d2806380 	mov	x0, #0x31c                 	// #796
ffff000000009b9c:	9b007c40 	mul	x0, x2, x0
ffff000000009ba0:	8b000020 	add	x0, x1, x0
ffff000000009ba4:	b9400003 	ldr	w3, [x0]
ffff000000009ba8:	90000440 	adrp	x0, ffff000000091000 <mem_map+0x7d3d0>
ffff000000009bac:	9111e000 	add	x0, x0, #0x478
ffff000000009bb0:	b9405401 	ldr	w1, [x0,#84]
ffff000000009bb4:	90000440 	adrp	x0, ffff000000091000 <mem_map+0x7d3d0>
ffff000000009bb8:	9111e000 	add	x0, x0, #0x478
ffff000000009bbc:	b9405c00 	ldr	w0, [x0,#92]
ffff000000009bc0:	2a0003e2 	mov	w2, w0
ffff000000009bc4:	2a0303e0 	mov	w0, w3
ffff000000009bc8:	97fffa37 	bl	ffff0000000084a4 <getFirstSector>
ffff000000009bcc:	2a0003e3 	mov	w3, w0
ffff000000009bd0:	b0000440 	adrp	x0, ffff000000092000 <intSearchRecord+0xb10>
ffff000000009bd4:	9104c001 	add	x1, x0, #0x130
ffff000000009bd8:	b9825fa2 	ldrsw	x2, [x29,#604]
ffff000000009bdc:	d2806380 	mov	x0, #0x31c                 	// #796
ffff000000009be0:	9b007c40 	mul	x0, x2, x0
ffff000000009be4:	8b000020 	add	x0, x1, x0
ffff000000009be8:	91001000 	add	x0, x0, #0x4
ffff000000009bec:	b9000003 	str	w3, [x0]
ffff000000009bf0:	b0000440 	adrp	x0, ffff000000092000 <intSearchRecord+0xb10>
ffff000000009bf4:	9104c001 	add	x1, x0, #0x130
ffff000000009bf8:	b9825fa2 	ldrsw	x2, [x29,#604]
ffff000000009bfc:	d2806380 	mov	x0, #0x31c                 	// #796
ffff000000009c00:	9b007c40 	mul	x0, x2, x0
ffff000000009c04:	8b000020 	add	x0, x1, x0
ffff000000009c08:	91002000 	add	x0, x0, #0x8
ffff000000009c0c:	b900001f 	str	wzr, [x0]
ffff000000009c10:	b0000440 	adrp	x0, ffff000000092000 <intSearchRecord+0xb10>
ffff000000009c14:	9104c001 	add	x1, x0, #0x130
ffff000000009c18:	b9825fa2 	ldrsw	x2, [x29,#604]
ffff000000009c1c:	d2806380 	mov	x0, #0x31c                 	// #796
ffff000000009c20:	9b007c40 	mul	x0, x2, x0
ffff000000009c24:	8b000020 	add	x0, x1, x0
ffff000000009c28:	91003000 	add	x0, x0, #0xc
ffff000000009c2c:	b900001f 	str	wzr, [x0]
ffff000000009c30:	b0000440 	adrp	x0, ffff000000092000 <intSearchRecord+0xb10>
ffff000000009c34:	9104c001 	add	x1, x0, #0x130
ffff000000009c38:	b9825fa2 	ldrsw	x2, [x29,#604]
ffff000000009c3c:	d2806380 	mov	x0, #0x31c                 	// #796
ffff000000009c40:	9b007c40 	mul	x0, x2, x0
ffff000000009c44:	8b000020 	add	x0, x1, x0
ffff000000009c48:	91001000 	add	x0, x0, #0x4
ffff000000009c4c:	b9400004 	ldr	w4, [x0]
ffff000000009c50:	b9825fa1 	ldrsw	x1, [x29,#604]
ffff000000009c54:	d2806380 	mov	x0, #0x31c                 	// #796
ffff000000009c58:	9b007c20 	mul	x0, x1, x0
ffff000000009c5c:	91004001 	add	x1, x0, #0x10
ffff000000009c60:	b0000440 	adrp	x0, ffff000000092000 <intSearchRecord+0xb10>
ffff000000009c64:	9104c000 	add	x0, x0, #0x130
ffff000000009c68:	8b000020 	add	x0, x1, x0
ffff000000009c6c:	52800003 	mov	w3, #0x0                   	// #0
ffff000000009c70:	aa0003e2 	mov	x2, x0
ffff000000009c74:	52800021 	mov	w1, #0x1                   	// #1
ffff000000009c78:	2a0403e0 	mov	w0, w4
ffff000000009c7c:	97fff832 	bl	ffff000000007d44 <sdTransferBlocks>
ffff000000009c80:	7100001f 	cmp	w0, #0x0
ffff000000009c84:	54000060 	b.eq	ffff000000009c90 <sdCreateFile+0x384>
ffff000000009c88:	52800000 	mov	w0, #0x0                   	// #0
ffff000000009c8c:	1400008e 	b	ffff000000009ec4 <sdCreateFile+0x5b8>
ffff000000009c90:	f94127a0 	ldr	x0, [x29,#584]
ffff000000009c94:	91000400 	add	x0, x0, #0x1
ffff000000009c98:	f9012ba0 	str	x0, [x29,#592]
ffff000000009c9c:	f94127a0 	ldr	x0, [x29,#584]
ffff000000009ca0:	f100001f 	cmp	x0, #0x0
ffff000000009ca4:	54fff201 	b.ne	ffff000000009ae4 <sdCreateFile+0x1d8>
ffff000000009ca8:	b9825fa1 	ldrsw	x1, [x29,#604]
ffff000000009cac:	d2806380 	mov	x0, #0x31c                 	// #796
ffff000000009cb0:	9b007c21 	mul	x1, x1, x0
ffff000000009cb4:	b0000440 	adrp	x0, ffff000000092000 <intSearchRecord+0xb10>
ffff000000009cb8:	9104c000 	add	x0, x0, #0x130
ffff000000009cbc:	8b000020 	add	x0, x1, x0
ffff000000009cc0:	9108f3a2 	add	x2, x29, #0x23c
ffff000000009cc4:	9104e3a1 	add	x1, x29, #0x138
ffff000000009cc8:	aa0203e4 	mov	x4, x2
ffff000000009ccc:	aa0103e3 	mov	x3, x1
ffff000000009cd0:	52800002 	mov	w2, #0x0                   	// #0
ffff000000009cd4:	aa0003e1 	mov	x1, x0
ffff000000009cd8:	f9412ba0 	ldr	x0, [x29,#592]
ffff000000009cdc:	97fffbe9 	bl	ffff000000008c80 <LocateFATEntry>
ffff000000009ce0:	f90123a0 	str	x0, [x29,#576]
ffff000000009ce4:	b9423fa0 	ldr	w0, [x29,#572]
ffff000000009ce8:	7100001f 	cmp	w0, #0x0
ffff000000009cec:	54000ea1 	b.ne	ffff000000009ec0 <sdCreateFile+0x5b4>
ffff000000009cf0:	f94123a0 	ldr	x0, [x29,#576]
ffff000000009cf4:	f100001f 	cmp	x0, #0x0
ffff000000009cf8:	54000e40 	b.eq	ffff000000009ec0 <sdCreateFile+0x5b4>
ffff000000009cfc:	f94123a0 	ldr	x0, [x29,#576]
ffff000000009d00:	79402800 	ldrh	w0, [x0,#20]
ffff000000009d04:	53103c00 	lsl	w0, w0, #16
ffff000000009d08:	f94123a1 	ldr	x1, [x29,#576]
ffff000000009d0c:	79403421 	ldrh	w1, [x1,#26]
ffff000000009d10:	2a010001 	orr	w1, w0, w1
ffff000000009d14:	b0000440 	adrp	x0, ffff000000092000 <intSearchRecord+0xb10>
ffff000000009d18:	9104c002 	add	x2, x0, #0x130
ffff000000009d1c:	b9825fa3 	ldrsw	x3, [x29,#604]
ffff000000009d20:	d2806380 	mov	x0, #0x31c                 	// #796
ffff000000009d24:	9b007c60 	mul	x0, x3, x0
ffff000000009d28:	8b000040 	add	x0, x2, x0
ffff000000009d2c:	910c4000 	add	x0, x0, #0x310
ffff000000009d30:	b9000001 	str	w1, [x0]
ffff000000009d34:	b0000440 	adrp	x0, ffff000000092000 <intSearchRecord+0xb10>
ffff000000009d38:	9104c001 	add	x1, x0, #0x130
ffff000000009d3c:	b9825fa2 	ldrsw	x2, [x29,#604]
ffff000000009d40:	d2806380 	mov	x0, #0x31c                 	// #796
ffff000000009d44:	9b007c40 	mul	x0, x2, x0
ffff000000009d48:	8b000020 	add	x0, x1, x0
ffff000000009d4c:	910c5000 	add	x0, x0, #0x314
ffff000000009d50:	b900001f 	str	wzr, [x0]
ffff000000009d54:	f94123a0 	ldr	x0, [x29,#576]
ffff000000009d58:	b9401c01 	ldr	w1, [x0,#28]
ffff000000009d5c:	b0000440 	adrp	x0, ffff000000092000 <intSearchRecord+0xb10>
ffff000000009d60:	9104c002 	add	x2, x0, #0x130
ffff000000009d64:	b9825fa3 	ldrsw	x3, [x29,#604]
ffff000000009d68:	d2806380 	mov	x0, #0x31c                 	// #796
ffff000000009d6c:	9b007c60 	mul	x0, x3, x0
ffff000000009d70:	8b000040 	add	x0, x2, x0
ffff000000009d74:	910c6000 	add	x0, x0, #0x318
ffff000000009d78:	b9000001 	str	w1, [x0]
ffff000000009d7c:	b0000440 	adrp	x0, ffff000000092000 <intSearchRecord+0xb10>
ffff000000009d80:	9104c001 	add	x1, x0, #0x130
ffff000000009d84:	b9825fa2 	ldrsw	x2, [x29,#604]
ffff000000009d88:	d2806380 	mov	x0, #0x31c                 	// #796
ffff000000009d8c:	9b007c40 	mul	x0, x2, x0
ffff000000009d90:	8b000020 	add	x0, x1, x0
ffff000000009d94:	910c4000 	add	x0, x0, #0x310
ffff000000009d98:	b9400001 	ldr	w1, [x0]
ffff000000009d9c:	b0000440 	adrp	x0, ffff000000092000 <intSearchRecord+0xb10>
ffff000000009da0:	9104c002 	add	x2, x0, #0x130
ffff000000009da4:	b9825fa3 	ldrsw	x3, [x29,#604]
ffff000000009da8:	d2806380 	mov	x0, #0x31c                 	// #796
ffff000000009dac:	9b007c60 	mul	x0, x3, x0
ffff000000009db0:	8b000040 	add	x0, x2, x0
ffff000000009db4:	b9000001 	str	w1, [x0]
ffff000000009db8:	b0000440 	adrp	x0, ffff000000092000 <intSearchRecord+0xb10>
ffff000000009dbc:	9104c001 	add	x1, x0, #0x130
ffff000000009dc0:	b9825fa2 	ldrsw	x2, [x29,#604]
ffff000000009dc4:	d2806380 	mov	x0, #0x31c                 	// #796
ffff000000009dc8:	9b007c40 	mul	x0, x2, x0
ffff000000009dcc:	8b000020 	add	x0, x1, x0
ffff000000009dd0:	b9400003 	ldr	w3, [x0]
ffff000000009dd4:	90000440 	adrp	x0, ffff000000091000 <mem_map+0x7d3d0>
ffff000000009dd8:	9111e000 	add	x0, x0, #0x478
ffff000000009ddc:	b9405401 	ldr	w1, [x0,#84]
ffff000000009de0:	90000440 	adrp	x0, ffff000000091000 <mem_map+0x7d3d0>
ffff000000009de4:	9111e000 	add	x0, x0, #0x478
ffff000000009de8:	b9405c00 	ldr	w0, [x0,#92]
ffff000000009dec:	2a0003e2 	mov	w2, w0
ffff000000009df0:	2a0303e0 	mov	w0, w3
ffff000000009df4:	97fff9ac 	bl	ffff0000000084a4 <getFirstSector>
ffff000000009df8:	2a0003e3 	mov	w3, w0
ffff000000009dfc:	b0000440 	adrp	x0, ffff000000092000 <intSearchRecord+0xb10>
ffff000000009e00:	9104c001 	add	x1, x0, #0x130
ffff000000009e04:	b9825fa2 	ldrsw	x2, [x29,#604]
ffff000000009e08:	d2806380 	mov	x0, #0x31c                 	// #796
ffff000000009e0c:	9b007c40 	mul	x0, x2, x0
ffff000000009e10:	8b000020 	add	x0, x1, x0
ffff000000009e14:	91001000 	add	x0, x0, #0x4
ffff000000009e18:	b9000003 	str	w3, [x0]
ffff000000009e1c:	b0000440 	adrp	x0, ffff000000092000 <intSearchRecord+0xb10>
ffff000000009e20:	9104c001 	add	x1, x0, #0x130
ffff000000009e24:	b9825fa2 	ldrsw	x2, [x29,#604]
ffff000000009e28:	d2806380 	mov	x0, #0x31c                 	// #796
ffff000000009e2c:	9b007c40 	mul	x0, x2, x0
ffff000000009e30:	8b000020 	add	x0, x1, x0
ffff000000009e34:	91002000 	add	x0, x0, #0x8
ffff000000009e38:	b900001f 	str	wzr, [x0]
ffff000000009e3c:	b0000440 	adrp	x0, ffff000000092000 <intSearchRecord+0xb10>
ffff000000009e40:	9104c001 	add	x1, x0, #0x130
ffff000000009e44:	b9825fa2 	ldrsw	x2, [x29,#604]
ffff000000009e48:	d2806380 	mov	x0, #0x31c                 	// #796
ffff000000009e4c:	9b007c40 	mul	x0, x2, x0
ffff000000009e50:	8b000020 	add	x0, x1, x0
ffff000000009e54:	91003000 	add	x0, x0, #0xc
ffff000000009e58:	b900001f 	str	wzr, [x0]
ffff000000009e5c:	b0000440 	adrp	x0, ffff000000092000 <intSearchRecord+0xb10>
ffff000000009e60:	9104c001 	add	x1, x0, #0x130
ffff000000009e64:	b9825fa2 	ldrsw	x2, [x29,#604]
ffff000000009e68:	d2806380 	mov	x0, #0x31c                 	// #796
ffff000000009e6c:	9b007c40 	mul	x0, x2, x0
ffff000000009e70:	8b000020 	add	x0, x1, x0
ffff000000009e74:	91001000 	add	x0, x0, #0x4
ffff000000009e78:	b9400004 	ldr	w4, [x0]
ffff000000009e7c:	b9825fa1 	ldrsw	x1, [x29,#604]
ffff000000009e80:	d2806380 	mov	x0, #0x31c                 	// #796
ffff000000009e84:	9b007c20 	mul	x0, x1, x0
ffff000000009e88:	91004001 	add	x1, x0, #0x10
ffff000000009e8c:	b0000440 	adrp	x0, ffff000000092000 <intSearchRecord+0xb10>
ffff000000009e90:	9104c000 	add	x0, x0, #0x130
ffff000000009e94:	8b000020 	add	x0, x1, x0
ffff000000009e98:	52800003 	mov	w3, #0x0                   	// #0
ffff000000009e9c:	aa0003e2 	mov	x2, x0
ffff000000009ea0:	52800021 	mov	w1, #0x1                   	// #1
ffff000000009ea4:	2a0403e0 	mov	w0, w4
ffff000000009ea8:	97fff7a7 	bl	ffff000000007d44 <sdTransferBlocks>
ffff000000009eac:	7100001f 	cmp	w0, #0x0
ffff000000009eb0:	54000081 	b.ne	ffff000000009ec0 <sdCreateFile+0x5b4>
ffff000000009eb4:	b9425fa0 	ldr	w0, [x29,#604]
ffff000000009eb8:	11000400 	add	w0, w0, #0x1
ffff000000009ebc:	14000002 	b	ffff000000009ec4 <sdCreateFile+0x5b8>
ffff000000009ec0:	52800000 	mov	w0, #0x0                   	// #0
ffff000000009ec4:	a8c17bfd 	ldp	x29, x30, [sp],#16
ffff000000009ec8:	910943ff 	add	sp, sp, #0x250
ffff000000009ecc:	d65f03c0 	ret

ffff000000009ed0 <sdReadFile>:
ffff000000009ed0:	a9bb7bfd 	stp	x29, x30, [sp,#-80]!
ffff000000009ed4:	910003fd 	mov	x29, sp
ffff000000009ed8:	f9000bf3 	str	x19, [sp,#16]
ffff000000009edc:	b9003fa0 	str	w0, [x29,#60]
ffff000000009ee0:	f9001ba1 	str	x1, [x29,#48]
ffff000000009ee4:	b9003ba2 	str	w2, [x29,#56]
ffff000000009ee8:	f90017a3 	str	x3, [x29,#40]
ffff000000009eec:	f90013a4 	str	x4, [x29,#32]
ffff000000009ef0:	b9403fa0 	ldr	w0, [x29,#60]
ffff000000009ef4:	7100001f 	cmp	w0, #0x0
ffff000000009ef8:	54002f00 	b.eq	ffff00000000a4d8 <sdReadFile+0x608>
ffff000000009efc:	b9403fa0 	ldr	w0, [x29,#60]
ffff000000009f00:	7100201f 	cmp	w0, #0x8
ffff000000009f04:	54002ea8 	b.hi	ffff00000000a4d8 <sdReadFile+0x608>
ffff000000009f08:	b9403fa0 	ldr	w0, [x29,#60]
ffff000000009f0c:	51000402 	sub	w2, w0, #0x1
ffff000000009f10:	b0000440 	adrp	x0, ffff000000092000 <intSearchRecord+0xb10>
ffff000000009f14:	9104c001 	add	x1, x0, #0x130
ffff000000009f18:	2a0203e2 	mov	w2, w2
ffff000000009f1c:	d2806380 	mov	x0, #0x31c                 	// #796
ffff000000009f20:	9b007c40 	mul	x0, x2, x0
ffff000000009f24:	8b000020 	add	x0, x1, x0
ffff000000009f28:	91001000 	add	x0, x0, #0x4
ffff000000009f2c:	b9400000 	ldr	w0, [x0]
ffff000000009f30:	7100001f 	cmp	w0, #0x0
ffff000000009f34:	54002d20 	b.eq	ffff00000000a4d8 <sdReadFile+0x608>
ffff000000009f38:	b9004fbf 	str	wzr, [x29,#76]
ffff000000009f3c:	b9004bbf 	str	wzr, [x29,#72]
ffff000000009f40:	1400014b 	b	ffff00000000a46c <sdReadFile+0x59c>
ffff000000009f44:	b9404fa0 	ldr	w0, [x29,#76]
ffff000000009f48:	f9401ba1 	ldr	x1, [x29,#48]
ffff000000009f4c:	8b000021 	add	x1, x1, x0
ffff000000009f50:	b9403fa0 	ldr	w0, [x29,#60]
ffff000000009f54:	51000406 	sub	w6, w0, #0x1
ffff000000009f58:	b9403fa0 	ldr	w0, [x29,#60]
ffff000000009f5c:	51000405 	sub	w5, w0, #0x1
ffff000000009f60:	b0000440 	adrp	x0, ffff000000092000 <intSearchRecord+0xb10>
ffff000000009f64:	9104c002 	add	x2, x0, #0x130
ffff000000009f68:	2a0503e3 	mov	w3, w5
ffff000000009f6c:	d2806380 	mov	x0, #0x31c                 	// #796
ffff000000009f70:	9b007c60 	mul	x0, x3, x0
ffff000000009f74:	8b000040 	add	x0, x2, x0
ffff000000009f78:	91003000 	add	x0, x0, #0xc
ffff000000009f7c:	b9400000 	ldr	w0, [x0]
ffff000000009f80:	11000403 	add	w3, w0, #0x1
ffff000000009f84:	b0000442 	adrp	x2, ffff000000092000 <intSearchRecord+0xb10>
ffff000000009f88:	9104c044 	add	x4, x2, #0x130
ffff000000009f8c:	2a0503e5 	mov	w5, w5
ffff000000009f90:	d2806382 	mov	x2, #0x31c                 	// #796
ffff000000009f94:	9b027ca2 	mul	x2, x5, x2
ffff000000009f98:	8b020082 	add	x2, x4, x2
ffff000000009f9c:	91003042 	add	x2, x2, #0xc
ffff000000009fa0:	b9000043 	str	w3, [x2]
ffff000000009fa4:	b0000442 	adrp	x2, ffff000000092000 <intSearchRecord+0xb10>
ffff000000009fa8:	9104c043 	add	x3, x2, #0x130
ffff000000009fac:	2a0003e0 	mov	w0, w0
ffff000000009fb0:	2a0603e4 	mov	w4, w6
ffff000000009fb4:	d2806382 	mov	x2, #0x31c                 	// #796
ffff000000009fb8:	9b027c82 	mul	x2, x4, x2
ffff000000009fbc:	8b020062 	add	x2, x3, x2
ffff000000009fc0:	8b000040 	add	x0, x2, x0
ffff000000009fc4:	91004000 	add	x0, x0, #0x10
ffff000000009fc8:	39400000 	ldrb	w0, [x0]
ffff000000009fcc:	39000020 	strb	w0, [x1]
ffff000000009fd0:	b9404fa0 	ldr	w0, [x29,#76]
ffff000000009fd4:	11000400 	add	w0, w0, #0x1
ffff000000009fd8:	b9004fa0 	str	w0, [x29,#76]
ffff000000009fdc:	b9403fa0 	ldr	w0, [x29,#60]
ffff000000009fe0:	51000403 	sub	w3, w0, #0x1
ffff000000009fe4:	b0000440 	adrp	x0, ffff000000092000 <intSearchRecord+0xb10>
ffff000000009fe8:	9104c001 	add	x1, x0, #0x130
ffff000000009fec:	2a0303e2 	mov	w2, w3
ffff000000009ff0:	d2806380 	mov	x0, #0x31c                 	// #796
ffff000000009ff4:	9b007c40 	mul	x0, x2, x0
ffff000000009ff8:	8b000020 	add	x0, x1, x0
ffff000000009ffc:	910c5000 	add	x0, x0, #0x314
ffff00000000a000:	b9400000 	ldr	w0, [x0]
ffff00000000a004:	11000401 	add	w1, w0, #0x1
ffff00000000a008:	90000440 	adrp	x0, ffff000000092000 <intSearchRecord+0xb10>
ffff00000000a00c:	9104c002 	add	x2, x0, #0x130
ffff00000000a010:	2a0303e3 	mov	w3, w3
ffff00000000a014:	d2806380 	mov	x0, #0x31c                 	// #796
ffff00000000a018:	9b007c60 	mul	x0, x3, x0
ffff00000000a01c:	8b000040 	add	x0, x2, x0
ffff00000000a020:	910c5000 	add	x0, x0, #0x314
ffff00000000a024:	b9000001 	str	w1, [x0]
ffff00000000a028:	b9403ba1 	ldr	w1, [x29,#56]
ffff00000000a02c:	b9404fa0 	ldr	w0, [x29,#76]
ffff00000000a030:	6b00003f 	cmp	w1, w0
ffff00000000a034:	54000469 	b.ls	ffff00000000a0c0 <sdReadFile+0x1f0>
ffff00000000a038:	b9403fa0 	ldr	w0, [x29,#60]
ffff00000000a03c:	51000402 	sub	w2, w0, #0x1
ffff00000000a040:	90000440 	adrp	x0, ffff000000092000 <intSearchRecord+0xb10>
ffff00000000a044:	9104c001 	add	x1, x0, #0x130
ffff00000000a048:	2a0203e2 	mov	w2, w2
ffff00000000a04c:	d2806380 	mov	x0, #0x31c                 	// #796
ffff00000000a050:	9b007c40 	mul	x0, x2, x0
ffff00000000a054:	8b000020 	add	x0, x1, x0
ffff00000000a058:	910c5000 	add	x0, x0, #0x314
ffff00000000a05c:	b9400001 	ldr	w1, [x0]
ffff00000000a060:	b9403fa0 	ldr	w0, [x29,#60]
ffff00000000a064:	51000403 	sub	w3, w0, #0x1
ffff00000000a068:	90000440 	adrp	x0, ffff000000092000 <intSearchRecord+0xb10>
ffff00000000a06c:	9104c002 	add	x2, x0, #0x130
ffff00000000a070:	2a0303e3 	mov	w3, w3
ffff00000000a074:	d2806380 	mov	x0, #0x31c                 	// #796
ffff00000000a078:	9b007c60 	mul	x0, x3, x0
ffff00000000a07c:	8b000040 	add	x0, x2, x0
ffff00000000a080:	910c6000 	add	x0, x0, #0x318
ffff00000000a084:	b9400000 	ldr	w0, [x0]
ffff00000000a088:	6b00003f 	cmp	w1, w0
ffff00000000a08c:	540001a2 	b.cs	ffff00000000a0c0 <sdReadFile+0x1f0>
ffff00000000a090:	b9403fa0 	ldr	w0, [x29,#60]
ffff00000000a094:	51000402 	sub	w2, w0, #0x1
ffff00000000a098:	90000440 	adrp	x0, ffff000000092000 <intSearchRecord+0xb10>
ffff00000000a09c:	9104c001 	add	x1, x0, #0x130
ffff00000000a0a0:	2a0203e2 	mov	w2, w2
ffff00000000a0a4:	d2806380 	mov	x0, #0x31c                 	// #796
ffff00000000a0a8:	9b007c40 	mul	x0, x2, x0
ffff00000000a0ac:	8b000020 	add	x0, x1, x0
ffff00000000a0b0:	91003000 	add	x0, x0, #0xc
ffff00000000a0b4:	b9400000 	ldr	w0, [x0]
ffff00000000a0b8:	7107fc1f 	cmp	w0, #0x1ff
ffff00000000a0bc:	54fff449 	b.ls	ffff000000009f44 <sdReadFile+0x74>
ffff00000000a0c0:	b9403ba1 	ldr	w1, [x29,#56]
ffff00000000a0c4:	b9404fa0 	ldr	w0, [x29,#76]
ffff00000000a0c8:	6b00003f 	cmp	w1, w0
ffff00000000a0cc:	54000121 	b.ne	ffff00000000a0f0 <sdReadFile+0x220>
ffff00000000a0d0:	f94017a0 	ldr	x0, [x29,#40]
ffff00000000a0d4:	f100001f 	cmp	x0, #0x0
ffff00000000a0d8:	54000080 	b.eq	ffff00000000a0e8 <sdReadFile+0x218>
ffff00000000a0dc:	f94017a0 	ldr	x0, [x29,#40]
ffff00000000a0e0:	b9404fa1 	ldr	w1, [x29,#76]
ffff00000000a0e4:	b9000001 	str	w1, [x0]
ffff00000000a0e8:	52800020 	mov	w0, #0x1                   	// #1
ffff00000000a0ec:	140000fc 	b	ffff00000000a4dc <sdReadFile+0x60c>
ffff00000000a0f0:	b9403fa0 	ldr	w0, [x29,#60]
ffff00000000a0f4:	51000402 	sub	w2, w0, #0x1
ffff00000000a0f8:	90000440 	adrp	x0, ffff000000092000 <intSearchRecord+0xb10>
ffff00000000a0fc:	9104c001 	add	x1, x0, #0x130
ffff00000000a100:	2a0203e2 	mov	w2, w2
ffff00000000a104:	d2806380 	mov	x0, #0x31c                 	// #796
ffff00000000a108:	9b007c40 	mul	x0, x2, x0
ffff00000000a10c:	8b000020 	add	x0, x1, x0
ffff00000000a110:	910c5000 	add	x0, x0, #0x314
ffff00000000a114:	b9400001 	ldr	w1, [x0]
ffff00000000a118:	b9403fa0 	ldr	w0, [x29,#60]
ffff00000000a11c:	51000403 	sub	w3, w0, #0x1
ffff00000000a120:	90000440 	adrp	x0, ffff000000092000 <intSearchRecord+0xb10>
ffff00000000a124:	9104c002 	add	x2, x0, #0x130
ffff00000000a128:	2a0303e3 	mov	w3, w3
ffff00000000a12c:	d2806380 	mov	x0, #0x31c                 	// #796
ffff00000000a130:	9b007c60 	mul	x0, x3, x0
ffff00000000a134:	8b000040 	add	x0, x2, x0
ffff00000000a138:	910c6000 	add	x0, x0, #0x318
ffff00000000a13c:	b9400000 	ldr	w0, [x0]
ffff00000000a140:	6b00003f 	cmp	w1, w0
ffff00000000a144:	54000123 	b.cc	ffff00000000a168 <sdReadFile+0x298>
ffff00000000a148:	f94017a0 	ldr	x0, [x29,#40]
ffff00000000a14c:	f100001f 	cmp	x0, #0x0
ffff00000000a150:	54000080 	b.eq	ffff00000000a160 <sdReadFile+0x290>
ffff00000000a154:	f94017a0 	ldr	x0, [x29,#40]
ffff00000000a158:	b9404fa1 	ldr	w1, [x29,#76]
ffff00000000a15c:	b9000001 	str	w1, [x0]
ffff00000000a160:	52800000 	mov	w0, #0x0                   	// #0
ffff00000000a164:	140000de 	b	ffff00000000a4dc <sdReadFile+0x60c>
ffff00000000a168:	b9403fa0 	ldr	w0, [x29,#60]
ffff00000000a16c:	51000403 	sub	w3, w0, #0x1
ffff00000000a170:	90000440 	adrp	x0, ffff000000092000 <intSearchRecord+0xb10>
ffff00000000a174:	9104c001 	add	x1, x0, #0x130
ffff00000000a178:	2a0303e2 	mov	w2, w3
ffff00000000a17c:	d2806380 	mov	x0, #0x31c                 	// #796
ffff00000000a180:	9b007c40 	mul	x0, x2, x0
ffff00000000a184:	8b000020 	add	x0, x1, x0
ffff00000000a188:	91002000 	add	x0, x0, #0x8
ffff00000000a18c:	b9400000 	ldr	w0, [x0]
ffff00000000a190:	11000401 	add	w1, w0, #0x1
ffff00000000a194:	90000440 	adrp	x0, ffff000000092000 <intSearchRecord+0xb10>
ffff00000000a198:	9104c002 	add	x2, x0, #0x130
ffff00000000a19c:	2a0303e3 	mov	w3, w3
ffff00000000a1a0:	d2806380 	mov	x0, #0x31c                 	// #796
ffff00000000a1a4:	9b007c60 	mul	x0, x3, x0
ffff00000000a1a8:	8b000040 	add	x0, x2, x0
ffff00000000a1ac:	91002000 	add	x0, x0, #0x8
ffff00000000a1b0:	b9000001 	str	w1, [x0]
ffff00000000a1b4:	b9403fa0 	ldr	w0, [x29,#60]
ffff00000000a1b8:	51000402 	sub	w2, w0, #0x1
ffff00000000a1bc:	90000440 	adrp	x0, ffff000000092000 <intSearchRecord+0xb10>
ffff00000000a1c0:	9104c001 	add	x1, x0, #0x130
ffff00000000a1c4:	2a0203e2 	mov	w2, w2
ffff00000000a1c8:	d2806380 	mov	x0, #0x31c                 	// #796
ffff00000000a1cc:	9b007c40 	mul	x0, x2, x0
ffff00000000a1d0:	8b000020 	add	x0, x1, x0
ffff00000000a1d4:	91002000 	add	x0, x0, #0x8
ffff00000000a1d8:	b9400001 	ldr	w1, [x0]
ffff00000000a1dc:	f0000420 	adrp	x0, ffff000000091000 <mem_map+0x7d3d0>
ffff00000000a1e0:	9111e000 	add	x0, x0, #0x478
ffff00000000a1e4:	b9405400 	ldr	w0, [x0,#84]
ffff00000000a1e8:	6b00003f 	cmp	w1, w0
ffff00000000a1ec:	54000642 	b.cs	ffff00000000a2b4 <sdReadFile+0x3e4>
ffff00000000a1f0:	b9403fa0 	ldr	w0, [x29,#60]
ffff00000000a1f4:	51000402 	sub	w2, w0, #0x1
ffff00000000a1f8:	90000440 	adrp	x0, ffff000000092000 <intSearchRecord+0xb10>
ffff00000000a1fc:	9104c001 	add	x1, x0, #0x130
ffff00000000a200:	2a0203e2 	mov	w2, w2
ffff00000000a204:	d2806380 	mov	x0, #0x31c                 	// #796
ffff00000000a208:	9b007c40 	mul	x0, x2, x0
ffff00000000a20c:	8b000020 	add	x0, x1, x0
ffff00000000a210:	91003000 	add	x0, x0, #0xc
ffff00000000a214:	b900001f 	str	wzr, [x0]
ffff00000000a218:	b9403fa0 	ldr	w0, [x29,#60]
ffff00000000a21c:	51000402 	sub	w2, w0, #0x1
ffff00000000a220:	90000440 	adrp	x0, ffff000000092000 <intSearchRecord+0xb10>
ffff00000000a224:	9104c001 	add	x1, x0, #0x130
ffff00000000a228:	2a0203e2 	mov	w2, w2
ffff00000000a22c:	d2806380 	mov	x0, #0x31c                 	// #796
ffff00000000a230:	9b007c40 	mul	x0, x2, x0
ffff00000000a234:	8b000020 	add	x0, x1, x0
ffff00000000a238:	91001000 	add	x0, x0, #0x4
ffff00000000a23c:	b9400001 	ldr	w1, [x0]
ffff00000000a240:	b9403fa0 	ldr	w0, [x29,#60]
ffff00000000a244:	51000403 	sub	w3, w0, #0x1
ffff00000000a248:	90000440 	adrp	x0, ffff000000092000 <intSearchRecord+0xb10>
ffff00000000a24c:	9104c002 	add	x2, x0, #0x130
ffff00000000a250:	2a0303e3 	mov	w3, w3
ffff00000000a254:	d2806380 	mov	x0, #0x31c                 	// #796
ffff00000000a258:	9b007c60 	mul	x0, x3, x0
ffff00000000a25c:	8b000040 	add	x0, x2, x0
ffff00000000a260:	91002000 	add	x0, x0, #0x8
ffff00000000a264:	b9400000 	ldr	w0, [x0]
ffff00000000a268:	0b000024 	add	w4, w1, w0
ffff00000000a26c:	b9403fa0 	ldr	w0, [x29,#60]
ffff00000000a270:	51000400 	sub	w0, w0, #0x1
ffff00000000a274:	2a0003e1 	mov	w1, w0
ffff00000000a278:	d2806380 	mov	x0, #0x31c                 	// #796
ffff00000000a27c:	9b007c20 	mul	x0, x1, x0
ffff00000000a280:	91004001 	add	x1, x0, #0x10
ffff00000000a284:	90000440 	adrp	x0, ffff000000092000 <intSearchRecord+0xb10>
ffff00000000a288:	9104c000 	add	x0, x0, #0x130
ffff00000000a28c:	8b000020 	add	x0, x1, x0
ffff00000000a290:	52800003 	mov	w3, #0x0                   	// #0
ffff00000000a294:	aa0003e2 	mov	x2, x0
ffff00000000a298:	52800021 	mov	w1, #0x1                   	// #1
ffff00000000a29c:	2a0403e0 	mov	w0, w4
ffff00000000a2a0:	97fff6a9 	bl	ffff000000007d44 <sdTransferBlocks>
ffff00000000a2a4:	7100001f 	cmp	w0, #0x0
ffff00000000a2a8:	54000e20 	b.eq	ffff00000000a46c <sdReadFile+0x59c>
ffff00000000a2ac:	52800000 	mov	w0, #0x0                   	// #0
ffff00000000a2b0:	1400008b 	b	ffff00000000a4dc <sdReadFile+0x60c>
ffff00000000a2b4:	b9403fa0 	ldr	w0, [x29,#60]
ffff00000000a2b8:	51000413 	sub	w19, w0, #0x1
ffff00000000a2bc:	b9403fa0 	ldr	w0, [x29,#60]
ffff00000000a2c0:	51000402 	sub	w2, w0, #0x1
ffff00000000a2c4:	90000440 	adrp	x0, ffff000000092000 <intSearchRecord+0xb10>
ffff00000000a2c8:	9104c001 	add	x1, x0, #0x130
ffff00000000a2cc:	2a0203e2 	mov	w2, w2
ffff00000000a2d0:	d2806380 	mov	x0, #0x31c                 	// #796
ffff00000000a2d4:	9b007c40 	mul	x0, x2, x0
ffff00000000a2d8:	8b000020 	add	x0, x1, x0
ffff00000000a2dc:	b9400000 	ldr	w0, [x0]
ffff00000000a2e0:	52800002 	mov	w2, #0x0                   	// #0
ffff00000000a2e4:	52800001 	mov	w1, #0x0                   	// #0
ffff00000000a2e8:	97fff87b 	bl	ffff0000000084d4 <getSetNextCluster>
ffff00000000a2ec:	2a0003e3 	mov	w3, w0
ffff00000000a2f0:	90000440 	adrp	x0, ffff000000092000 <intSearchRecord+0xb10>
ffff00000000a2f4:	9104c001 	add	x1, x0, #0x130
ffff00000000a2f8:	2a1303e2 	mov	w2, w19
ffff00000000a2fc:	d2806380 	mov	x0, #0x31c                 	// #796
ffff00000000a300:	9b007c40 	mul	x0, x2, x0
ffff00000000a304:	8b000020 	add	x0, x1, x0
ffff00000000a308:	b9000003 	str	w3, [x0]
ffff00000000a30c:	b9403fa0 	ldr	w0, [x29,#60]
ffff00000000a310:	51000413 	sub	w19, w0, #0x1
ffff00000000a314:	b9403fa0 	ldr	w0, [x29,#60]
ffff00000000a318:	51000402 	sub	w2, w0, #0x1
ffff00000000a31c:	90000440 	adrp	x0, ffff000000092000 <intSearchRecord+0xb10>
ffff00000000a320:	9104c001 	add	x1, x0, #0x130
ffff00000000a324:	2a0203e2 	mov	w2, w2
ffff00000000a328:	d2806380 	mov	x0, #0x31c                 	// #796
ffff00000000a32c:	9b007c40 	mul	x0, x2, x0
ffff00000000a330:	8b000020 	add	x0, x1, x0
ffff00000000a334:	b9400003 	ldr	w3, [x0]
ffff00000000a338:	f0000420 	adrp	x0, ffff000000091000 <mem_map+0x7d3d0>
ffff00000000a33c:	9111e000 	add	x0, x0, #0x478
ffff00000000a340:	b9405401 	ldr	w1, [x0,#84]
ffff00000000a344:	f0000420 	adrp	x0, ffff000000091000 <mem_map+0x7d3d0>
ffff00000000a348:	9111e000 	add	x0, x0, #0x478
ffff00000000a34c:	b9405c00 	ldr	w0, [x0,#92]
ffff00000000a350:	2a0003e2 	mov	w2, w0
ffff00000000a354:	2a0303e0 	mov	w0, w3
ffff00000000a358:	97fff853 	bl	ffff0000000084a4 <getFirstSector>
ffff00000000a35c:	2a0003e3 	mov	w3, w0
ffff00000000a360:	90000440 	adrp	x0, ffff000000092000 <intSearchRecord+0xb10>
ffff00000000a364:	9104c001 	add	x1, x0, #0x130
ffff00000000a368:	2a1303e2 	mov	w2, w19
ffff00000000a36c:	d2806380 	mov	x0, #0x31c                 	// #796
ffff00000000a370:	9b007c40 	mul	x0, x2, x0
ffff00000000a374:	8b000020 	add	x0, x1, x0
ffff00000000a378:	91001000 	add	x0, x0, #0x4
ffff00000000a37c:	b9000003 	str	w3, [x0]
ffff00000000a380:	b9403fa0 	ldr	w0, [x29,#60]
ffff00000000a384:	51000402 	sub	w2, w0, #0x1
ffff00000000a388:	90000440 	adrp	x0, ffff000000092000 <intSearchRecord+0xb10>
ffff00000000a38c:	9104c001 	add	x1, x0, #0x130
ffff00000000a390:	2a0203e2 	mov	w2, w2
ffff00000000a394:	d2806380 	mov	x0, #0x31c                 	// #796
ffff00000000a398:	9b007c40 	mul	x0, x2, x0
ffff00000000a39c:	8b000020 	add	x0, x1, x0
ffff00000000a3a0:	91002000 	add	x0, x0, #0x8
ffff00000000a3a4:	b900001f 	str	wzr, [x0]
ffff00000000a3a8:	b9403fa0 	ldr	w0, [x29,#60]
ffff00000000a3ac:	51000402 	sub	w2, w0, #0x1
ffff00000000a3b0:	90000440 	adrp	x0, ffff000000092000 <intSearchRecord+0xb10>
ffff00000000a3b4:	9104c001 	add	x1, x0, #0x130
ffff00000000a3b8:	2a0203e2 	mov	w2, w2
ffff00000000a3bc:	d2806380 	mov	x0, #0x31c                 	// #796
ffff00000000a3c0:	9b007c40 	mul	x0, x2, x0
ffff00000000a3c4:	8b000020 	add	x0, x1, x0
ffff00000000a3c8:	91003000 	add	x0, x0, #0xc
ffff00000000a3cc:	b900001f 	str	wzr, [x0]
ffff00000000a3d0:	b9403fa0 	ldr	w0, [x29,#60]
ffff00000000a3d4:	51000402 	sub	w2, w0, #0x1
ffff00000000a3d8:	90000440 	adrp	x0, ffff000000092000 <intSearchRecord+0xb10>
ffff00000000a3dc:	9104c001 	add	x1, x0, #0x130
ffff00000000a3e0:	2a0203e2 	mov	w2, w2
ffff00000000a3e4:	d2806380 	mov	x0, #0x31c                 	// #796
ffff00000000a3e8:	9b007c40 	mul	x0, x2, x0
ffff00000000a3ec:	8b000020 	add	x0, x1, x0
ffff00000000a3f0:	91001000 	add	x0, x0, #0x4
ffff00000000a3f4:	b9400001 	ldr	w1, [x0]
ffff00000000a3f8:	b9403fa0 	ldr	w0, [x29,#60]
ffff00000000a3fc:	51000403 	sub	w3, w0, #0x1
ffff00000000a400:	90000440 	adrp	x0, ffff000000092000 <intSearchRecord+0xb10>
ffff00000000a404:	9104c002 	add	x2, x0, #0x130
ffff00000000a408:	2a0303e3 	mov	w3, w3
ffff00000000a40c:	d2806380 	mov	x0, #0x31c                 	// #796
ffff00000000a410:	9b007c60 	mul	x0, x3, x0
ffff00000000a414:	8b000040 	add	x0, x2, x0
ffff00000000a418:	91002000 	add	x0, x0, #0x8
ffff00000000a41c:	b9400000 	ldr	w0, [x0]
ffff00000000a420:	0b000024 	add	w4, w1, w0
ffff00000000a424:	b9403fa0 	ldr	w0, [x29,#60]
ffff00000000a428:	51000400 	sub	w0, w0, #0x1
ffff00000000a42c:	2a0003e1 	mov	w1, w0
ffff00000000a430:	d2806380 	mov	x0, #0x31c                 	// #796
ffff00000000a434:	9b007c20 	mul	x0, x1, x0
ffff00000000a438:	91004001 	add	x1, x0, #0x10
ffff00000000a43c:	90000440 	adrp	x0, ffff000000092000 <intSearchRecord+0xb10>
ffff00000000a440:	9104c000 	add	x0, x0, #0x130
ffff00000000a444:	8b000020 	add	x0, x1, x0
ffff00000000a448:	52800003 	mov	w3, #0x0                   	// #0
ffff00000000a44c:	aa0003e2 	mov	x2, x0
ffff00000000a450:	52800021 	mov	w1, #0x1                   	// #1
ffff00000000a454:	2a0403e0 	mov	w0, w4
ffff00000000a458:	97fff63b 	bl	ffff000000007d44 <sdTransferBlocks>
ffff00000000a45c:	7100001f 	cmp	w0, #0x0
ffff00000000a460:	54000060 	b.eq	ffff00000000a46c <sdReadFile+0x59c>
ffff00000000a464:	52800000 	mov	w0, #0x0                   	// #0
ffff00000000a468:	1400001d 	b	ffff00000000a4dc <sdReadFile+0x60c>
ffff00000000a46c:	b9404ba0 	ldr	w0, [x29,#72]
ffff00000000a470:	7100001f 	cmp	w0, #0x0
ffff00000000a474:	54000321 	b.ne	ffff00000000a4d8 <sdReadFile+0x608>
ffff00000000a478:	b9403fa0 	ldr	w0, [x29,#60]
ffff00000000a47c:	51000402 	sub	w2, w0, #0x1
ffff00000000a480:	90000440 	adrp	x0, ffff000000092000 <intSearchRecord+0xb10>
ffff00000000a484:	9104c001 	add	x1, x0, #0x130
ffff00000000a488:	2a0203e2 	mov	w2, w2
ffff00000000a48c:	d2806380 	mov	x0, #0x31c                 	// #796
ffff00000000a490:	9b007c40 	mul	x0, x2, x0
ffff00000000a494:	8b000020 	add	x0, x1, x0
ffff00000000a498:	b9400001 	ldr	w1, [x0]
ffff00000000a49c:	529ffea0 	mov	w0, #0xfff5                	// #65525
ffff00000000a4a0:	72a1ffe0 	movk	w0, #0xfff, lsl #16
ffff00000000a4a4:	6b00003f 	cmp	w1, w0
ffff00000000a4a8:	54000188 	b.hi	ffff00000000a4d8 <sdReadFile+0x608>
ffff00000000a4ac:	b9403fa0 	ldr	w0, [x29,#60]
ffff00000000a4b0:	51000402 	sub	w2, w0, #0x1
ffff00000000a4b4:	90000440 	adrp	x0, ffff000000092000 <intSearchRecord+0xb10>
ffff00000000a4b8:	9104c001 	add	x1, x0, #0x130
ffff00000000a4bc:	2a0203e2 	mov	w2, w2
ffff00000000a4c0:	d2806380 	mov	x0, #0x31c                 	// #796
ffff00000000a4c4:	9b007c40 	mul	x0, x2, x0
ffff00000000a4c8:	8b000020 	add	x0, x1, x0
ffff00000000a4cc:	b9400000 	ldr	w0, [x0]
ffff00000000a4d0:	7100001f 	cmp	w0, #0x0
ffff00000000a4d4:	54ffdaa1 	b.ne	ffff00000000a028 <sdReadFile+0x158>
ffff00000000a4d8:	52800000 	mov	w0, #0x0                   	// #0
ffff00000000a4dc:	f9400bf3 	ldr	x19, [sp,#16]
ffff00000000a4e0:	a8c57bfd 	ldp	x29, x30, [sp],#80
ffff00000000a4e4:	d65f03c0 	ret

ffff00000000a4e8 <sdCloseHandle>:
ffff00000000a4e8:	d10043ff 	sub	sp, sp, #0x10
ffff00000000a4ec:	b9000fe0 	str	w0, [sp,#12]
ffff00000000a4f0:	b9400fe0 	ldr	w0, [sp,#12]
ffff00000000a4f4:	7100001f 	cmp	w0, #0x0
ffff00000000a4f8:	54000380 	b.eq	ffff00000000a568 <sdCloseHandle+0x80>
ffff00000000a4fc:	b9400fe0 	ldr	w0, [sp,#12]
ffff00000000a500:	7100201f 	cmp	w0, #0x8
ffff00000000a504:	54000328 	b.hi	ffff00000000a568 <sdCloseHandle+0x80>
ffff00000000a508:	b9400fe0 	ldr	w0, [sp,#12]
ffff00000000a50c:	51000402 	sub	w2, w0, #0x1
ffff00000000a510:	90000440 	adrp	x0, ffff000000092000 <intSearchRecord+0xb10>
ffff00000000a514:	9104c001 	add	x1, x0, #0x130
ffff00000000a518:	2a0203e2 	mov	w2, w2
ffff00000000a51c:	d2806380 	mov	x0, #0x31c                 	// #796
ffff00000000a520:	9b007c40 	mul	x0, x2, x0
ffff00000000a524:	8b000020 	add	x0, x1, x0
ffff00000000a528:	91001000 	add	x0, x0, #0x4
ffff00000000a52c:	b9400000 	ldr	w0, [x0]
ffff00000000a530:	7100001f 	cmp	w0, #0x0
ffff00000000a534:	540001a0 	b.eq	ffff00000000a568 <sdCloseHandle+0x80>
ffff00000000a538:	b9400fe0 	ldr	w0, [sp,#12]
ffff00000000a53c:	51000402 	sub	w2, w0, #0x1
ffff00000000a540:	90000440 	adrp	x0, ffff000000092000 <intSearchRecord+0xb10>
ffff00000000a544:	9104c001 	add	x1, x0, #0x130
ffff00000000a548:	2a0203e2 	mov	w2, w2
ffff00000000a54c:	d2806380 	mov	x0, #0x31c                 	// #796
ffff00000000a550:	9b007c40 	mul	x0, x2, x0
ffff00000000a554:	8b000020 	add	x0, x1, x0
ffff00000000a558:	91001000 	add	x0, x0, #0x4
ffff00000000a55c:	b900001f 	str	wzr, [x0]
ffff00000000a560:	52800020 	mov	w0, #0x1                   	// #1
ffff00000000a564:	14000002 	b	ffff00000000a56c <sdCloseHandle+0x84>
ffff00000000a568:	52800000 	mov	w0, #0x0                   	// #0
ffff00000000a56c:	910043ff 	add	sp, sp, #0x10
ffff00000000a570:	d65f03c0 	ret

ffff00000000a574 <sdSetFilePointer>:
ffff00000000a574:	a9bc7bfd 	stp	x29, x30, [sp,#-64]!
ffff00000000a578:	910003fd 	mov	x29, sp
ffff00000000a57c:	f9000bf3 	str	x19, [sp,#16]
ffff00000000a580:	b9003fa0 	str	w0, [x29,#60]
ffff00000000a584:	b9003ba1 	str	w1, [x29,#56]
ffff00000000a588:	f9001ba2 	str	x2, [x29,#48]
ffff00000000a58c:	b9002fa3 	str	w3, [x29,#44]
ffff00000000a590:	b9403fa0 	ldr	w0, [x29,#60]
ffff00000000a594:	7100001f 	cmp	w0, #0x0
ffff00000000a598:	54003a00 	b.eq	ffff00000000acd8 <sdSetFilePointer+0x764>
ffff00000000a59c:	b9403fa0 	ldr	w0, [x29,#60]
ffff00000000a5a0:	7100201f 	cmp	w0, #0x8
ffff00000000a5a4:	540039a8 	b.hi	ffff00000000acd8 <sdSetFilePointer+0x764>
ffff00000000a5a8:	b9403fa0 	ldr	w0, [x29,#60]
ffff00000000a5ac:	51000402 	sub	w2, w0, #0x1
ffff00000000a5b0:	90000440 	adrp	x0, ffff000000092000 <intSearchRecord+0xb10>
ffff00000000a5b4:	9104c001 	add	x1, x0, #0x130
ffff00000000a5b8:	2a0203e2 	mov	w2, w2
ffff00000000a5bc:	d2806380 	mov	x0, #0x31c                 	// #796
ffff00000000a5c0:	9b007c40 	mul	x0, x2, x0
ffff00000000a5c4:	8b000020 	add	x0, x1, x0
ffff00000000a5c8:	91001000 	add	x0, x0, #0x4
ffff00000000a5cc:	b9400000 	ldr	w0, [x0]
ffff00000000a5d0:	7100001f 	cmp	w0, #0x0
ffff00000000a5d4:	54003820 	b.eq	ffff00000000acd8 <sdSetFilePointer+0x764>
ffff00000000a5d8:	b9402fa0 	ldr	w0, [x29,#44]
ffff00000000a5dc:	7100041f 	cmp	w0, #0x1
ffff00000000a5e0:	54000080 	b.eq	ffff00000000a5f0 <sdSetFilePointer+0x7c>
ffff00000000a5e4:	7100081f 	cmp	w0, #0x2
ffff00000000a5e8:	54000200 	b.eq	ffff00000000a628 <sdSetFilePointer+0xb4>
ffff00000000a5ec:	1400001d 	b	ffff00000000a660 <sdSetFilePointer+0xec>
ffff00000000a5f0:	b9403fa0 	ldr	w0, [x29,#60]
ffff00000000a5f4:	51000402 	sub	w2, w0, #0x1
ffff00000000a5f8:	90000440 	adrp	x0, ffff000000092000 <intSearchRecord+0xb10>
ffff00000000a5fc:	9104c001 	add	x1, x0, #0x130
ffff00000000a600:	2a0203e2 	mov	w2, w2
ffff00000000a604:	d2806380 	mov	x0, #0x31c                 	// #796
ffff00000000a608:	9b007c40 	mul	x0, x2, x0
ffff00000000a60c:	8b000020 	add	x0, x1, x0
ffff00000000a610:	910c5000 	add	x0, x0, #0x314
ffff00000000a614:	b9400000 	ldr	w0, [x0]
ffff00000000a618:	b9403ba1 	ldr	w1, [x29,#56]
ffff00000000a61c:	0b000020 	add	w0, w1, w0
ffff00000000a620:	b9003ba0 	str	w0, [x29,#56]
ffff00000000a624:	1400000f 	b	ffff00000000a660 <sdSetFilePointer+0xec>
ffff00000000a628:	b9403fa0 	ldr	w0, [x29,#60]
ffff00000000a62c:	51000402 	sub	w2, w0, #0x1
ffff00000000a630:	90000440 	adrp	x0, ffff000000092000 <intSearchRecord+0xb10>
ffff00000000a634:	9104c001 	add	x1, x0, #0x130
ffff00000000a638:	2a0203e2 	mov	w2, w2
ffff00000000a63c:	d2806380 	mov	x0, #0x31c                 	// #796
ffff00000000a640:	9b007c40 	mul	x0, x2, x0
ffff00000000a644:	8b000020 	add	x0, x1, x0
ffff00000000a648:	910c6000 	add	x0, x0, #0x318
ffff00000000a64c:	b9400000 	ldr	w0, [x0]
ffff00000000a650:	b9403ba1 	ldr	w1, [x29,#56]
ffff00000000a654:	0b000020 	add	w0, w1, w0
ffff00000000a658:	b9003ba0 	str	w0, [x29,#56]
ffff00000000a65c:	d503201f 	nop
ffff00000000a660:	b9403fa0 	ldr	w0, [x29,#60]
ffff00000000a664:	51000402 	sub	w2, w0, #0x1
ffff00000000a668:	90000440 	adrp	x0, ffff000000092000 <intSearchRecord+0xb10>
ffff00000000a66c:	9104c001 	add	x1, x0, #0x130
ffff00000000a670:	2a0203e2 	mov	w2, w2
ffff00000000a674:	d2806380 	mov	x0, #0x31c                 	// #796
ffff00000000a678:	9b007c40 	mul	x0, x2, x0
ffff00000000a67c:	8b000020 	add	x0, x1, x0
ffff00000000a680:	910c6000 	add	x0, x0, #0x318
ffff00000000a684:	b9400001 	ldr	w1, [x0]
ffff00000000a688:	b9403ba0 	ldr	w0, [x29,#56]
ffff00000000a68c:	6b00003f 	cmp	w1, w0
ffff00000000a690:	54000062 	b.cs	ffff00000000a69c <sdSetFilePointer+0x128>
ffff00000000a694:	12800000 	mov	w0, #0xffffffff            	// #-1
ffff00000000a698:	14000191 	b	ffff00000000acdc <sdSetFilePointer+0x768>
ffff00000000a69c:	b9403fa0 	ldr	w0, [x29,#60]
ffff00000000a6a0:	51000402 	sub	w2, w0, #0x1
ffff00000000a6a4:	90000440 	adrp	x0, ffff000000092000 <intSearchRecord+0xb10>
ffff00000000a6a8:	9104c001 	add	x1, x0, #0x130
ffff00000000a6ac:	2a0203e2 	mov	w2, w2
ffff00000000a6b0:	d2806380 	mov	x0, #0x31c                 	// #796
ffff00000000a6b4:	9b007c40 	mul	x0, x2, x0
ffff00000000a6b8:	8b000020 	add	x0, x1, x0
ffff00000000a6bc:	910c5000 	add	x0, x0, #0x314
ffff00000000a6c0:	b9400001 	ldr	w1, [x0]
ffff00000000a6c4:	b9403ba0 	ldr	w0, [x29,#56]
ffff00000000a6c8:	6b00003f 	cmp	w1, w0
ffff00000000a6cc:	54000181 	b.ne	ffff00000000a6fc <sdSetFilePointer+0x188>
ffff00000000a6d0:	b9403fa0 	ldr	w0, [x29,#60]
ffff00000000a6d4:	51000402 	sub	w2, w0, #0x1
ffff00000000a6d8:	90000440 	adrp	x0, ffff000000092000 <intSearchRecord+0xb10>
ffff00000000a6dc:	9104c001 	add	x1, x0, #0x130
ffff00000000a6e0:	2a0203e2 	mov	w2, w2
ffff00000000a6e4:	d2806380 	mov	x0, #0x31c                 	// #796
ffff00000000a6e8:	9b007c40 	mul	x0, x2, x0
ffff00000000a6ec:	8b000020 	add	x0, x1, x0
ffff00000000a6f0:	910c5000 	add	x0, x0, #0x314
ffff00000000a6f4:	b9400000 	ldr	w0, [x0]
ffff00000000a6f8:	14000179 	b	ffff00000000acdc <sdSetFilePointer+0x768>
ffff00000000a6fc:	b9403fa0 	ldr	w0, [x29,#60]
ffff00000000a700:	51000403 	sub	w3, w0, #0x1
ffff00000000a704:	b9403fa0 	ldr	w0, [x29,#60]
ffff00000000a708:	51000402 	sub	w2, w0, #0x1
ffff00000000a70c:	90000440 	adrp	x0, ffff000000092000 <intSearchRecord+0xb10>
ffff00000000a710:	9104c001 	add	x1, x0, #0x130
ffff00000000a714:	2a0203e2 	mov	w2, w2
ffff00000000a718:	d2806380 	mov	x0, #0x31c                 	// #796
ffff00000000a71c:	9b007c40 	mul	x0, x2, x0
ffff00000000a720:	8b000020 	add	x0, x1, x0
ffff00000000a724:	910c4000 	add	x0, x0, #0x310
ffff00000000a728:	b9400001 	ldr	w1, [x0]
ffff00000000a72c:	90000440 	adrp	x0, ffff000000092000 <intSearchRecord+0xb10>
ffff00000000a730:	9104c002 	add	x2, x0, #0x130
ffff00000000a734:	2a0303e3 	mov	w3, w3
ffff00000000a738:	d2806380 	mov	x0, #0x31c                 	// #796
ffff00000000a73c:	9b007c60 	mul	x0, x3, x0
ffff00000000a740:	8b000040 	add	x0, x2, x0
ffff00000000a744:	b9000001 	str	w1, [x0]
ffff00000000a748:	b9403fa0 	ldr	w0, [x29,#60]
ffff00000000a74c:	51000413 	sub	w19, w0, #0x1
ffff00000000a750:	b9403fa0 	ldr	w0, [x29,#60]
ffff00000000a754:	51000402 	sub	w2, w0, #0x1
ffff00000000a758:	90000440 	adrp	x0, ffff000000092000 <intSearchRecord+0xb10>
ffff00000000a75c:	9104c001 	add	x1, x0, #0x130
ffff00000000a760:	2a0203e2 	mov	w2, w2
ffff00000000a764:	d2806380 	mov	x0, #0x31c                 	// #796
ffff00000000a768:	9b007c40 	mul	x0, x2, x0
ffff00000000a76c:	8b000020 	add	x0, x1, x0
ffff00000000a770:	b9400003 	ldr	w3, [x0]
ffff00000000a774:	f0000420 	adrp	x0, ffff000000091000 <mem_map+0x7d3d0>
ffff00000000a778:	9111e000 	add	x0, x0, #0x478
ffff00000000a77c:	b9405401 	ldr	w1, [x0,#84]
ffff00000000a780:	f0000420 	adrp	x0, ffff000000091000 <mem_map+0x7d3d0>
ffff00000000a784:	9111e000 	add	x0, x0, #0x478
ffff00000000a788:	b9405c00 	ldr	w0, [x0,#92]
ffff00000000a78c:	2a0003e2 	mov	w2, w0
ffff00000000a790:	2a0303e0 	mov	w0, w3
ffff00000000a794:	97fff744 	bl	ffff0000000084a4 <getFirstSector>
ffff00000000a798:	2a0003e3 	mov	w3, w0
ffff00000000a79c:	90000440 	adrp	x0, ffff000000092000 <intSearchRecord+0xb10>
ffff00000000a7a0:	9104c001 	add	x1, x0, #0x130
ffff00000000a7a4:	2a1303e2 	mov	w2, w19
ffff00000000a7a8:	d2806380 	mov	x0, #0x31c                 	// #796
ffff00000000a7ac:	9b007c40 	mul	x0, x2, x0
ffff00000000a7b0:	8b000020 	add	x0, x1, x0
ffff00000000a7b4:	91001000 	add	x0, x0, #0x4
ffff00000000a7b8:	b9000003 	str	w3, [x0]
ffff00000000a7bc:	b9403fa0 	ldr	w0, [x29,#60]
ffff00000000a7c0:	51000402 	sub	w2, w0, #0x1
ffff00000000a7c4:	90000440 	adrp	x0, ffff000000092000 <intSearchRecord+0xb10>
ffff00000000a7c8:	9104c001 	add	x1, x0, #0x130
ffff00000000a7cc:	2a0203e2 	mov	w2, w2
ffff00000000a7d0:	d2806380 	mov	x0, #0x31c                 	// #796
ffff00000000a7d4:	9b007c40 	mul	x0, x2, x0
ffff00000000a7d8:	8b000020 	add	x0, x1, x0
ffff00000000a7dc:	91002000 	add	x0, x0, #0x8
ffff00000000a7e0:	b900001f 	str	wzr, [x0]
ffff00000000a7e4:	b9403fa0 	ldr	w0, [x29,#60]
ffff00000000a7e8:	51000402 	sub	w2, w0, #0x1
ffff00000000a7ec:	90000440 	adrp	x0, ffff000000092000 <intSearchRecord+0xb10>
ffff00000000a7f0:	9104c001 	add	x1, x0, #0x130
ffff00000000a7f4:	2a0203e2 	mov	w2, w2
ffff00000000a7f8:	d2806380 	mov	x0, #0x31c                 	// #796
ffff00000000a7fc:	9b007c40 	mul	x0, x2, x0
ffff00000000a800:	8b000020 	add	x0, x1, x0
ffff00000000a804:	91003000 	add	x0, x0, #0xc
ffff00000000a808:	b900001f 	str	wzr, [x0]
ffff00000000a80c:	b9403fa0 	ldr	w0, [x29,#60]
ffff00000000a810:	51000402 	sub	w2, w0, #0x1
ffff00000000a814:	90000440 	adrp	x0, ffff000000092000 <intSearchRecord+0xb10>
ffff00000000a818:	9104c001 	add	x1, x0, #0x130
ffff00000000a81c:	2a0203e2 	mov	w2, w2
ffff00000000a820:	d2806380 	mov	x0, #0x31c                 	// #796
ffff00000000a824:	9b007c40 	mul	x0, x2, x0
ffff00000000a828:	8b000020 	add	x0, x1, x0
ffff00000000a82c:	910c5000 	add	x0, x0, #0x314
ffff00000000a830:	b900001f 	str	wzr, [x0]
ffff00000000a834:	b9403fa0 	ldr	w0, [x29,#60]
ffff00000000a838:	51000402 	sub	w2, w0, #0x1
ffff00000000a83c:	90000440 	adrp	x0, ffff000000092000 <intSearchRecord+0xb10>
ffff00000000a840:	9104c001 	add	x1, x0, #0x130
ffff00000000a844:	2a0203e2 	mov	w2, w2
ffff00000000a848:	d2806380 	mov	x0, #0x31c                 	// #796
ffff00000000a84c:	9b007c40 	mul	x0, x2, x0
ffff00000000a850:	8b000020 	add	x0, x1, x0
ffff00000000a854:	91001000 	add	x0, x0, #0x4
ffff00000000a858:	b9400004 	ldr	w4, [x0]
ffff00000000a85c:	b9403fa0 	ldr	w0, [x29,#60]
ffff00000000a860:	51000400 	sub	w0, w0, #0x1
ffff00000000a864:	2a0003e1 	mov	w1, w0
ffff00000000a868:	d2806380 	mov	x0, #0x31c                 	// #796
ffff00000000a86c:	9b007c20 	mul	x0, x1, x0
ffff00000000a870:	91004001 	add	x1, x0, #0x10
ffff00000000a874:	90000440 	adrp	x0, ffff000000092000 <intSearchRecord+0xb10>
ffff00000000a878:	9104c000 	add	x0, x0, #0x130
ffff00000000a87c:	8b000020 	add	x0, x1, x0
ffff00000000a880:	52800003 	mov	w3, #0x0                   	// #0
ffff00000000a884:	aa0003e2 	mov	x2, x0
ffff00000000a888:	52800021 	mov	w1, #0x1                   	// #1
ffff00000000a88c:	2a0403e0 	mov	w0, w4
ffff00000000a890:	97fff52d 	bl	ffff000000007d44 <sdTransferBlocks>
ffff00000000a894:	7100001f 	cmp	w0, #0x0
ffff00000000a898:	54001b80 	b.eq	ffff00000000ac08 <sdSetFilePointer+0x694>
ffff00000000a89c:	12800000 	mov	w0, #0xffffffff            	// #-1
ffff00000000a8a0:	1400010f 	b	ffff00000000acdc <sdSetFilePointer+0x768>
ffff00000000a8a4:	b9403fa0 	ldr	w0, [x29,#60]
ffff00000000a8a8:	51000403 	sub	w3, w0, #0x1
ffff00000000a8ac:	90000440 	adrp	x0, ffff000000092000 <intSearchRecord+0xb10>
ffff00000000a8b0:	9104c001 	add	x1, x0, #0x130
ffff00000000a8b4:	2a0303e2 	mov	w2, w3
ffff00000000a8b8:	d2806380 	mov	x0, #0x31c                 	// #796
ffff00000000a8bc:	9b007c40 	mul	x0, x2, x0
ffff00000000a8c0:	8b000020 	add	x0, x1, x0
ffff00000000a8c4:	91002000 	add	x0, x0, #0x8
ffff00000000a8c8:	b9400000 	ldr	w0, [x0]
ffff00000000a8cc:	11000401 	add	w1, w0, #0x1
ffff00000000a8d0:	90000440 	adrp	x0, ffff000000092000 <intSearchRecord+0xb10>
ffff00000000a8d4:	9104c002 	add	x2, x0, #0x130
ffff00000000a8d8:	2a0303e3 	mov	w3, w3
ffff00000000a8dc:	d2806380 	mov	x0, #0x31c                 	// #796
ffff00000000a8e0:	9b007c60 	mul	x0, x3, x0
ffff00000000a8e4:	8b000040 	add	x0, x2, x0
ffff00000000a8e8:	91002000 	add	x0, x0, #0x8
ffff00000000a8ec:	b9000001 	str	w1, [x0]
ffff00000000a8f0:	b9403fa0 	ldr	w0, [x29,#60]
ffff00000000a8f4:	51000402 	sub	w2, w0, #0x1
ffff00000000a8f8:	90000440 	adrp	x0, ffff000000092000 <intSearchRecord+0xb10>
ffff00000000a8fc:	9104c001 	add	x1, x0, #0x130
ffff00000000a900:	2a0203e2 	mov	w2, w2
ffff00000000a904:	d2806380 	mov	x0, #0x31c                 	// #796
ffff00000000a908:	9b007c40 	mul	x0, x2, x0
ffff00000000a90c:	8b000020 	add	x0, x1, x0
ffff00000000a910:	91002000 	add	x0, x0, #0x8
ffff00000000a914:	b9400001 	ldr	w1, [x0]
ffff00000000a918:	f0000420 	adrp	x0, ffff000000091000 <mem_map+0x7d3d0>
ffff00000000a91c:	9111e000 	add	x0, x0, #0x478
ffff00000000a920:	b9405400 	ldr	w0, [x0,#84]
ffff00000000a924:	6b00003f 	cmp	w1, w0
ffff00000000a928:	54000642 	b.cs	ffff00000000a9f0 <sdSetFilePointer+0x47c>
ffff00000000a92c:	b9403fa0 	ldr	w0, [x29,#60]
ffff00000000a930:	51000402 	sub	w2, w0, #0x1
ffff00000000a934:	90000440 	adrp	x0, ffff000000092000 <intSearchRecord+0xb10>
ffff00000000a938:	9104c001 	add	x1, x0, #0x130
ffff00000000a93c:	2a0203e2 	mov	w2, w2
ffff00000000a940:	d2806380 	mov	x0, #0x31c                 	// #796
ffff00000000a944:	9b007c40 	mul	x0, x2, x0
ffff00000000a948:	8b000020 	add	x0, x1, x0
ffff00000000a94c:	91003000 	add	x0, x0, #0xc
ffff00000000a950:	b900001f 	str	wzr, [x0]
ffff00000000a954:	b9403fa0 	ldr	w0, [x29,#60]
ffff00000000a958:	51000402 	sub	w2, w0, #0x1
ffff00000000a95c:	90000440 	adrp	x0, ffff000000092000 <intSearchRecord+0xb10>
ffff00000000a960:	9104c001 	add	x1, x0, #0x130
ffff00000000a964:	2a0203e2 	mov	w2, w2
ffff00000000a968:	d2806380 	mov	x0, #0x31c                 	// #796
ffff00000000a96c:	9b007c40 	mul	x0, x2, x0
ffff00000000a970:	8b000020 	add	x0, x1, x0
ffff00000000a974:	91001000 	add	x0, x0, #0x4
ffff00000000a978:	b9400001 	ldr	w1, [x0]
ffff00000000a97c:	b9403fa0 	ldr	w0, [x29,#60]
ffff00000000a980:	51000403 	sub	w3, w0, #0x1
ffff00000000a984:	90000440 	adrp	x0, ffff000000092000 <intSearchRecord+0xb10>
ffff00000000a988:	9104c002 	add	x2, x0, #0x130
ffff00000000a98c:	2a0303e3 	mov	w3, w3
ffff00000000a990:	d2806380 	mov	x0, #0x31c                 	// #796
ffff00000000a994:	9b007c60 	mul	x0, x3, x0
ffff00000000a998:	8b000040 	add	x0, x2, x0
ffff00000000a99c:	91002000 	add	x0, x0, #0x8
ffff00000000a9a0:	b9400000 	ldr	w0, [x0]
ffff00000000a9a4:	0b000024 	add	w4, w1, w0
ffff00000000a9a8:	b9403fa0 	ldr	w0, [x29,#60]
ffff00000000a9ac:	51000400 	sub	w0, w0, #0x1
ffff00000000a9b0:	2a0003e1 	mov	w1, w0
ffff00000000a9b4:	d2806380 	mov	x0, #0x31c                 	// #796
ffff00000000a9b8:	9b007c20 	mul	x0, x1, x0
ffff00000000a9bc:	91004001 	add	x1, x0, #0x10
ffff00000000a9c0:	90000440 	adrp	x0, ffff000000092000 <intSearchRecord+0xb10>
ffff00000000a9c4:	9104c000 	add	x0, x0, #0x130
ffff00000000a9c8:	8b000020 	add	x0, x1, x0
ffff00000000a9cc:	52800003 	mov	w3, #0x0                   	// #0
ffff00000000a9d0:	aa0003e2 	mov	x2, x0
ffff00000000a9d4:	52800021 	mov	w1, #0x1                   	// #1
ffff00000000a9d8:	2a0403e0 	mov	w0, w4
ffff00000000a9dc:	97fff4da 	bl	ffff000000007d44 <sdTransferBlocks>
ffff00000000a9e0:	7100001f 	cmp	w0, #0x0
ffff00000000a9e4:	54000e20 	b.eq	ffff00000000aba8 <sdSetFilePointer+0x634>
ffff00000000a9e8:	12800000 	mov	w0, #0xffffffff            	// #-1
ffff00000000a9ec:	140000bc 	b	ffff00000000acdc <sdSetFilePointer+0x768>
ffff00000000a9f0:	b9403fa0 	ldr	w0, [x29,#60]
ffff00000000a9f4:	51000413 	sub	w19, w0, #0x1
ffff00000000a9f8:	b9403fa0 	ldr	w0, [x29,#60]
ffff00000000a9fc:	51000402 	sub	w2, w0, #0x1
ffff00000000aa00:	90000440 	adrp	x0, ffff000000092000 <intSearchRecord+0xb10>
ffff00000000aa04:	9104c001 	add	x1, x0, #0x130
ffff00000000aa08:	2a0203e2 	mov	w2, w2
ffff00000000aa0c:	d2806380 	mov	x0, #0x31c                 	// #796
ffff00000000aa10:	9b007c40 	mul	x0, x2, x0
ffff00000000aa14:	8b000020 	add	x0, x1, x0
ffff00000000aa18:	b9400000 	ldr	w0, [x0]
ffff00000000aa1c:	52800002 	mov	w2, #0x0                   	// #0
ffff00000000aa20:	52800001 	mov	w1, #0x0                   	// #0
ffff00000000aa24:	97fff6ac 	bl	ffff0000000084d4 <getSetNextCluster>
ffff00000000aa28:	2a0003e3 	mov	w3, w0
ffff00000000aa2c:	90000440 	adrp	x0, ffff000000092000 <intSearchRecord+0xb10>
ffff00000000aa30:	9104c001 	add	x1, x0, #0x130
ffff00000000aa34:	2a1303e2 	mov	w2, w19
ffff00000000aa38:	d2806380 	mov	x0, #0x31c                 	// #796
ffff00000000aa3c:	9b007c40 	mul	x0, x2, x0
ffff00000000aa40:	8b000020 	add	x0, x1, x0
ffff00000000aa44:	b9000003 	str	w3, [x0]
ffff00000000aa48:	b9403fa0 	ldr	w0, [x29,#60]
ffff00000000aa4c:	51000413 	sub	w19, w0, #0x1
ffff00000000aa50:	b9403fa0 	ldr	w0, [x29,#60]
ffff00000000aa54:	51000402 	sub	w2, w0, #0x1
ffff00000000aa58:	90000440 	adrp	x0, ffff000000092000 <intSearchRecord+0xb10>
ffff00000000aa5c:	9104c001 	add	x1, x0, #0x130
ffff00000000aa60:	2a0203e2 	mov	w2, w2
ffff00000000aa64:	d2806380 	mov	x0, #0x31c                 	// #796
ffff00000000aa68:	9b007c40 	mul	x0, x2, x0
ffff00000000aa6c:	8b000020 	add	x0, x1, x0
ffff00000000aa70:	b9400003 	ldr	w3, [x0]
ffff00000000aa74:	f0000420 	adrp	x0, ffff000000091000 <mem_map+0x7d3d0>
ffff00000000aa78:	9111e000 	add	x0, x0, #0x478
ffff00000000aa7c:	b9405401 	ldr	w1, [x0,#84]
ffff00000000aa80:	f0000420 	adrp	x0, ffff000000091000 <mem_map+0x7d3d0>
ffff00000000aa84:	9111e000 	add	x0, x0, #0x478
ffff00000000aa88:	b9405c00 	ldr	w0, [x0,#92]
ffff00000000aa8c:	2a0003e2 	mov	w2, w0
ffff00000000aa90:	2a0303e0 	mov	w0, w3
ffff00000000aa94:	97fff684 	bl	ffff0000000084a4 <getFirstSector>
ffff00000000aa98:	2a0003e3 	mov	w3, w0
ffff00000000aa9c:	90000440 	adrp	x0, ffff000000092000 <intSearchRecord+0xb10>
ffff00000000aaa0:	9104c001 	add	x1, x0, #0x130
ffff00000000aaa4:	2a1303e2 	mov	w2, w19
ffff00000000aaa8:	d2806380 	mov	x0, #0x31c                 	// #796
ffff00000000aaac:	9b007c40 	mul	x0, x2, x0
ffff00000000aab0:	8b000020 	add	x0, x1, x0
ffff00000000aab4:	91001000 	add	x0, x0, #0x4
ffff00000000aab8:	b9000003 	str	w3, [x0]
ffff00000000aabc:	b9403fa0 	ldr	w0, [x29,#60]
ffff00000000aac0:	51000402 	sub	w2, w0, #0x1
ffff00000000aac4:	90000440 	adrp	x0, ffff000000092000 <intSearchRecord+0xb10>
ffff00000000aac8:	9104c001 	add	x1, x0, #0x130
ffff00000000aacc:	2a0203e2 	mov	w2, w2
ffff00000000aad0:	d2806380 	mov	x0, #0x31c                 	// #796
ffff00000000aad4:	9b007c40 	mul	x0, x2, x0
ffff00000000aad8:	8b000020 	add	x0, x1, x0
ffff00000000aadc:	91002000 	add	x0, x0, #0x8
ffff00000000aae0:	b900001f 	str	wzr, [x0]
ffff00000000aae4:	b9403fa0 	ldr	w0, [x29,#60]
ffff00000000aae8:	51000402 	sub	w2, w0, #0x1
ffff00000000aaec:	90000440 	adrp	x0, ffff000000092000 <intSearchRecord+0xb10>
ffff00000000aaf0:	9104c001 	add	x1, x0, #0x130
ffff00000000aaf4:	2a0203e2 	mov	w2, w2
ffff00000000aaf8:	d2806380 	mov	x0, #0x31c                 	// #796
ffff00000000aafc:	9b007c40 	mul	x0, x2, x0
ffff00000000ab00:	8b000020 	add	x0, x1, x0
ffff00000000ab04:	91003000 	add	x0, x0, #0xc
ffff00000000ab08:	b900001f 	str	wzr, [x0]
ffff00000000ab0c:	b9403fa0 	ldr	w0, [x29,#60]
ffff00000000ab10:	51000402 	sub	w2, w0, #0x1
ffff00000000ab14:	90000440 	adrp	x0, ffff000000092000 <intSearchRecord+0xb10>
ffff00000000ab18:	9104c001 	add	x1, x0, #0x130
ffff00000000ab1c:	2a0203e2 	mov	w2, w2
ffff00000000ab20:	d2806380 	mov	x0, #0x31c                 	// #796
ffff00000000ab24:	9b007c40 	mul	x0, x2, x0
ffff00000000ab28:	8b000020 	add	x0, x1, x0
ffff00000000ab2c:	91001000 	add	x0, x0, #0x4
ffff00000000ab30:	b9400001 	ldr	w1, [x0]
ffff00000000ab34:	b9403fa0 	ldr	w0, [x29,#60]
ffff00000000ab38:	51000403 	sub	w3, w0, #0x1
ffff00000000ab3c:	90000440 	adrp	x0, ffff000000092000 <intSearchRecord+0xb10>
ffff00000000ab40:	9104c002 	add	x2, x0, #0x130
ffff00000000ab44:	2a0303e3 	mov	w3, w3
ffff00000000ab48:	d2806380 	mov	x0, #0x31c                 	// #796
ffff00000000ab4c:	9b007c60 	mul	x0, x3, x0
ffff00000000ab50:	8b000040 	add	x0, x2, x0
ffff00000000ab54:	91002000 	add	x0, x0, #0x8
ffff00000000ab58:	b9400000 	ldr	w0, [x0]
ffff00000000ab5c:	0b000024 	add	w4, w1, w0
ffff00000000ab60:	b9403fa0 	ldr	w0, [x29,#60]
ffff00000000ab64:	51000400 	sub	w0, w0, #0x1
ffff00000000ab68:	2a0003e1 	mov	w1, w0
ffff00000000ab6c:	d2806380 	mov	x0, #0x31c                 	// #796
ffff00000000ab70:	9b007c20 	mul	x0, x1, x0
ffff00000000ab74:	91004001 	add	x1, x0, #0x10
ffff00000000ab78:	90000440 	adrp	x0, ffff000000092000 <intSearchRecord+0xb10>
ffff00000000ab7c:	9104c000 	add	x0, x0, #0x130
ffff00000000ab80:	8b000020 	add	x0, x1, x0
ffff00000000ab84:	52800003 	mov	w3, #0x0                   	// #0
ffff00000000ab88:	aa0003e2 	mov	x2, x0
ffff00000000ab8c:	52800021 	mov	w1, #0x1                   	// #1
ffff00000000ab90:	2a0403e0 	mov	w0, w4
ffff00000000ab94:	97fff46c 	bl	ffff000000007d44 <sdTransferBlocks>
ffff00000000ab98:	7100001f 	cmp	w0, #0x0
ffff00000000ab9c:	54000060 	b.eq	ffff00000000aba8 <sdSetFilePointer+0x634>
ffff00000000aba0:	12800000 	mov	w0, #0xffffffff            	// #-1
ffff00000000aba4:	1400004e 	b	ffff00000000acdc <sdSetFilePointer+0x768>
ffff00000000aba8:	b9403ba0 	ldr	w0, [x29,#56]
ffff00000000abac:	51080000 	sub	w0, w0, #0x200
ffff00000000abb0:	b9003ba0 	str	w0, [x29,#56]
ffff00000000abb4:	b9403fa0 	ldr	w0, [x29,#60]
ffff00000000abb8:	51000403 	sub	w3, w0, #0x1
ffff00000000abbc:	b9403fa0 	ldr	w0, [x29,#60]
ffff00000000abc0:	51000402 	sub	w2, w0, #0x1
ffff00000000abc4:	90000440 	adrp	x0, ffff000000092000 <intSearchRecord+0xb10>
ffff00000000abc8:	9104c001 	add	x1, x0, #0x130
ffff00000000abcc:	2a0203e2 	mov	w2, w2
ffff00000000abd0:	d2806380 	mov	x0, #0x31c                 	// #796
ffff00000000abd4:	9b007c40 	mul	x0, x2, x0
ffff00000000abd8:	8b000020 	add	x0, x1, x0
ffff00000000abdc:	910c5000 	add	x0, x0, #0x314
ffff00000000abe0:	b9400000 	ldr	w0, [x0]
ffff00000000abe4:	11080001 	add	w1, w0, #0x200
ffff00000000abe8:	90000440 	adrp	x0, ffff000000092000 <intSearchRecord+0xb10>
ffff00000000abec:	9104c002 	add	x2, x0, #0x130
ffff00000000abf0:	2a0303e3 	mov	w3, w3
ffff00000000abf4:	d2806380 	mov	x0, #0x31c                 	// #796
ffff00000000abf8:	9b007c60 	mul	x0, x3, x0
ffff00000000abfc:	8b000040 	add	x0, x2, x0
ffff00000000ac00:	910c5000 	add	x0, x0, #0x314
ffff00000000ac04:	b9000001 	str	w1, [x0]
ffff00000000ac08:	b9403ba0 	ldr	w0, [x29,#56]
ffff00000000ac0c:	7108001f 	cmp	w0, #0x200
ffff00000000ac10:	54ffe4a8 	b.hi	ffff00000000a8a4 <sdSetFilePointer+0x330>
ffff00000000ac14:	b9403fa0 	ldr	w0, [x29,#60]
ffff00000000ac18:	51000402 	sub	w2, w0, #0x1
ffff00000000ac1c:	90000440 	adrp	x0, ffff000000092000 <intSearchRecord+0xb10>
ffff00000000ac20:	9104c001 	add	x1, x0, #0x130
ffff00000000ac24:	2a0203e2 	mov	w2, w2
ffff00000000ac28:	d2806380 	mov	x0, #0x31c                 	// #796
ffff00000000ac2c:	9b007c40 	mul	x0, x2, x0
ffff00000000ac30:	8b000020 	add	x0, x1, x0
ffff00000000ac34:	91003000 	add	x0, x0, #0xc
ffff00000000ac38:	b9403ba1 	ldr	w1, [x29,#56]
ffff00000000ac3c:	b9000001 	str	w1, [x0]
ffff00000000ac40:	b9403fa0 	ldr	w0, [x29,#60]
ffff00000000ac44:	51000403 	sub	w3, w0, #0x1
ffff00000000ac48:	b9403fa0 	ldr	w0, [x29,#60]
ffff00000000ac4c:	51000402 	sub	w2, w0, #0x1
ffff00000000ac50:	90000440 	adrp	x0, ffff000000092000 <intSearchRecord+0xb10>
ffff00000000ac54:	9104c001 	add	x1, x0, #0x130
ffff00000000ac58:	2a0203e2 	mov	w2, w2
ffff00000000ac5c:	d2806380 	mov	x0, #0x31c                 	// #796
ffff00000000ac60:	9b007c40 	mul	x0, x2, x0
ffff00000000ac64:	8b000020 	add	x0, x1, x0
ffff00000000ac68:	910c5000 	add	x0, x0, #0x314
ffff00000000ac6c:	b9400001 	ldr	w1, [x0]
ffff00000000ac70:	b9403ba0 	ldr	w0, [x29,#56]
ffff00000000ac74:	0b000021 	add	w1, w1, w0
ffff00000000ac78:	90000440 	adrp	x0, ffff000000092000 <intSearchRecord+0xb10>
ffff00000000ac7c:	9104c002 	add	x2, x0, #0x130
ffff00000000ac80:	2a0303e3 	mov	w3, w3
ffff00000000ac84:	d2806380 	mov	x0, #0x31c                 	// #796
ffff00000000ac88:	9b007c60 	mul	x0, x3, x0
ffff00000000ac8c:	8b000040 	add	x0, x2, x0
ffff00000000ac90:	910c5000 	add	x0, x0, #0x314
ffff00000000ac94:	b9000001 	str	w1, [x0]
ffff00000000ac98:	f9401ba0 	ldr	x0, [x29,#48]
ffff00000000ac9c:	f100001f 	cmp	x0, #0x0
ffff00000000aca0:	54000060 	b.eq	ffff00000000acac <sdSetFilePointer+0x738>
ffff00000000aca4:	f9401ba0 	ldr	x0, [x29,#48]
ffff00000000aca8:	b900001f 	str	wzr, [x0]
ffff00000000acac:	b9403fa0 	ldr	w0, [x29,#60]
ffff00000000acb0:	51000402 	sub	w2, w0, #0x1
ffff00000000acb4:	90000440 	adrp	x0, ffff000000092000 <intSearchRecord+0xb10>
ffff00000000acb8:	9104c001 	add	x1, x0, #0x130
ffff00000000acbc:	2a0203e2 	mov	w2, w2
ffff00000000acc0:	d2806380 	mov	x0, #0x31c                 	// #796
ffff00000000acc4:	9b007c40 	mul	x0, x2, x0
ffff00000000acc8:	8b000020 	add	x0, x1, x0
ffff00000000accc:	910c5000 	add	x0, x0, #0x314
ffff00000000acd0:	b9400000 	ldr	w0, [x0]
ffff00000000acd4:	14000002 	b	ffff00000000acdc <sdSetFilePointer+0x768>
ffff00000000acd8:	12800000 	mov	w0, #0xffffffff            	// #-1
ffff00000000acdc:	f9400bf3 	ldr	x19, [sp,#16]
ffff00000000ace0:	a8c47bfd 	ldp	x29, x30, [sp],#64
ffff00000000ace4:	d65f03c0 	ret

ffff00000000ace8 <sdGetFileSize>:
ffff00000000ace8:	d10043ff 	sub	sp, sp, #0x10
ffff00000000acec:	b9000fe0 	str	w0, [sp,#12]
ffff00000000acf0:	f90003e1 	str	x1, [sp]
ffff00000000acf4:	b9400fe0 	ldr	w0, [sp,#12]
ffff00000000acf8:	7100001f 	cmp	w0, #0x0
ffff00000000acfc:	54000360 	b.eq	ffff00000000ad68 <sdGetFileSize+0x80>
ffff00000000ad00:	b9400fe0 	ldr	w0, [sp,#12]
ffff00000000ad04:	7100201f 	cmp	w0, #0x8
ffff00000000ad08:	54000308 	b.hi	ffff00000000ad68 <sdGetFileSize+0x80>
ffff00000000ad0c:	b9400fe0 	ldr	w0, [sp,#12]
ffff00000000ad10:	51000402 	sub	w2, w0, #0x1
ffff00000000ad14:	90000440 	adrp	x0, ffff000000092000 <intSearchRecord+0xb10>
ffff00000000ad18:	9104c001 	add	x1, x0, #0x130
ffff00000000ad1c:	2a0203e2 	mov	w2, w2
ffff00000000ad20:	d2806380 	mov	x0, #0x31c                 	// #796
ffff00000000ad24:	9b007c40 	mul	x0, x2, x0
ffff00000000ad28:	8b000020 	add	x0, x1, x0
ffff00000000ad2c:	91001000 	add	x0, x0, #0x4
ffff00000000ad30:	b9400000 	ldr	w0, [x0]
ffff00000000ad34:	7100001f 	cmp	w0, #0x0
ffff00000000ad38:	54000180 	b.eq	ffff00000000ad68 <sdGetFileSize+0x80>
ffff00000000ad3c:	b9400fe0 	ldr	w0, [sp,#12]
ffff00000000ad40:	51000402 	sub	w2, w0, #0x1
ffff00000000ad44:	90000440 	adrp	x0, ffff000000092000 <intSearchRecord+0xb10>
ffff00000000ad48:	9104c001 	add	x1, x0, #0x130
ffff00000000ad4c:	2a0203e2 	mov	w2, w2
ffff00000000ad50:	d2806380 	mov	x0, #0x31c                 	// #796
ffff00000000ad54:	9b007c40 	mul	x0, x2, x0
ffff00000000ad58:	8b000020 	add	x0, x1, x0
ffff00000000ad5c:	910c6000 	add	x0, x0, #0x318
ffff00000000ad60:	b9400000 	ldr	w0, [x0]
ffff00000000ad64:	14000002 	b	ffff00000000ad6c <sdGetFileSize+0x84>
ffff00000000ad68:	52800000 	mov	w0, #0x0                   	// #0
ffff00000000ad6c:	910043ff 	add	sp, sp, #0x10
ffff00000000ad70:	d65f03c0 	ret

ffff00000000ad74 <sdInitCard>:
ffff00000000ad74:	a9bc7bfd 	stp	x29, x30, [sp,#-64]!
ffff00000000ad78:	910003fd 	mov	x29, sp
ffff00000000ad7c:	f90017a0 	str	x0, [x29,#40]
ffff00000000ad80:	f90013a1 	str	x1, [x29,#32]
ffff00000000ad84:	39007fa2 	strb	w2, [x29,#31]
ffff00000000ad88:	b9003fbf 	str	wzr, [x29,#60]
ffff00000000ad8c:	f0000420 	adrp	x0, ffff000000091000 <mem_map+0x7d3d0>
ffff00000000ad90:	9111c000 	add	x0, x0, #0x470
ffff00000000ad94:	f94013a1 	ldr	x1, [x29,#32]
ffff00000000ad98:	f9000001 	str	x1, [x0]
ffff00000000ad9c:	d2801f80 	mov	x0, #0xfc                  	// #252
ffff00000000ada0:	f2a7e600 	movk	x0, #0x3f30, lsl #16
ffff00000000ada4:	f2ffffe0 	movk	x0, #0xffff, lsl #48
ffff00000000ada8:	b9400000 	ldr	w0, [x0]
ffff00000000adac:	12101c00 	and	w0, w0, #0xff0000
ffff00000000adb0:	53107c00 	lsr	w0, w0, #16
ffff00000000adb4:	2a0003e1 	mov	w1, w0
ffff00000000adb8:	d0000480 	adrp	x0, ffff00000009c000 <task+0x18>
ffff00000000adbc:	91226000 	add	x0, x0, #0x898
ffff00000000adc0:	f9000001 	str	x1, [x0]
ffff00000000adc4:	97fff2f1 	bl	ffff000000007988 <sdResetCard>
ffff00000000adc8:	b9003ba0 	str	w0, [x29,#56]
ffff00000000adcc:	b9403ba0 	ldr	w0, [x29,#56]
ffff00000000add0:	7100001f 	cmp	w0, #0x0
ffff00000000add4:	54000060 	b.eq	ffff00000000ade0 <sdInitCard+0x6c>
ffff00000000add8:	b9403ba0 	ldr	w0, [x29,#56]
ffff00000000addc:	140000d9 	b	ffff00000000b140 <sdInitCard+0x3cc>
ffff00000000ade0:	52803541 	mov	w1, #0x1aa                 	// #426
ffff00000000ade4:	528000c0 	mov	w0, #0x6                   	// #6
ffff00000000ade8:	97fff118 	bl	ffff000000007248 <sdSendCommandA>
ffff00000000adec:	b9003ba0 	str	w0, [x29,#56]
ffff00000000adf0:	b9403ba0 	ldr	w0, [x29,#56]
ffff00000000adf4:	7100001f 	cmp	w0, #0x0
ffff00000000adf8:	54000481 	b.ne	ffff00000000ae88 <sdInitCard+0x114>
ffff00000000adfc:	52900000 	mov	w0, #0x8000                	// #32768
ffff00000000ae00:	72aa1fe0 	movk	w0, #0x50ff, lsl #16
ffff00000000ae04:	97fff36f 	bl	ffff000000007bc0 <sdAppSendOpCond>
ffff00000000ae08:	b9003ba0 	str	w0, [x29,#56]
ffff00000000ae0c:	b9403ba0 	ldr	w0, [x29,#56]
ffff00000000ae10:	7100001f 	cmp	w0, #0x0
ffff00000000ae14:	54000080 	b.eq	ffff00000000ae24 <sdInitCard+0xb0>
ffff00000000ae18:	b9403ba0 	ldr	w0, [x29,#56]
ffff00000000ae1c:	97ffecd9 	bl	ffff000000006180 <sdDebugResponse>
ffff00000000ae20:	140000c8 	b	ffff00000000b140 <sdInitCard+0x3cc>
ffff00000000ae24:	f0000420 	adrp	x0, ffff000000091000 <mem_map+0x7d3d0>
ffff00000000ae28:	9111e000 	add	x0, x0, #0x478
ffff00000000ae2c:	b9403c00 	ldr	w0, [x0,#60]
ffff00000000ae30:	12020000 	and	w0, w0, #0x40000000
ffff00000000ae34:	7100001f 	cmp	w0, #0x0
ffff00000000ae38:	54000060 	b.eq	ffff00000000ae44 <sdInitCard+0xd0>
ffff00000000ae3c:	52800020 	mov	w0, #0x1                   	// #1
ffff00000000ae40:	b9003fa0 	str	w0, [x29,#60]
ffff00000000ae44:	f0000420 	adrp	x0, ffff000000091000 <mem_map+0x7d3d0>
ffff00000000ae48:	9111e000 	add	x0, x0, #0x478
ffff00000000ae4c:	39410c00 	ldrb	w0, [x0,#67]
ffff00000000ae50:	121a0000 	and	w0, w0, #0x40
ffff00000000ae54:	53001c00 	uxtb	w0, w0
ffff00000000ae58:	7100001f 	cmp	w0, #0x0
ffff00000000ae5c:	540000c0 	b.eq	ffff00000000ae74 <sdInitCard+0x100>
ffff00000000ae60:	f0000420 	adrp	x0, ffff000000091000 <mem_map+0x7d3d0>
ffff00000000ae64:	9111e000 	add	x0, x0, #0x478
ffff00000000ae68:	52800081 	mov	w1, #0x4                   	// #4
ffff00000000ae6c:	b9003801 	str	w1, [x0,#56]
ffff00000000ae70:	14000027 	b	ffff00000000af0c <sdInitCard+0x198>
ffff00000000ae74:	f0000420 	adrp	x0, ffff000000091000 <mem_map+0x7d3d0>
ffff00000000ae78:	9111e000 	add	x0, x0, #0x478
ffff00000000ae7c:	52800061 	mov	w1, #0x3                   	// #3
ffff00000000ae80:	b9003801 	str	w1, [x0,#56]
ffff00000000ae84:	14000022 	b	ffff00000000af0c <sdInitCard+0x198>
ffff00000000ae88:	b9403ba0 	ldr	w0, [x29,#56]
ffff00000000ae8c:	71000c1f 	cmp	w0, #0x3
ffff00000000ae90:	54000061 	b.ne	ffff00000000ae9c <sdInitCard+0x128>
ffff00000000ae94:	b9403ba0 	ldr	w0, [x29,#56]
ffff00000000ae98:	140000aa 	b	ffff00000000b140 <sdInitCard+0x3cc>
ffff00000000ae9c:	d2800480 	mov	x0, #0x24                  	// #36
ffff00000000aea0:	f2a7e600 	movk	x0, #0x3f30, lsl #16
ffff00000000aea4:	f2ffffe0 	movk	x0, #0xffff, lsl #48
ffff00000000aea8:	b9400000 	ldr	w0, [x0]
ffff00000000aeac:	d3400000 	ubfx	x0, x0, #0, #1
ffff00000000aeb0:	53001c00 	uxtb	w0, w0
ffff00000000aeb4:	7100001f 	cmp	w0, #0x0
ffff00000000aeb8:	54000100 	b.eq	ffff00000000aed8 <sdInitCard+0x164>
ffff00000000aebc:	97fff2b3 	bl	ffff000000007988 <sdResetCard>
ffff00000000aec0:	b9003ba0 	str	w0, [x29,#56]
ffff00000000aec4:	b9403ba0 	ldr	w0, [x29,#56]
ffff00000000aec8:	7100001f 	cmp	w0, #0x0
ffff00000000aecc:	54000060 	b.eq	ffff00000000aed8 <sdInitCard+0x164>
ffff00000000aed0:	b9403ba0 	ldr	w0, [x29,#56]
ffff00000000aed4:	1400009b 	b	ffff00000000b140 <sdInitCard+0x3cc>
ffff00000000aed8:	321123e0 	mov	w0, #0xff8000              	// #16744448
ffff00000000aedc:	97fff339 	bl	ffff000000007bc0 <sdAppSendOpCond>
ffff00000000aee0:	b9003ba0 	str	w0, [x29,#56]
ffff00000000aee4:	b9403ba0 	ldr	w0, [x29,#56]
ffff00000000aee8:	7100001f 	cmp	w0, #0x0
ffff00000000aeec:	54000080 	b.eq	ffff00000000aefc <sdInitCard+0x188>
ffff00000000aef0:	b9403ba0 	ldr	w0, [x29,#56]
ffff00000000aef4:	97ffeca3 	bl	ffff000000006180 <sdDebugResponse>
ffff00000000aef8:	14000092 	b	ffff00000000b140 <sdInitCard+0x3cc>
ffff00000000aefc:	f0000420 	adrp	x0, ffff000000091000 <mem_map+0x7d3d0>
ffff00000000af00:	9111e000 	add	x0, x0, #0x478
ffff00000000af04:	52800041 	mov	w1, #0x2                   	// #2
ffff00000000af08:	b9003801 	str	w1, [x0,#56]
ffff00000000af0c:	52800020 	mov	w0, #0x1                   	// #1
ffff00000000af10:	97fff092 	bl	ffff000000007158 <sdSendCommand>
ffff00000000af14:	b9003ba0 	str	w0, [x29,#56]
ffff00000000af18:	b9403ba0 	ldr	w0, [x29,#56]
ffff00000000af1c:	7100001f 	cmp	w0, #0x0
ffff00000000af20:	54000080 	b.eq	ffff00000000af30 <sdInitCard+0x1bc>
ffff00000000af24:	b9403ba0 	ldr	w0, [x29,#56]
ffff00000000af28:	97ffec96 	bl	ffff000000006180 <sdDebugResponse>
ffff00000000af2c:	14000085 	b	ffff00000000b140 <sdInitCard+0x3cc>
ffff00000000af30:	52800040 	mov	w0, #0x2                   	// #2
ffff00000000af34:	97fff089 	bl	ffff000000007158 <sdSendCommand>
ffff00000000af38:	b9003ba0 	str	w0, [x29,#56]
ffff00000000af3c:	b9403ba0 	ldr	w0, [x29,#56]
ffff00000000af40:	7100001f 	cmp	w0, #0x0
ffff00000000af44:	54000080 	b.eq	ffff00000000af54 <sdInitCard+0x1e0>
ffff00000000af48:	b9403ba0 	ldr	w0, [x29,#56]
ffff00000000af4c:	97ffec8d 	bl	ffff000000006180 <sdDebugResponse>
ffff00000000af50:	1400007c 	b	ffff00000000b140 <sdInitCard+0x3cc>
ffff00000000af54:	f0000420 	adrp	x0, ffff000000091000 <mem_map+0x7d3d0>
ffff00000000af58:	9111e000 	add	x0, x0, #0x478
ffff00000000af5c:	b9403c00 	ldr	w0, [x0,#60]
ffff00000000af60:	2a0003e1 	mov	w1, w0
ffff00000000af64:	d0000480 	adrp	x0, ffff00000009c000 <task+0x18>
ffff00000000af68:	91220000 	add	x0, x0, #0x880
ffff00000000af6c:	f9000001 	str	x1, [x0]
ffff00000000af70:	528000e0 	mov	w0, #0x7                   	// #7
ffff00000000af74:	97fff079 	bl	ffff000000007158 <sdSendCommand>
ffff00000000af78:	b9003ba0 	str	w0, [x29,#56]
ffff00000000af7c:	b9403ba0 	ldr	w0, [x29,#56]
ffff00000000af80:	7100001f 	cmp	w0, #0x0
ffff00000000af84:	54000080 	b.eq	ffff00000000af94 <sdInitCard+0x220>
ffff00000000af88:	b9403ba0 	ldr	w0, [x29,#56]
ffff00000000af8c:	97ffec7d 	bl	ffff000000006180 <sdDebugResponse>
ffff00000000af90:	1400006c 	b	ffff00000000b140 <sdInitCard+0x3cc>
ffff00000000af94:	528f0800 	mov	w0, #0x7840                	// #30784
ffff00000000af98:	72a02fa0 	movk	w0, #0x17d, lsl #16
ffff00000000af9c:	97fff1e2 	bl	ffff000000007724 <sdSetClock>
ffff00000000afa0:	b9003ba0 	str	w0, [x29,#56]
ffff00000000afa4:	b9403ba0 	ldr	w0, [x29,#56]
ffff00000000afa8:	7100001f 	cmp	w0, #0x0
ffff00000000afac:	54000080 	b.eq	ffff00000000afbc <sdInitCard+0x248>
ffff00000000afb0:	b9403ba0 	ldr	w0, [x29,#56]
ffff00000000afb4:	97ffec73 	bl	ffff000000006180 <sdDebugResponse>
ffff00000000afb8:	14000062 	b	ffff00000000b140 <sdInitCard+0x3cc>
ffff00000000afbc:	528000a0 	mov	w0, #0x5                   	// #5
ffff00000000afc0:	97fff066 	bl	ffff000000007158 <sdSendCommand>
ffff00000000afc4:	b9003ba0 	str	w0, [x29,#56]
ffff00000000afc8:	b9403ba0 	ldr	w0, [x29,#56]
ffff00000000afcc:	7100001f 	cmp	w0, #0x0
ffff00000000afd0:	54000080 	b.eq	ffff00000000afe0 <sdInitCard+0x26c>
ffff00000000afd4:	b9403ba0 	ldr	w0, [x29,#56]
ffff00000000afd8:	97ffec6a 	bl	ffff000000006180 <sdDebugResponse>
ffff00000000afdc:	14000059 	b	ffff00000000b140 <sdInitCard+0x3cc>
ffff00000000afe0:	97fff0ca 	bl	ffff000000007308 <sdReadSCR>
ffff00000000afe4:	b9003ba0 	str	w0, [x29,#56]
ffff00000000afe8:	b9403ba0 	ldr	w0, [x29,#56]
ffff00000000afec:	7100001f 	cmp	w0, #0x0
ffff00000000aff0:	54000080 	b.eq	ffff00000000b000 <sdInitCard+0x28c>
ffff00000000aff4:	b9403ba0 	ldr	w0, [x29,#56]
ffff00000000aff8:	97ffec62 	bl	ffff000000006180 <sdDebugResponse>
ffff00000000affc:	14000051 	b	ffff00000000b140 <sdInitCard+0x3cc>
ffff00000000b000:	d0000420 	adrp	x0, ffff000000091000 <mem_map+0x7d3d0>
ffff00000000b004:	9111e000 	add	x0, x0, #0x478
ffff00000000b008:	b9402400 	ldr	w0, [x0,#36]
ffff00000000b00c:	d3482c00 	ubfx	x0, x0, #8, #4
ffff00000000b010:	53001c00 	uxtb	w0, w0
ffff00000000b014:	7100101f 	cmp	w0, #0x4
ffff00000000b018:	54000301 	b.ne	ffff00000000b078 <sdInitCard+0x304>
ffff00000000b01c:	d0000420 	adrp	x0, ffff000000091000 <mem_map+0x7d3d0>
ffff00000000b020:	9111e000 	add	x0, x0, #0x478
ffff00000000b024:	b9403c00 	ldr	w0, [x0,#60]
ffff00000000b028:	321f0000 	orr	w0, w0, #0x2
ffff00000000b02c:	2a0003e1 	mov	w1, w0
ffff00000000b030:	52800400 	mov	w0, #0x20                  	// #32
ffff00000000b034:	97fff085 	bl	ffff000000007248 <sdSendCommandA>
ffff00000000b038:	b9003ba0 	str	w0, [x29,#56]
ffff00000000b03c:	b9403ba0 	ldr	w0, [x29,#56]
ffff00000000b040:	7100001f 	cmp	w0, #0x0
ffff00000000b044:	54000080 	b.eq	ffff00000000b054 <sdInitCard+0x2e0>
ffff00000000b048:	b9403ba0 	ldr	w0, [x29,#56]
ffff00000000b04c:	97ffec4d 	bl	ffff000000006180 <sdDebugResponse>
ffff00000000b050:	1400003c 	b	ffff00000000b140 <sdInitCard+0x3cc>
ffff00000000b054:	d2800501 	mov	x1, #0x28                  	// #40
ffff00000000b058:	f2a7e601 	movk	x1, #0x3f30, lsl #16
ffff00000000b05c:	f2ffffe1 	movk	x1, #0xffff, lsl #48
ffff00000000b060:	b9400020 	ldr	w0, [x1]
ffff00000000b064:	321f0000 	orr	w0, w0, #0x2
ffff00000000b068:	b9000020 	str	w0, [x1]
ffff00000000b06c:	f0000020 	adrp	x0, ffff000000012000 <sys_call_table+0x1c8>
ffff00000000b070:	910f4000 	add	x0, x0, #0x3d0
ffff00000000b074:	97ffe9a5 	bl	ffff000000005708 <tfp_printf>
ffff00000000b078:	52804001 	mov	w1, #0x200                 	// #512
ffff00000000b07c:	528001a0 	mov	w0, #0xd                   	// #13
ffff00000000b080:	97fff072 	bl	ffff000000007248 <sdSendCommandA>
ffff00000000b084:	b9003ba0 	str	w0, [x29,#56]
ffff00000000b088:	b9403ba0 	ldr	w0, [x29,#56]
ffff00000000b08c:	7100001f 	cmp	w0, #0x0
ffff00000000b090:	54000080 	b.eq	ffff00000000b0a0 <sdInitCard+0x32c>
ffff00000000b094:	b9403ba0 	ldr	w0, [x29,#56]
ffff00000000b098:	97ffec3a 	bl	ffff000000006180 <sdDebugResponse>
ffff00000000b09c:	14000029 	b	ffff00000000b140 <sdInitCard+0x3cc>
ffff00000000b0a0:	d0000420 	adrp	x0, ffff000000091000 <mem_map+0x7d3d0>
ffff00000000b0a4:	9111e000 	add	x0, x0, #0x478
ffff00000000b0a8:	b9400800 	ldr	w0, [x0,#8]
ffff00000000b0ac:	53003c00 	uxth	w0, w0
ffff00000000b0b0:	b90037a0 	str	w0, [x29,#52]
ffff00000000b0b4:	b94037a0 	ldr	w0, [x29,#52]
ffff00000000b0b8:	53103c00 	lsl	w0, w0, #16
ffff00000000b0bc:	b90037a0 	str	w0, [x29,#52]
ffff00000000b0c0:	d0000420 	adrp	x0, ffff000000091000 <mem_map+0x7d3d0>
ffff00000000b0c4:	9111e000 	add	x0, x0, #0x478
ffff00000000b0c8:	b9400c00 	ldr	w0, [x0,#12]
ffff00000000b0cc:	d3507c00 	ubfx	x0, x0, #16, #16
ffff00000000b0d0:	53003c00 	uxth	w0, w0
ffff00000000b0d4:	2a0003e1 	mov	w1, w0
ffff00000000b0d8:	b94037a0 	ldr	w0, [x29,#52]
ffff00000000b0dc:	2a010000 	orr	w0, w0, w1
ffff00000000b0e0:	b90037a0 	str	w0, [x29,#52]
ffff00000000b0e4:	b0000480 	adrp	x0, ffff00000009c000 <task+0x18>
ffff00000000b0e8:	91222000 	add	x0, x0, #0x888
ffff00000000b0ec:	f9400000 	ldr	x0, [x0]
ffff00000000b0f0:	927ff801 	and	x1, x0, #0xfffffffffffffffe
ffff00000000b0f4:	b0000480 	adrp	x0, ffff00000009c000 <task+0x18>
ffff00000000b0f8:	91222000 	add	x0, x0, #0x888
ffff00000000b0fc:	f9000001 	str	x1, [x0]
ffff00000000b100:	b0000480 	adrp	x0, ffff00000009c000 <task+0x18>
ffff00000000b104:	91222000 	add	x0, x0, #0x888
ffff00000000b108:	f9400001 	ldr	x1, [x0]
ffff00000000b10c:	b9803fa0 	ldrsw	x0, [x29,#60]
ffff00000000b110:	aa000021 	orr	x1, x1, x0
ffff00000000b114:	b0000480 	adrp	x0, ffff00000009c000 <task+0x18>
ffff00000000b118:	91222000 	add	x0, x0, #0x888
ffff00000000b11c:	f9000001 	str	x1, [x0]
ffff00000000b120:	b0000480 	adrp	x0, ffff00000009c000 <task+0x18>
ffff00000000b124:	91222000 	add	x0, x0, #0x888
ffff00000000b128:	f9400000 	ldr	x0, [x0]
ffff00000000b12c:	91000401 	add	x1, x0, #0x1
ffff00000000b130:	b0000480 	adrp	x0, ffff00000009c000 <task+0x18>
ffff00000000b134:	91222000 	add	x0, x0, #0x888
ffff00000000b138:	f9000001 	str	x1, [x0]
ffff00000000b13c:	52800000 	mov	w0, #0x0                   	// #0
ffff00000000b140:	a8c47bfd 	ldp	x29, x30, [sp],#64
ffff00000000b144:	d65f03c0 	ret

ffff00000000b148 <sdCardCSD>:
ffff00000000b148:	d0000420 	adrp	x0, ffff000000091000 <mem_map+0x7d3d0>
ffff00000000b14c:	9111e000 	add	x0, x0, #0x478
ffff00000000b150:	b9403800 	ldr	w0, [x0,#56]
ffff00000000b154:	7100001f 	cmp	w0, #0x0
ffff00000000b158:	54000080 	b.eq	ffff00000000b168 <sdCardCSD+0x20>
ffff00000000b15c:	d0000420 	adrp	x0, ffff000000091000 <mem_map+0x7d3d0>
ffff00000000b160:	91122000 	add	x0, x0, #0x488
ffff00000000b164:	14000002 	b	ffff00000000b16c <sdCardCSD+0x24>
ffff00000000b168:	d2800000 	mov	x0, #0x0                   	// #0
ffff00000000b16c:	d65f03c0 	ret

ffff00000000b170 <uart_send>:
ffff00000000b170:	a9be7bfd 	stp	x29, x30, [sp,#-32]!
ffff00000000b174:	910003fd 	mov	x29, sp
ffff00000000b178:	39007fa0 	strb	w0, [x29,#31]
ffff00000000b17c:	d28a0a80 	mov	x0, #0x5054                	// #20564
ffff00000000b180:	f2a7e420 	movk	x0, #0x3f21, lsl #16
ffff00000000b184:	f2ffffe0 	movk	x0, #0xffff, lsl #48
ffff00000000b188:	940019f1 	bl	ffff00000001194c <get32>
ffff00000000b18c:	121b0000 	and	w0, w0, #0x20
ffff00000000b190:	7100001f 	cmp	w0, #0x0
ffff00000000b194:	54000041 	b.ne	ffff00000000b19c <uart_send+0x2c>
ffff00000000b198:	17fffff9 	b	ffff00000000b17c <uart_send+0xc>
ffff00000000b19c:	d503201f 	nop
ffff00000000b1a0:	39407fa0 	ldrb	w0, [x29,#31]
ffff00000000b1a4:	2a0003e1 	mov	w1, w0
ffff00000000b1a8:	d28a0800 	mov	x0, #0x5040                	// #20544
ffff00000000b1ac:	f2a7e420 	movk	x0, #0x3f21, lsl #16
ffff00000000b1b0:	f2ffffe0 	movk	x0, #0xffff, lsl #48
ffff00000000b1b4:	940019e4 	bl	ffff000000011944 <put32>
ffff00000000b1b8:	d503201f 	nop
ffff00000000b1bc:	a8c27bfd 	ldp	x29, x30, [sp],#32
ffff00000000b1c0:	d65f03c0 	ret

ffff00000000b1c4 <uart_recv>:
ffff00000000b1c4:	a9bf7bfd 	stp	x29, x30, [sp,#-16]!
ffff00000000b1c8:	910003fd 	mov	x29, sp
ffff00000000b1cc:	d28a0a80 	mov	x0, #0x5054                	// #20564
ffff00000000b1d0:	f2a7e420 	movk	x0, #0x3f21, lsl #16
ffff00000000b1d4:	f2ffffe0 	movk	x0, #0xffff, lsl #48
ffff00000000b1d8:	940019dd 	bl	ffff00000001194c <get32>
ffff00000000b1dc:	12000000 	and	w0, w0, #0x1
ffff00000000b1e0:	7100001f 	cmp	w0, #0x0
ffff00000000b1e4:	54000041 	b.ne	ffff00000000b1ec <uart_recv+0x28>
ffff00000000b1e8:	17fffff9 	b	ffff00000000b1cc <uart_recv+0x8>
ffff00000000b1ec:	d503201f 	nop
ffff00000000b1f0:	d28a0800 	mov	x0, #0x5040                	// #20544
ffff00000000b1f4:	f2a7e420 	movk	x0, #0x3f21, lsl #16
ffff00000000b1f8:	f2ffffe0 	movk	x0, #0xffff, lsl #48
ffff00000000b1fc:	940019d4 	bl	ffff00000001194c <get32>
ffff00000000b200:	53001c00 	uxtb	w0, w0
ffff00000000b204:	a8c17bfd 	ldp	x29, x30, [sp],#16
ffff00000000b208:	d65f03c0 	ret

ffff00000000b20c <uart_send_string>:
ffff00000000b20c:	a9bd7bfd 	stp	x29, x30, [sp,#-48]!
ffff00000000b210:	910003fd 	mov	x29, sp
ffff00000000b214:	f9000fa0 	str	x0, [x29,#24]
ffff00000000b218:	b9002fbf 	str	wzr, [x29,#44]
ffff00000000b21c:	14000009 	b	ffff00000000b240 <uart_send_string+0x34>
ffff00000000b220:	b9802fa0 	ldrsw	x0, [x29,#44]
ffff00000000b224:	f9400fa1 	ldr	x1, [x29,#24]
ffff00000000b228:	8b000020 	add	x0, x1, x0
ffff00000000b22c:	39400000 	ldrb	w0, [x0]
ffff00000000b230:	97ffffd0 	bl	ffff00000000b170 <uart_send>
ffff00000000b234:	b9402fa0 	ldr	w0, [x29,#44]
ffff00000000b238:	11000400 	add	w0, w0, #0x1
ffff00000000b23c:	b9002fa0 	str	w0, [x29,#44]
ffff00000000b240:	b9802fa0 	ldrsw	x0, [x29,#44]
ffff00000000b244:	f9400fa1 	ldr	x1, [x29,#24]
ffff00000000b248:	8b000020 	add	x0, x1, x0
ffff00000000b24c:	39400000 	ldrb	w0, [x0]
ffff00000000b250:	7100001f 	cmp	w0, #0x0
ffff00000000b254:	54fffe61 	b.ne	ffff00000000b220 <uart_send_string+0x14>
ffff00000000b258:	d503201f 	nop
ffff00000000b25c:	a8c37bfd 	ldp	x29, x30, [sp],#48
ffff00000000b260:	d65f03c0 	ret

ffff00000000b264 <uart_init>:
ffff00000000b264:	a9be7bfd 	stp	x29, x30, [sp,#-32]!
ffff00000000b268:	910003fd 	mov	x29, sp
ffff00000000b26c:	d2800080 	mov	x0, #0x4                   	// #4
ffff00000000b270:	f2a7e400 	movk	x0, #0x3f20, lsl #16
ffff00000000b274:	f2ffffe0 	movk	x0, #0xffff, lsl #48
ffff00000000b278:	940019b5 	bl	ffff00000001194c <get32>
ffff00000000b27c:	b9001fa0 	str	w0, [x29,#28]
ffff00000000b280:	b9401fa0 	ldr	w0, [x29,#28]
ffff00000000b284:	12117000 	and	w0, w0, #0xffff8fff
ffff00000000b288:	b9001fa0 	str	w0, [x29,#28]
ffff00000000b28c:	b9401fa0 	ldr	w0, [x29,#28]
ffff00000000b290:	32130000 	orr	w0, w0, #0x2000
ffff00000000b294:	b9001fa0 	str	w0, [x29,#28]
ffff00000000b298:	b9401fa0 	ldr	w0, [x29,#28]
ffff00000000b29c:	120e7000 	and	w0, w0, #0xfffc7fff
ffff00000000b2a0:	b9001fa0 	str	w0, [x29,#28]
ffff00000000b2a4:	b9401fa0 	ldr	w0, [x29,#28]
ffff00000000b2a8:	32100000 	orr	w0, w0, #0x10000
ffff00000000b2ac:	b9001fa0 	str	w0, [x29,#28]
ffff00000000b2b0:	b9401fa1 	ldr	w1, [x29,#28]
ffff00000000b2b4:	d2800080 	mov	x0, #0x4                   	// #4
ffff00000000b2b8:	f2a7e400 	movk	x0, #0x3f20, lsl #16
ffff00000000b2bc:	f2ffffe0 	movk	x0, #0xffff, lsl #48
ffff00000000b2c0:	940019a1 	bl	ffff000000011944 <put32>
ffff00000000b2c4:	52800001 	mov	w1, #0x0                   	// #0
ffff00000000b2c8:	d2801280 	mov	x0, #0x94                  	// #148
ffff00000000b2cc:	f2a7e400 	movk	x0, #0x3f20, lsl #16
ffff00000000b2d0:	f2ffffe0 	movk	x0, #0xffff, lsl #48
ffff00000000b2d4:	9400199c 	bl	ffff000000011944 <put32>
ffff00000000b2d8:	d28012c0 	mov	x0, #0x96                  	// #150
ffff00000000b2dc:	9400199e 	bl	ffff000000011954 <delay>
ffff00000000b2e0:	52980001 	mov	w1, #0xc000                	// #49152
ffff00000000b2e4:	d2801300 	mov	x0, #0x98                  	// #152
ffff00000000b2e8:	f2a7e400 	movk	x0, #0x3f20, lsl #16
ffff00000000b2ec:	f2ffffe0 	movk	x0, #0xffff, lsl #48
ffff00000000b2f0:	94001995 	bl	ffff000000011944 <put32>
ffff00000000b2f4:	d28012c0 	mov	x0, #0x96                  	// #150
ffff00000000b2f8:	94001997 	bl	ffff000000011954 <delay>
ffff00000000b2fc:	52800001 	mov	w1, #0x0                   	// #0
ffff00000000b300:	d2801300 	mov	x0, #0x98                  	// #152
ffff00000000b304:	f2a7e400 	movk	x0, #0x3f20, lsl #16
ffff00000000b308:	f2ffffe0 	movk	x0, #0xffff, lsl #48
ffff00000000b30c:	9400198e 	bl	ffff000000011944 <put32>
ffff00000000b310:	52800021 	mov	w1, #0x1                   	// #1
ffff00000000b314:	d28a0080 	mov	x0, #0x5004                	// #20484
ffff00000000b318:	f2a7e420 	movk	x0, #0x3f21, lsl #16
ffff00000000b31c:	f2ffffe0 	movk	x0, #0xffff, lsl #48
ffff00000000b320:	94001989 	bl	ffff000000011944 <put32>
ffff00000000b324:	52800001 	mov	w1, #0x0                   	// #0
ffff00000000b328:	d28a0c00 	mov	x0, #0x5060                	// #20576
ffff00000000b32c:	f2a7e420 	movk	x0, #0x3f21, lsl #16
ffff00000000b330:	f2ffffe0 	movk	x0, #0xffff, lsl #48
ffff00000000b334:	94001984 	bl	ffff000000011944 <put32>
ffff00000000b338:	52800001 	mov	w1, #0x0                   	// #0
ffff00000000b33c:	d28a0880 	mov	x0, #0x5044                	// #20548
ffff00000000b340:	f2a7e420 	movk	x0, #0x3f21, lsl #16
ffff00000000b344:	f2ffffe0 	movk	x0, #0xffff, lsl #48
ffff00000000b348:	9400197f 	bl	ffff000000011944 <put32>
ffff00000000b34c:	52800061 	mov	w1, #0x3                   	// #3
ffff00000000b350:	d28a0980 	mov	x0, #0x504c                	// #20556
ffff00000000b354:	f2a7e420 	movk	x0, #0x3f21, lsl #16
ffff00000000b358:	f2ffffe0 	movk	x0, #0xffff, lsl #48
ffff00000000b35c:	9400197a 	bl	ffff000000011944 <put32>
ffff00000000b360:	52800001 	mov	w1, #0x0                   	// #0
ffff00000000b364:	d28a0a00 	mov	x0, #0x5050                	// #20560
ffff00000000b368:	f2a7e420 	movk	x0, #0x3f21, lsl #16
ffff00000000b36c:	f2ffffe0 	movk	x0, #0xffff, lsl #48
ffff00000000b370:	94001975 	bl	ffff000000011944 <put32>
ffff00000000b374:	528021c1 	mov	w1, #0x10e                 	// #270
ffff00000000b378:	d28a0d00 	mov	x0, #0x5068                	// #20584
ffff00000000b37c:	f2a7e420 	movk	x0, #0x3f21, lsl #16
ffff00000000b380:	f2ffffe0 	movk	x0, #0xffff, lsl #48
ffff00000000b384:	94001970 	bl	ffff000000011944 <put32>
ffff00000000b388:	52800061 	mov	w1, #0x3                   	// #3
ffff00000000b38c:	d28a0c00 	mov	x0, #0x5060                	// #20576
ffff00000000b390:	f2a7e420 	movk	x0, #0x3f21, lsl #16
ffff00000000b394:	f2ffffe0 	movk	x0, #0xffff, lsl #48
ffff00000000b398:	9400196b 	bl	ffff000000011944 <put32>
ffff00000000b39c:	d503201f 	nop
ffff00000000b3a0:	a8c27bfd 	ldp	x29, x30, [sp],#32
ffff00000000b3a4:	d65f03c0 	ret

ffff00000000b3a8 <uart_hex>:
ffff00000000b3a8:	a9bd7bfd 	stp	x29, x30, [sp,#-48]!
ffff00000000b3ac:	910003fd 	mov	x29, sp
ffff00000000b3b0:	f9000fa0 	str	x0, [x29,#24]
ffff00000000b3b4:	52800380 	mov	w0, #0x1c                  	// #28
ffff00000000b3b8:	b9002fa0 	str	w0, [x29,#44]
ffff00000000b3bc:	14000015 	b	ffff00000000b410 <uart_hex+0x68>
ffff00000000b3c0:	b9402fa0 	ldr	w0, [x29,#44]
ffff00000000b3c4:	f9400fa1 	ldr	x1, [x29,#24]
ffff00000000b3c8:	9ac02420 	lsr	x0, x1, x0
ffff00000000b3cc:	12000c00 	and	w0, w0, #0xf
ffff00000000b3d0:	b9002ba0 	str	w0, [x29,#40]
ffff00000000b3d4:	b9402ba0 	ldr	w0, [x29,#40]
ffff00000000b3d8:	7100241f 	cmp	w0, #0x9
ffff00000000b3dc:	54000069 	b.ls	ffff00000000b3e8 <uart_hex+0x40>
ffff00000000b3e0:	528006e0 	mov	w0, #0x37                  	// #55
ffff00000000b3e4:	14000002 	b	ffff00000000b3ec <uart_hex+0x44>
ffff00000000b3e8:	52800600 	mov	w0, #0x30                  	// #48
ffff00000000b3ec:	b9402ba1 	ldr	w1, [x29,#40]
ffff00000000b3f0:	0b000020 	add	w0, w1, w0
ffff00000000b3f4:	b9002ba0 	str	w0, [x29,#40]
ffff00000000b3f8:	b9402ba0 	ldr	w0, [x29,#40]
ffff00000000b3fc:	53001c00 	uxtb	w0, w0
ffff00000000b400:	97ffff5c 	bl	ffff00000000b170 <uart_send>
ffff00000000b404:	b9402fa0 	ldr	w0, [x29,#44]
ffff00000000b408:	51001000 	sub	w0, w0, #0x4
ffff00000000b40c:	b9002fa0 	str	w0, [x29,#44]
ffff00000000b410:	b9402fa0 	ldr	w0, [x29,#44]
ffff00000000b414:	7100001f 	cmp	w0, #0x0
ffff00000000b418:	54fffd4a 	b.ge	ffff00000000b3c0 <uart_hex+0x18>
ffff00000000b41c:	d503201f 	nop
ffff00000000b420:	a8c37bfd 	ldp	x29, x30, [sp],#48
ffff00000000b424:	d65f03c0 	ret

ffff00000000b428 <uart_puts>:
ffff00000000b428:	a9be7bfd 	stp	x29, x30, [sp,#-32]!
ffff00000000b42c:	910003fd 	mov	x29, sp
ffff00000000b430:	f9000fa0 	str	x0, [x29,#24]
ffff00000000b434:	1400000c 	b	ffff00000000b464 <uart_puts+0x3c>
ffff00000000b438:	f9400fa0 	ldr	x0, [x29,#24]
ffff00000000b43c:	39400000 	ldrb	w0, [x0]
ffff00000000b440:	7100281f 	cmp	w0, #0xa
ffff00000000b444:	54000061 	b.ne	ffff00000000b450 <uart_puts+0x28>
ffff00000000b448:	528001a0 	mov	w0, #0xd                   	// #13
ffff00000000b44c:	97ffff49 	bl	ffff00000000b170 <uart_send>
ffff00000000b450:	f9400fa0 	ldr	x0, [x29,#24]
ffff00000000b454:	91000401 	add	x1, x0, #0x1
ffff00000000b458:	f9000fa1 	str	x1, [x29,#24]
ffff00000000b45c:	39400000 	ldrb	w0, [x0]
ffff00000000b460:	97ffff44 	bl	ffff00000000b170 <uart_send>
ffff00000000b464:	f9400fa0 	ldr	x0, [x29,#24]
ffff00000000b468:	39400000 	ldrb	w0, [x0]
ffff00000000b46c:	7100001f 	cmp	w0, #0x0
ffff00000000b470:	54fffe41 	b.ne	ffff00000000b438 <uart_puts+0x10>
ffff00000000b474:	d503201f 	nop
ffff00000000b478:	a8c27bfd 	ldp	x29, x30, [sp],#32
ffff00000000b47c:	d65f03c0 	ret

ffff00000000b480 <uart_dump>:
ffff00000000b480:	a9bc7bfd 	stp	x29, x30, [sp,#-64]!
ffff00000000b484:	910003fd 	mov	x29, sp
ffff00000000b488:	f9000fa0 	str	x0, [x29,#24]
ffff00000000b48c:	f9400fa0 	ldr	x0, [x29,#24]
ffff00000000b490:	f9001fa0 	str	x0, [x29,#56]
ffff00000000b494:	1400005e 	b	ffff00000000b60c <uart_dump+0x18c>
ffff00000000b498:	f9401fa0 	ldr	x0, [x29,#56]
ffff00000000b49c:	97ffffc3 	bl	ffff00000000b3a8 <uart_hex>
ffff00000000b4a0:	f0000020 	adrp	x0, ffff000000012000 <sys_call_table+0x1c8>
ffff00000000b4a4:	910fc000 	add	x0, x0, #0x3f0
ffff00000000b4a8:	97ffffe0 	bl	ffff00000000b428 <uart_puts>
ffff00000000b4ac:	f9001bbf 	str	xzr, [x29,#48]
ffff00000000b4b0:	14000036 	b	ffff00000000b588 <uart_dump+0x108>
ffff00000000b4b4:	f9401fa1 	ldr	x1, [x29,#56]
ffff00000000b4b8:	f9401ba0 	ldr	x0, [x29,#48]
ffff00000000b4bc:	8b000020 	add	x0, x1, x0
ffff00000000b4c0:	39400000 	ldrb	w0, [x0]
ffff00000000b4c4:	3900bfa0 	strb	w0, [x29,#47]
ffff00000000b4c8:	3940bfa0 	ldrb	w0, [x29,#47]
ffff00000000b4cc:	f90013a0 	str	x0, [x29,#32]
ffff00000000b4d0:	f94013a0 	ldr	x0, [x29,#32]
ffff00000000b4d4:	d344fc00 	lsr	x0, x0, #4
ffff00000000b4d8:	f90013a0 	str	x0, [x29,#32]
ffff00000000b4dc:	f94013a0 	ldr	x0, [x29,#32]
ffff00000000b4e0:	92400c00 	and	x0, x0, #0xf
ffff00000000b4e4:	f90013a0 	str	x0, [x29,#32]
ffff00000000b4e8:	f94013a0 	ldr	x0, [x29,#32]
ffff00000000b4ec:	f100241f 	cmp	x0, #0x9
ffff00000000b4f0:	54000069 	b.ls	ffff00000000b4fc <uart_dump+0x7c>
ffff00000000b4f4:	d28006e0 	mov	x0, #0x37                  	// #55
ffff00000000b4f8:	14000002 	b	ffff00000000b500 <uart_dump+0x80>
ffff00000000b4fc:	d2800600 	mov	x0, #0x30                  	// #48
ffff00000000b500:	f94013a1 	ldr	x1, [x29,#32]
ffff00000000b504:	8b000020 	add	x0, x1, x0
ffff00000000b508:	f90013a0 	str	x0, [x29,#32]
ffff00000000b50c:	f94013a0 	ldr	x0, [x29,#32]
ffff00000000b510:	53001c00 	uxtb	w0, w0
ffff00000000b514:	97ffff17 	bl	ffff00000000b170 <uart_send>
ffff00000000b518:	3940bfa0 	ldrb	w0, [x29,#47]
ffff00000000b51c:	f90013a0 	str	x0, [x29,#32]
ffff00000000b520:	f94013a0 	ldr	x0, [x29,#32]
ffff00000000b524:	92400c00 	and	x0, x0, #0xf
ffff00000000b528:	f90013a0 	str	x0, [x29,#32]
ffff00000000b52c:	f94013a0 	ldr	x0, [x29,#32]
ffff00000000b530:	f100241f 	cmp	x0, #0x9
ffff00000000b534:	54000069 	b.ls	ffff00000000b540 <uart_dump+0xc0>
ffff00000000b538:	d28006e0 	mov	x0, #0x37                  	// #55
ffff00000000b53c:	14000002 	b	ffff00000000b544 <uart_dump+0xc4>
ffff00000000b540:	d2800600 	mov	x0, #0x30                  	// #48
ffff00000000b544:	f94013a1 	ldr	x1, [x29,#32]
ffff00000000b548:	8b000020 	add	x0, x1, x0
ffff00000000b54c:	f90013a0 	str	x0, [x29,#32]
ffff00000000b550:	f94013a0 	ldr	x0, [x29,#32]
ffff00000000b554:	53001c00 	uxtb	w0, w0
ffff00000000b558:	97ffff06 	bl	ffff00000000b170 <uart_send>
ffff00000000b55c:	52800400 	mov	w0, #0x20                  	// #32
ffff00000000b560:	97ffff04 	bl	ffff00000000b170 <uart_send>
ffff00000000b564:	f9401ba0 	ldr	x0, [x29,#48]
ffff00000000b568:	92400400 	and	x0, x0, #0x3
ffff00000000b56c:	f1000c1f 	cmp	x0, #0x3
ffff00000000b570:	54000061 	b.ne	ffff00000000b57c <uart_dump+0xfc>
ffff00000000b574:	52800400 	mov	w0, #0x20                  	// #32
ffff00000000b578:	97fffefe 	bl	ffff00000000b170 <uart_send>
ffff00000000b57c:	f9401ba0 	ldr	x0, [x29,#48]
ffff00000000b580:	91000400 	add	x0, x0, #0x1
ffff00000000b584:	f9001ba0 	str	x0, [x29,#48]
ffff00000000b588:	f9401ba0 	ldr	x0, [x29,#48]
ffff00000000b58c:	f1003c1f 	cmp	x0, #0xf
ffff00000000b590:	54fff929 	b.ls	ffff00000000b4b4 <uart_dump+0x34>
ffff00000000b594:	f9001bbf 	str	xzr, [x29,#48]
ffff00000000b598:	14000013 	b	ffff00000000b5e4 <uart_dump+0x164>
ffff00000000b59c:	f9401fa1 	ldr	x1, [x29,#56]
ffff00000000b5a0:	f9401ba0 	ldr	x0, [x29,#48]
ffff00000000b5a4:	8b000020 	add	x0, x1, x0
ffff00000000b5a8:	39400000 	ldrb	w0, [x0]
ffff00000000b5ac:	3900bfa0 	strb	w0, [x29,#47]
ffff00000000b5b0:	3940bfa0 	ldrb	w0, [x29,#47]
ffff00000000b5b4:	71007c1f 	cmp	w0, #0x1f
ffff00000000b5b8:	540000c9 	b.ls	ffff00000000b5d0 <uart_dump+0x150>
ffff00000000b5bc:	3940bfa0 	ldrb	w0, [x29,#47]
ffff00000000b5c0:	7101f81f 	cmp	w0, #0x7e
ffff00000000b5c4:	54000068 	b.hi	ffff00000000b5d0 <uart_dump+0x150>
ffff00000000b5c8:	3940bfa0 	ldrb	w0, [x29,#47]
ffff00000000b5cc:	14000002 	b	ffff00000000b5d4 <uart_dump+0x154>
ffff00000000b5d0:	528005c0 	mov	w0, #0x2e                  	// #46
ffff00000000b5d4:	97fffee7 	bl	ffff00000000b170 <uart_send>
ffff00000000b5d8:	f9401ba0 	ldr	x0, [x29,#48]
ffff00000000b5dc:	91000400 	add	x0, x0, #0x1
ffff00000000b5e0:	f9001ba0 	str	x0, [x29,#48]
ffff00000000b5e4:	f9401ba0 	ldr	x0, [x29,#48]
ffff00000000b5e8:	f1003c1f 	cmp	x0, #0xf
ffff00000000b5ec:	54fffd89 	b.ls	ffff00000000b59c <uart_dump+0x11c>
ffff00000000b5f0:	528001a0 	mov	w0, #0xd                   	// #13
ffff00000000b5f4:	97fffedf 	bl	ffff00000000b170 <uart_send>
ffff00000000b5f8:	52800140 	mov	w0, #0xa                   	// #10
ffff00000000b5fc:	97fffedd 	bl	ffff00000000b170 <uart_send>
ffff00000000b600:	f9401fa0 	ldr	x0, [x29,#56]
ffff00000000b604:	91004000 	add	x0, x0, #0x10
ffff00000000b608:	f9001fa0 	str	x0, [x29,#56]
ffff00000000b60c:	f9400fa0 	ldr	x0, [x29,#24]
ffff00000000b610:	91020001 	add	x1, x0, #0x80
ffff00000000b614:	f9401fa0 	ldr	x0, [x29,#56]
ffff00000000b618:	eb00003f 	cmp	x1, x0
ffff00000000b61c:	54fff3e8 	b.hi	ffff00000000b498 <uart_dump+0x18>
ffff00000000b620:	d503201f 	nop
ffff00000000b624:	a8c47bfd 	ldp	x29, x30, [sp],#64
ffff00000000b628:	d65f03c0 	ret

ffff00000000b62c <putc>:
ffff00000000b62c:	a9be7bfd 	stp	x29, x30, [sp,#-32]!
ffff00000000b630:	910003fd 	mov	x29, sp
ffff00000000b634:	f9000fa0 	str	x0, [x29,#24]
ffff00000000b638:	39005fa1 	strb	w1, [x29,#23]
ffff00000000b63c:	39405fa0 	ldrb	w0, [x29,#23]
ffff00000000b640:	97fffecc 	bl	ffff00000000b170 <uart_send>
ffff00000000b644:	d503201f 	nop
ffff00000000b648:	a8c27bfd 	ldp	x29, x30, [sp],#32
ffff00000000b64c:	d65f03c0 	ret

ffff00000000b650 <pr_int>:
ffff00000000b650:	a9be7bfd 	stp	x29, x30, [sp,#-32]!
ffff00000000b654:	910003fd 	mov	x29, sp
ffff00000000b658:	b9001fa0 	str	w0, [x29,#28]
ffff00000000b65c:	b9401fa0 	ldr	w0, [x29,#28]
ffff00000000b660:	7100001f 	cmp	w0, #0x0
ffff00000000b664:	540000ca 	b.ge	ffff00000000b67c <pr_int+0x2c>
ffff00000000b668:	528005a0 	mov	w0, #0x2d                  	// #45
ffff00000000b66c:	97fffec1 	bl	ffff00000000b170 <uart_send>
ffff00000000b670:	b9401fa0 	ldr	w0, [x29,#28]
ffff00000000b674:	4b0003e0 	neg	w0, w0
ffff00000000b678:	b9001fa0 	str	w0, [x29,#28]
ffff00000000b67c:	b9401fa0 	ldr	w0, [x29,#28]
ffff00000000b680:	11002400 	add	w0, w0, #0x9
ffff00000000b684:	7100481f 	cmp	w0, #0x12
ffff00000000b688:	54000149 	b.ls	ffff00000000b6b0 <pr_int+0x60>
ffff00000000b68c:	b9401fa0 	ldr	w0, [x29,#28]
ffff00000000b690:	528ccce1 	mov	w1, #0x6667                	// #26215
ffff00000000b694:	72acccc1 	movk	w1, #0x6666, lsl #16
ffff00000000b698:	9b217c01 	smull	x1, w0, w1
ffff00000000b69c:	d360fc21 	lsr	x1, x1, #32
ffff00000000b6a0:	13027c21 	asr	w1, w1, #2
ffff00000000b6a4:	131f7c00 	asr	w0, w0, #31
ffff00000000b6a8:	4b000020 	sub	w0, w1, w0
ffff00000000b6ac:	97ffffe9 	bl	ffff00000000b650 <pr_int>
ffff00000000b6b0:	528005a0 	mov	w0, #0x2d                  	// #45
ffff00000000b6b4:	97fffeaf 	bl	ffff00000000b170 <uart_send>
ffff00000000b6b8:	b9401fa0 	ldr	w0, [x29,#28]
ffff00000000b6bc:	528ccce1 	mov	w1, #0x6667                	// #26215
ffff00000000b6c0:	72acccc1 	movk	w1, #0x6666, lsl #16
ffff00000000b6c4:	9b217c01 	smull	x1, w0, w1
ffff00000000b6c8:	d360fc21 	lsr	x1, x1, #32
ffff00000000b6cc:	13027c22 	asr	w2, w1, #2
ffff00000000b6d0:	131f7c01 	asr	w1, w0, #31
ffff00000000b6d4:	4b010041 	sub	w1, w2, w1
ffff00000000b6d8:	52800142 	mov	w2, #0xa                   	// #10
ffff00000000b6dc:	1b027c21 	mul	w1, w1, w2
ffff00000000b6e0:	4b010001 	sub	w1, w0, w1
ffff00000000b6e4:	53001c20 	uxtb	w0, w1
ffff00000000b6e8:	1100c000 	add	w0, w0, #0x30
ffff00000000b6ec:	53001c00 	uxtb	w0, w0
ffff00000000b6f0:	97fffea0 	bl	ffff00000000b170 <uart_send>
ffff00000000b6f4:	528005a0 	mov	w0, #0x2d                  	// #45
ffff00000000b6f8:	97fffe9e 	bl	ffff00000000b170 <uart_send>
ffff00000000b6fc:	d503201f 	nop
ffff00000000b700:	a8c27bfd 	ldp	x29, x30, [sp],#32
ffff00000000b704:	d65f03c0 	ret

ffff00000000b708 <wait_cycles>:
ffff00000000b708:	d10043ff 	sub	sp, sp, #0x10
ffff00000000b70c:	b9000fe0 	str	w0, [sp,#12]
ffff00000000b710:	b9400fe0 	ldr	w0, [sp,#12]
ffff00000000b714:	7100001f 	cmp	w0, #0x0
ffff00000000b718:	54000100 	b.eq	ffff00000000b738 <wait_cycles+0x30>
ffff00000000b71c:	14000002 	b	ffff00000000b724 <wait_cycles+0x1c>
ffff00000000b720:	d503201f 	nop
ffff00000000b724:	b9400fe0 	ldr	w0, [sp,#12]
ffff00000000b728:	51000401 	sub	w1, w0, #0x1
ffff00000000b72c:	b9000fe1 	str	w1, [sp,#12]
ffff00000000b730:	7100001f 	cmp	w0, #0x0
ffff00000000b734:	54ffff61 	b.ne	ffff00000000b720 <wait_cycles+0x18>
ffff00000000b738:	d503201f 	nop
ffff00000000b73c:	910043ff 	add	sp, sp, #0x10
ffff00000000b740:	d65f03c0 	ret

ffff00000000b744 <wait_msec>:
ffff00000000b744:	a9be53f3 	stp	x19, x20, [sp,#-32]!
ffff00000000b748:	b9001fe0 	str	w0, [sp,#28]
ffff00000000b74c:	d53be000 	mrs	x0, cntfrq_el0
ffff00000000b750:	aa0003f4 	mov	x20, x0
ffff00000000b754:	d53be020 	mrs	x0, cntpct_el0
ffff00000000b758:	aa0003f3 	mov	x19, x0
ffff00000000b75c:	d343fe81 	lsr	x1, x20, #3
ffff00000000b760:	d29ef9e0 	mov	x0, #0xf7cf                	// #63439
ffff00000000b764:	f2bc6a60 	movk	x0, #0xe353, lsl #16
ffff00000000b768:	f2d374a0 	movk	x0, #0x9ba5, lsl #32
ffff00000000b76c:	f2e41880 	movk	x0, #0x20c4, lsl #48
ffff00000000b770:	9bc07c20 	umulh	x0, x1, x0
ffff00000000b774:	d344fc01 	lsr	x1, x0, #4
ffff00000000b778:	b9401fe0 	ldr	w0, [sp,#28]
ffff00000000b77c:	9b007c20 	mul	x0, x1, x0
ffff00000000b780:	d343fc01 	lsr	x1, x0, #3
ffff00000000b784:	d29ef9e0 	mov	x0, #0xf7cf                	// #63439
ffff00000000b788:	f2bc6a60 	movk	x0, #0xe353, lsl #16
ffff00000000b78c:	f2d374a0 	movk	x0, #0x9ba5, lsl #32
ffff00000000b790:	f2e41880 	movk	x0, #0x20c4, lsl #48
ffff00000000b794:	9bc07c20 	umulh	x0, x1, x0
ffff00000000b798:	d344fc00 	lsr	x0, x0, #4
ffff00000000b79c:	8b000273 	add	x19, x19, x0
ffff00000000b7a0:	d53be020 	mrs	x0, cntpct_el0
ffff00000000b7a4:	aa0003f4 	mov	x20, x0
ffff00000000b7a8:	eb13029f 	cmp	x20, x19
ffff00000000b7ac:	54ffffa3 	b.cc	ffff00000000b7a0 <wait_msec+0x5c>
ffff00000000b7b0:	d503201f 	nop
ffff00000000b7b4:	a8c253f3 	ldp	x19, x20, [sp],#32
ffff00000000b7b8:	d65f03c0 	ret

ffff00000000b7bc <sd_status>:
ffff00000000b7bc:	a9bd7bfd 	stp	x29, x30, [sp,#-48]!
ffff00000000b7c0:	910003fd 	mov	x29, sp
ffff00000000b7c4:	b9001fa0 	str	w0, [x29,#28]
ffff00000000b7c8:	52942400 	mov	w0, #0xa120                	// #41248
ffff00000000b7cc:	72a000e0 	movk	w0, #0x7, lsl #16
ffff00000000b7d0:	b9002fa0 	str	w0, [x29,#44]
ffff00000000b7d4:	14000003 	b	ffff00000000b7e0 <sd_status+0x24>
ffff00000000b7d8:	52800020 	mov	w0, #0x1                   	// #1
ffff00000000b7dc:	97ffffda 	bl	ffff00000000b744 <wait_msec>
ffff00000000b7e0:	d2800480 	mov	x0, #0x24                  	// #36
ffff00000000b7e4:	f2a7e600 	movk	x0, #0x3f30, lsl #16
ffff00000000b7e8:	f2ffffe0 	movk	x0, #0xffff, lsl #48
ffff00000000b7ec:	b9400001 	ldr	w1, [x0]
ffff00000000b7f0:	b9401fa0 	ldr	w0, [x29,#28]
ffff00000000b7f4:	0a000020 	and	w0, w1, w0
ffff00000000b7f8:	7100001f 	cmp	w0, #0x0
ffff00000000b7fc:	540001e0 	b.eq	ffff00000000b838 <sd_status+0x7c>
ffff00000000b800:	d2800600 	mov	x0, #0x30                  	// #48
ffff00000000b804:	f2a7e600 	movk	x0, #0x3f30, lsl #16
ffff00000000b808:	f2ffffe0 	movk	x0, #0xffff, lsl #48
ffff00000000b80c:	b9400001 	ldr	w1, [x0]
ffff00000000b810:	52900000 	mov	w0, #0x8000                	// #32768
ffff00000000b814:	72a02fc0 	movk	w0, #0x17e, lsl #16
ffff00000000b818:	0a000020 	and	w0, w1, w0
ffff00000000b81c:	7100001f 	cmp	w0, #0x0
ffff00000000b820:	540000c1 	b.ne	ffff00000000b838 <sd_status+0x7c>
ffff00000000b824:	b9402fa0 	ldr	w0, [x29,#44]
ffff00000000b828:	51000401 	sub	w1, w0, #0x1
ffff00000000b82c:	b9002fa1 	str	w1, [x29,#44]
ffff00000000b830:	7100001f 	cmp	w0, #0x0
ffff00000000b834:	54fffd21 	b.ne	ffff00000000b7d8 <sd_status+0x1c>
ffff00000000b838:	b9402fa0 	ldr	w0, [x29,#44]
ffff00000000b83c:	7100001f 	cmp	w0, #0x0
ffff00000000b840:	5400014d 	b.le	ffff00000000b868 <sd_status+0xac>
ffff00000000b844:	d2800600 	mov	x0, #0x30                  	// #48
ffff00000000b848:	f2a7e600 	movk	x0, #0x3f30, lsl #16
ffff00000000b84c:	f2ffffe0 	movk	x0, #0xffff, lsl #48
ffff00000000b850:	b9400001 	ldr	w1, [x0]
ffff00000000b854:	52900000 	mov	w0, #0x8000                	// #32768
ffff00000000b858:	72a02fc0 	movk	w0, #0x17e, lsl #16
ffff00000000b85c:	0a000020 	and	w0, w1, w0
ffff00000000b860:	7100001f 	cmp	w0, #0x0
ffff00000000b864:	54000060 	b.eq	ffff00000000b870 <sd_status+0xb4>
ffff00000000b868:	52800020 	mov	w0, #0x1                   	// #1
ffff00000000b86c:	14000002 	b	ffff00000000b874 <sd_status+0xb8>
ffff00000000b870:	52800000 	mov	w0, #0x0                   	// #0
ffff00000000b874:	a8c37bfd 	ldp	x29, x30, [sp],#48
ffff00000000b878:	d65f03c0 	ret

ffff00000000b87c <sd_int>:
ffff00000000b87c:	a9bd7bfd 	stp	x29, x30, [sp,#-48]!
ffff00000000b880:	910003fd 	mov	x29, sp
ffff00000000b884:	b9001fa0 	str	w0, [x29,#28]
ffff00000000b888:	b9401fa1 	ldr	w1, [x29,#28]
ffff00000000b88c:	52900000 	mov	w0, #0x8000                	// #32768
ffff00000000b890:	72a02fc0 	movk	w0, #0x17e, lsl #16
ffff00000000b894:	2a000020 	orr	w0, w1, w0
ffff00000000b898:	b9002ba0 	str	w0, [x29,#40]
ffff00000000b89c:	52884800 	mov	w0, #0x4240                	// #16960
ffff00000000b8a0:	72a001e0 	movk	w0, #0xf, lsl #16
ffff00000000b8a4:	b9002fa0 	str	w0, [x29,#44]
ffff00000000b8a8:	14000003 	b	ffff00000000b8b4 <sd_int+0x38>
ffff00000000b8ac:	52800020 	mov	w0, #0x1                   	// #1
ffff00000000b8b0:	97ffffa5 	bl	ffff00000000b744 <wait_msec>
ffff00000000b8b4:	d2800600 	mov	x0, #0x30                  	// #48
ffff00000000b8b8:	f2a7e600 	movk	x0, #0x3f30, lsl #16
ffff00000000b8bc:	f2ffffe0 	movk	x0, #0xffff, lsl #48
ffff00000000b8c0:	b9400001 	ldr	w1, [x0]
ffff00000000b8c4:	b9402ba0 	ldr	w0, [x29,#40]
ffff00000000b8c8:	0a000020 	and	w0, w1, w0
ffff00000000b8cc:	7100001f 	cmp	w0, #0x0
ffff00000000b8d0:	540000c1 	b.ne	ffff00000000b8e8 <sd_int+0x6c>
ffff00000000b8d4:	b9402fa0 	ldr	w0, [x29,#44]
ffff00000000b8d8:	51000401 	sub	w1, w0, #0x1
ffff00000000b8dc:	b9002fa1 	str	w1, [x29,#44]
ffff00000000b8e0:	7100001f 	cmp	w0, #0x0
ffff00000000b8e4:	54fffe41 	b.ne	ffff00000000b8ac <sd_int+0x30>
ffff00000000b8e8:	d2800600 	mov	x0, #0x30                  	// #48
ffff00000000b8ec:	f2a7e600 	movk	x0, #0x3f30, lsl #16
ffff00000000b8f0:	f2ffffe0 	movk	x0, #0xffff, lsl #48
ffff00000000b8f4:	b9400000 	ldr	w0, [x0]
ffff00000000b8f8:	b90027a0 	str	w0, [x29,#36]
ffff00000000b8fc:	b9402fa0 	ldr	w0, [x29,#44]
ffff00000000b900:	7100001f 	cmp	w0, #0x0
ffff00000000b904:	5400012d 	b.le	ffff00000000b928 <sd_int+0xac>
ffff00000000b908:	b94027a0 	ldr	w0, [x29,#36]
ffff00000000b90c:	12100000 	and	w0, w0, #0x10000
ffff00000000b910:	7100001f 	cmp	w0, #0x0
ffff00000000b914:	540000a1 	b.ne	ffff00000000b928 <sd_int+0xac>
ffff00000000b918:	b94027a0 	ldr	w0, [x29,#36]
ffff00000000b91c:	120c0000 	and	w0, w0, #0x100000
ffff00000000b920:	7100001f 	cmp	w0, #0x0
ffff00000000b924:	54000100 	b.eq	ffff00000000b944 <sd_int+0xc8>
ffff00000000b928:	d2800600 	mov	x0, #0x30                  	// #48
ffff00000000b92c:	f2a7e600 	movk	x0, #0x3f30, lsl #16
ffff00000000b930:	f2ffffe0 	movk	x0, #0xffff, lsl #48
ffff00000000b934:	b94027a1 	ldr	w1, [x29,#36]
ffff00000000b938:	b9000001 	str	w1, [x0]
ffff00000000b93c:	52800040 	mov	w0, #0x2                   	// #2
ffff00000000b940:	14000014 	b	ffff00000000b990 <sd_int+0x114>
ffff00000000b944:	b94027a1 	ldr	w1, [x29,#36]
ffff00000000b948:	52900000 	mov	w0, #0x8000                	// #32768
ffff00000000b94c:	72a02fc0 	movk	w0, #0x17e, lsl #16
ffff00000000b950:	0a000020 	and	w0, w1, w0
ffff00000000b954:	7100001f 	cmp	w0, #0x0
ffff00000000b958:	54000100 	b.eq	ffff00000000b978 <sd_int+0xfc>
ffff00000000b95c:	d2800600 	mov	x0, #0x30                  	// #48
ffff00000000b960:	f2a7e600 	movk	x0, #0x3f30, lsl #16
ffff00000000b964:	f2ffffe0 	movk	x0, #0xffff, lsl #48
ffff00000000b968:	b94027a1 	ldr	w1, [x29,#36]
ffff00000000b96c:	b9000001 	str	w1, [x0]
ffff00000000b970:	52800020 	mov	w0, #0x1                   	// #1
ffff00000000b974:	14000007 	b	ffff00000000b990 <sd_int+0x114>
ffff00000000b978:	d2800600 	mov	x0, #0x30                  	// #48
ffff00000000b97c:	f2a7e600 	movk	x0, #0x3f30, lsl #16
ffff00000000b980:	f2ffffe0 	movk	x0, #0xffff, lsl #48
ffff00000000b984:	b9401fa1 	ldr	w1, [x29,#28]
ffff00000000b988:	b9000001 	str	w1, [x0]
ffff00000000b98c:	52800000 	mov	w0, #0x0                   	// #0
ffff00000000b990:	a8c37bfd 	ldp	x29, x30, [sp],#48
ffff00000000b994:	d65f03c0 	ret

ffff00000000b998 <sd_cmd>:
ffff00000000b998:	a9bd7bfd 	stp	x29, x30, [sp,#-48]!
ffff00000000b99c:	910003fd 	mov	x29, sp
ffff00000000b9a0:	b9001fa0 	str	w0, [x29,#28]
ffff00000000b9a4:	b9001ba1 	str	w1, [x29,#24]
ffff00000000b9a8:	b9002fbf 	str	wzr, [x29,#44]
ffff00000000b9ac:	b0000480 	adrp	x0, ffff00000009c000 <task+0x18>
ffff00000000b9b0:	9121e000 	add	x0, x0, #0x878
ffff00000000b9b4:	f900001f 	str	xzr, [x0]
ffff00000000b9b8:	b9401fa0 	ldr	w0, [x29,#28]
ffff00000000b9bc:	7100001f 	cmp	w0, #0x0
ffff00000000b9c0:	5400044a 	b.ge	ffff00000000ba48 <sd_cmd+0xb0>
ffff00000000b9c4:	b0000480 	adrp	x0, ffff00000009c000 <task+0x18>
ffff00000000b9c8:	91220000 	add	x0, x0, #0x880
ffff00000000b9cc:	f9400000 	ldr	x0, [x0]
ffff00000000b9d0:	f100001f 	cmp	x0, #0x0
ffff00000000b9d4:	54000060 	b.eq	ffff00000000b9e0 <sd_cmd+0x48>
ffff00000000b9d8:	52a6e040 	mov	w0, #0x37020000            	// #922877952
ffff00000000b9dc:	14000002 	b	ffff00000000b9e4 <sd_cmd+0x4c>
ffff00000000b9e0:	52a6e000 	mov	w0, #0x37000000            	// #922746880
ffff00000000b9e4:	b0000481 	adrp	x1, ffff00000009c000 <task+0x18>
ffff00000000b9e8:	91220021 	add	x1, x1, #0x880
ffff00000000b9ec:	f9400021 	ldr	x1, [x1]
ffff00000000b9f0:	97ffffea 	bl	ffff00000000b998 <sd_cmd>
ffff00000000b9f4:	b9002fa0 	str	w0, [x29,#44]
ffff00000000b9f8:	b0000480 	adrp	x0, ffff00000009c000 <task+0x18>
ffff00000000b9fc:	91220000 	add	x0, x0, #0x880
ffff00000000ba00:	f9400000 	ldr	x0, [x0]
ffff00000000ba04:	f100001f 	cmp	x0, #0x0
ffff00000000ba08:	540001a0 	b.eq	ffff00000000ba3c <sd_cmd+0xa4>
ffff00000000ba0c:	b9402fa0 	ldr	w0, [x29,#44]
ffff00000000ba10:	7100001f 	cmp	w0, #0x0
ffff00000000ba14:	54000141 	b.ne	ffff00000000ba3c <sd_cmd+0xa4>
ffff00000000ba18:	f0000020 	adrp	x0, ffff000000012000 <sys_call_table+0x1c8>
ffff00000000ba1c:	910fe000 	add	x0, x0, #0x3f8
ffff00000000ba20:	97fffe82 	bl	ffff00000000b428 <uart_puts>
ffff00000000ba24:	b0000480 	adrp	x0, ffff00000009c000 <task+0x18>
ffff00000000ba28:	9121e000 	add	x0, x0, #0x878
ffff00000000ba2c:	d2800021 	mov	x1, #0x1                   	// #1
ffff00000000ba30:	f9000001 	str	x1, [x0]
ffff00000000ba34:	52800000 	mov	w0, #0x0                   	// #0
ffff00000000ba38:	140000a5 	b	ffff00000000bccc <sd_cmd+0x334>
ffff00000000ba3c:	b9401fa0 	ldr	w0, [x29,#28]
ffff00000000ba40:	12007800 	and	w0, w0, #0x7fffffff
ffff00000000ba44:	b9001fa0 	str	w0, [x29,#28]
ffff00000000ba48:	52800020 	mov	w0, #0x1                   	// #1
ffff00000000ba4c:	97ffff5c 	bl	ffff00000000b7bc <sd_status>
ffff00000000ba50:	7100001f 	cmp	w0, #0x0
ffff00000000ba54:	54000140 	b.eq	ffff00000000ba7c <sd_cmd+0xe4>
ffff00000000ba58:	f0000020 	adrp	x0, ffff000000012000 <sys_call_table+0x1c8>
ffff00000000ba5c:	91108000 	add	x0, x0, #0x420
ffff00000000ba60:	97fffe72 	bl	ffff00000000b428 <uart_puts>
ffff00000000ba64:	b0000480 	adrp	x0, ffff00000009c000 <task+0x18>
ffff00000000ba68:	9121e000 	add	x0, x0, #0x878
ffff00000000ba6c:	d2800041 	mov	x1, #0x2                   	// #2
ffff00000000ba70:	f9000001 	str	x1, [x0]
ffff00000000ba74:	52800000 	mov	w0, #0x0                   	// #0
ffff00000000ba78:	14000095 	b	ffff00000000bccc <sd_cmd+0x334>
ffff00000000ba7c:	d2807d00 	mov	x0, #0x3e8                 	// #1000
ffff00000000ba80:	940017b5 	bl	ffff000000011954 <delay>
ffff00000000ba84:	d2800600 	mov	x0, #0x30                  	// #48
ffff00000000ba88:	f2a7e600 	movk	x0, #0x3f30, lsl #16
ffff00000000ba8c:	f2ffffe0 	movk	x0, #0xffff, lsl #48
ffff00000000ba90:	d2800601 	mov	x1, #0x30                  	// #48
ffff00000000ba94:	f2a7e601 	movk	x1, #0x3f30, lsl #16
ffff00000000ba98:	f2ffffe1 	movk	x1, #0xffff, lsl #48
ffff00000000ba9c:	b9400021 	ldr	w1, [x1]
ffff00000000baa0:	b9000001 	str	w1, [x0]
ffff00000000baa4:	d2800100 	mov	x0, #0x8                   	// #8
ffff00000000baa8:	f2a7e600 	movk	x0, #0x3f30, lsl #16
ffff00000000baac:	f2ffffe0 	movk	x0, #0xffff, lsl #48
ffff00000000bab0:	b9401ba1 	ldr	w1, [x29,#24]
ffff00000000bab4:	b9000001 	str	w1, [x0]
ffff00000000bab8:	d2800180 	mov	x0, #0xc                   	// #12
ffff00000000babc:	f2a7e600 	movk	x0, #0x3f30, lsl #16
ffff00000000bac0:	f2ffffe0 	movk	x0, #0xffff, lsl #48
ffff00000000bac4:	b9401fa1 	ldr	w1, [x29,#28]
ffff00000000bac8:	b9000001 	str	w1, [x0]
ffff00000000bacc:	b9401fa1 	ldr	w1, [x29,#28]
ffff00000000bad0:	52b52040 	mov	w0, #0xa9020000            	// #-1459486720
ffff00000000bad4:	6b00003f 	cmp	w1, w0
ffff00000000bad8:	54000081 	b.ne	ffff00000000bae8 <sd_cmd+0x150>
ffff00000000badc:	52807d00 	mov	w0, #0x3e8                 	// #1000
ffff00000000bae0:	97ffff19 	bl	ffff00000000b744 <wait_msec>
ffff00000000bae4:	1400000b 	b	ffff00000000bb10 <sd_cmd+0x178>
ffff00000000bae8:	b9401fa1 	ldr	w1, [x29,#28]
ffff00000000baec:	52a10040 	mov	w0, #0x8020000             	// #134348800
ffff00000000baf0:	6b00003f 	cmp	w1, w0
ffff00000000baf4:	540000a0 	b.eq	ffff00000000bb08 <sd_cmd+0x170>
ffff00000000baf8:	b9401fa1 	ldr	w1, [x29,#28]
ffff00000000bafc:	52a6e000 	mov	w0, #0x37000000            	// #922746880
ffff00000000bb00:	6b00003f 	cmp	w1, w0
ffff00000000bb04:	54000061 	b.ne	ffff00000000bb10 <sd_cmd+0x178>
ffff00000000bb08:	52800c80 	mov	w0, #0x64                  	// #100
ffff00000000bb0c:	97ffff0e 	bl	ffff00000000b744 <wait_msec>
ffff00000000bb10:	52800020 	mov	w0, #0x1                   	// #1
ffff00000000bb14:	97ffff5a 	bl	ffff00000000b87c <sd_int>
ffff00000000bb18:	b9002fa0 	str	w0, [x29,#44]
ffff00000000bb1c:	b9402fa0 	ldr	w0, [x29,#44]
ffff00000000bb20:	7100001f 	cmp	w0, #0x0
ffff00000000bb24:	54000140 	b.eq	ffff00000000bb4c <sd_cmd+0x1b4>
ffff00000000bb28:	f0000020 	adrp	x0, ffff000000012000 <sys_call_table+0x1c8>
ffff00000000bb2c:	9110e000 	add	x0, x0, #0x438
ffff00000000bb30:	97fffe3e 	bl	ffff00000000b428 <uart_puts>
ffff00000000bb34:	b9802fa1 	ldrsw	x1, [x29,#44]
ffff00000000bb38:	b0000480 	adrp	x0, ffff00000009c000 <task+0x18>
ffff00000000bb3c:	9121e000 	add	x0, x0, #0x878
ffff00000000bb40:	f9000001 	str	x1, [x0]
ffff00000000bb44:	52800000 	mov	w0, #0x0                   	// #0
ffff00000000bb48:	14000061 	b	ffff00000000bccc <sd_cmd+0x334>
ffff00000000bb4c:	d2800200 	mov	x0, #0x10                  	// #16
ffff00000000bb50:	f2a7e600 	movk	x0, #0x3f30, lsl #16
ffff00000000bb54:	f2ffffe0 	movk	x0, #0xffff, lsl #48
ffff00000000bb58:	b9400000 	ldr	w0, [x0]
ffff00000000bb5c:	b9002fa0 	str	w0, [x29,#44]
ffff00000000bb60:	b9401fa0 	ldr	w0, [x29,#28]
ffff00000000bb64:	7100001f 	cmp	w0, #0x0
ffff00000000bb68:	540000a0 	b.eq	ffff00000000bb7c <sd_cmd+0x1e4>
ffff00000000bb6c:	b9401fa1 	ldr	w1, [x29,#28]
ffff00000000bb70:	52a6e000 	mov	w0, #0x37000000            	// #922746880
ffff00000000bb74:	6b00003f 	cmp	w1, w0
ffff00000000bb78:	54000061 	b.ne	ffff00000000bb84 <sd_cmd+0x1ec>
ffff00000000bb7c:	52800000 	mov	w0, #0x0                   	// #0
ffff00000000bb80:	14000053 	b	ffff00000000bccc <sd_cmd+0x334>
ffff00000000bb84:	b9401fa1 	ldr	w1, [x29,#28]
ffff00000000bb88:	52a6e040 	mov	w0, #0x37020000            	// #922877952
ffff00000000bb8c:	6b00003f 	cmp	w1, w0
ffff00000000bb90:	54000081 	b.ne	ffff00000000bba0 <sd_cmd+0x208>
ffff00000000bb94:	b9402fa0 	ldr	w0, [x29,#44]
ffff00000000bb98:	121b0000 	and	w0, w0, #0x20
ffff00000000bb9c:	1400004c 	b	ffff00000000bccc <sd_cmd+0x334>
ffff00000000bba0:	b9401fa1 	ldr	w1, [x29,#28]
ffff00000000bba4:	52b52040 	mov	w0, #0xa9020000            	// #-1459486720
ffff00000000bba8:	6b00003f 	cmp	w1, w0
ffff00000000bbac:	54000061 	b.ne	ffff00000000bbb8 <sd_cmd+0x220>
ffff00000000bbb0:	b9402fa0 	ldr	w0, [x29,#44]
ffff00000000bbb4:	14000046 	b	ffff00000000bccc <sd_cmd+0x334>
ffff00000000bbb8:	b9401fa1 	ldr	w1, [x29,#28]
ffff00000000bbbc:	52a10040 	mov	w0, #0x8020000             	// #134348800
ffff00000000bbc0:	6b00003f 	cmp	w1, w0
ffff00000000bbc4:	540000e1 	b.ne	ffff00000000bbe0 <sd_cmd+0x248>
ffff00000000bbc8:	b9402fa1 	ldr	w1, [x29,#44]
ffff00000000bbcc:	b9401ba0 	ldr	w0, [x29,#24]
ffff00000000bbd0:	6b00003f 	cmp	w1, w0
ffff00000000bbd4:	1a9f07e0 	cset	w0, ne
ffff00000000bbd8:	53001c00 	uxtb	w0, w0
ffff00000000bbdc:	1400003c 	b	ffff00000000bccc <sd_cmd+0x334>
ffff00000000bbe0:	b9401fa1 	ldr	w1, [x29,#28]
ffff00000000bbe4:	52a04020 	mov	w0, #0x2010000             	// #33619968
ffff00000000bbe8:	6b00003f 	cmp	w1, w0
ffff00000000bbec:	54000301 	b.ne	ffff00000000bc4c <sd_cmd+0x2b4>
ffff00000000bbf0:	d2800380 	mov	x0, #0x1c                  	// #28
ffff00000000bbf4:	f2a7e600 	movk	x0, #0x3f30, lsl #16
ffff00000000bbf8:	f2ffffe0 	movk	x0, #0xffff, lsl #48
ffff00000000bbfc:	b9400001 	ldr	w1, [x0]
ffff00000000bc00:	b9402fa0 	ldr	w0, [x29,#44]
ffff00000000bc04:	2a000020 	orr	w0, w1, w0
ffff00000000bc08:	b9002fa0 	str	w0, [x29,#44]
ffff00000000bc0c:	d2800300 	mov	x0, #0x18                  	// #24
ffff00000000bc10:	f2a7e600 	movk	x0, #0x3f30, lsl #16
ffff00000000bc14:	f2ffffe0 	movk	x0, #0xffff, lsl #48
ffff00000000bc18:	b9400001 	ldr	w1, [x0]
ffff00000000bc1c:	b9402fa0 	ldr	w0, [x29,#44]
ffff00000000bc20:	2a000020 	orr	w0, w1, w0
ffff00000000bc24:	b9002fa0 	str	w0, [x29,#44]
ffff00000000bc28:	d2800280 	mov	x0, #0x14                  	// #20
ffff00000000bc2c:	f2a7e600 	movk	x0, #0x3f30, lsl #16
ffff00000000bc30:	f2ffffe0 	movk	x0, #0xffff, lsl #48
ffff00000000bc34:	b9400001 	ldr	w1, [x0]
ffff00000000bc38:	b9402fa0 	ldr	w0, [x29,#44]
ffff00000000bc3c:	2a000020 	orr	w0, w1, w0
ffff00000000bc40:	b9002fa0 	str	w0, [x29,#44]
ffff00000000bc44:	b9402fa0 	ldr	w0, [x29,#44]
ffff00000000bc48:	14000021 	b	ffff00000000bccc <sd_cmd+0x334>
ffff00000000bc4c:	b9401fa1 	ldr	w1, [x29,#28]
ffff00000000bc50:	52a06040 	mov	w0, #0x3020000             	// #50462720
ffff00000000bc54:	6b00003f 	cmp	w1, w0
ffff00000000bc58:	54000321 	b.ne	ffff00000000bcbc <sd_cmd+0x324>
ffff00000000bc5c:	b9402fa0 	ldr	w0, [x29,#44]
ffff00000000bc60:	12003001 	and	w1, w0, #0x1fff
ffff00000000bc64:	b9402fa0 	ldr	w0, [x29,#44]
ffff00000000bc68:	12130000 	and	w0, w0, #0x2000
ffff00000000bc6c:	531a6400 	lsl	w0, w0, #6
ffff00000000bc70:	2a000021 	orr	w1, w1, w0
ffff00000000bc74:	b9402fa0 	ldr	w0, [x29,#44]
ffff00000000bc78:	12120000 	and	w0, w0, #0x4000
ffff00000000bc7c:	53185c00 	lsl	w0, w0, #8
ffff00000000bc80:	2a000021 	orr	w1, w1, w0
ffff00000000bc84:	b9402fa0 	ldr	w0, [x29,#44]
ffff00000000bc88:	12110000 	and	w0, w0, #0x8000
ffff00000000bc8c:	53185c00 	lsl	w0, w0, #8
ffff00000000bc90:	2a000020 	orr	w0, w1, w0
ffff00000000bc94:	2a0003e1 	mov	w1, w0
ffff00000000bc98:	d2980080 	mov	x0, #0xc004                	// #49156
ffff00000000bc9c:	f2bfff20 	movk	x0, #0xfff9, lsl #16
ffff00000000bca0:	8a000021 	and	x1, x1, x0
ffff00000000bca4:	b0000480 	adrp	x0, ffff00000009c000 <task+0x18>
ffff00000000bca8:	9121e000 	add	x0, x0, #0x878
ffff00000000bcac:	f9000001 	str	x1, [x0]
ffff00000000bcb0:	b9402fa0 	ldr	w0, [x29,#44]
ffff00000000bcb4:	12103c00 	and	w0, w0, #0xffff0000
ffff00000000bcb8:	14000005 	b	ffff00000000bccc <sd_cmd+0x334>
ffff00000000bcbc:	b9402fa1 	ldr	w1, [x29,#44]
ffff00000000bcc0:	52980080 	mov	w0, #0xc004                	// #49156
ffff00000000bcc4:	72bfff20 	movk	w0, #0xfff9, lsl #16
ffff00000000bcc8:	0a000020 	and	w0, w1, w0
ffff00000000bccc:	a8c37bfd 	ldp	x29, x30, [sp],#48
ffff00000000bcd0:	d65f03c0 	ret

ffff00000000bcd4 <sd_readblock>:
ffff00000000bcd4:	a9bc7bfd 	stp	x29, x30, [sp,#-64]!
ffff00000000bcd8:	910003fd 	mov	x29, sp
ffff00000000bcdc:	b9001fa0 	str	w0, [x29,#28]
ffff00000000bce0:	f9000ba1 	str	x1, [x29,#16]
ffff00000000bce4:	b9001ba2 	str	w2, [x29,#24]
ffff00000000bce8:	b9003fbf 	str	wzr, [x29,#60]
ffff00000000bcec:	b9401ba0 	ldr	w0, [x29,#24]
ffff00000000bcf0:	7100001f 	cmp	w0, #0x0
ffff00000000bcf4:	54000061 	b.ne	ffff00000000bd00 <sd_readblock+0x2c>
ffff00000000bcf8:	52800020 	mov	w0, #0x1                   	// #1
ffff00000000bcfc:	b9001ba0 	str	w0, [x29,#24]
ffff00000000bd00:	52800040 	mov	w0, #0x2                   	// #2
ffff00000000bd04:	97fffeae 	bl	ffff00000000b7bc <sd_status>
ffff00000000bd08:	7100001f 	cmp	w0, #0x0
ffff00000000bd0c:	540000e0 	b.eq	ffff00000000bd28 <sd_readblock+0x54>
ffff00000000bd10:	b0000480 	adrp	x0, ffff00000009c000 <task+0x18>
ffff00000000bd14:	9121e000 	add	x0, x0, #0x878
ffff00000000bd18:	d2800041 	mov	x1, #0x2                   	// #2
ffff00000000bd1c:	f9000001 	str	x1, [x0]
ffff00000000bd20:	52800000 	mov	w0, #0x0                   	// #0
ffff00000000bd24:	14000099 	b	ffff00000000bf88 <sd_readblock+0x2b4>
ffff00000000bd28:	f9400ba0 	ldr	x0, [x29,#16]
ffff00000000bd2c:	f9001ba0 	str	x0, [x29,#48]
ffff00000000bd30:	b0000480 	adrp	x0, ffff00000009c000 <task+0x18>
ffff00000000bd34:	91222000 	add	x0, x0, #0x888
ffff00000000bd38:	f9400000 	ldr	x0, [x0]
ffff00000000bd3c:	92400000 	and	x0, x0, #0x1
ffff00000000bd40:	f100001f 	cmp	x0, #0x0
ffff00000000bd44:	54000580 	b.eq	ffff00000000bdf4 <sd_readblock+0x120>
ffff00000000bd48:	b9401ba0 	ldr	w0, [x29,#24]
ffff00000000bd4c:	7100041f 	cmp	w0, #0x1
ffff00000000bd50:	54000229 	b.ls	ffff00000000bd94 <sd_readblock+0xc0>
ffff00000000bd54:	b0000480 	adrp	x0, ffff00000009c000 <task+0x18>
ffff00000000bd58:	91222000 	add	x0, x0, #0x888
ffff00000000bd5c:	f9400000 	ldr	x0, [x0]
ffff00000000bd60:	92670000 	and	x0, x0, #0x2000000
ffff00000000bd64:	f100001f 	cmp	x0, #0x0
ffff00000000bd68:	54000160 	b.eq	ffff00000000bd94 <sd_readblock+0xc0>
ffff00000000bd6c:	b9401ba1 	ldr	w1, [x29,#24]
ffff00000000bd70:	52a2e040 	mov	w0, #0x17020000            	// #386007040
ffff00000000bd74:	97ffff09 	bl	ffff00000000b998 <sd_cmd>
ffff00000000bd78:	b0000480 	adrp	x0, ffff00000009c000 <task+0x18>
ffff00000000bd7c:	9121e000 	add	x0, x0, #0x878
ffff00000000bd80:	f9400000 	ldr	x0, [x0]
ffff00000000bd84:	f100001f 	cmp	x0, #0x0
ffff00000000bd88:	54000060 	b.eq	ffff00000000bd94 <sd_readblock+0xc0>
ffff00000000bd8c:	52800000 	mov	w0, #0x0                   	// #0
ffff00000000bd90:	1400007e 	b	ffff00000000bf88 <sd_readblock+0x2b4>
ffff00000000bd94:	d2800080 	mov	x0, #0x4                   	// #4
ffff00000000bd98:	f2a7e600 	movk	x0, #0x3f30, lsl #16
ffff00000000bd9c:	f2ffffe0 	movk	x0, #0xffff, lsl #48
ffff00000000bda0:	b9401ba1 	ldr	w1, [x29,#24]
ffff00000000bda4:	53103c21 	lsl	w1, w1, #16
ffff00000000bda8:	32170021 	orr	w1, w1, #0x200
ffff00000000bdac:	b9000001 	str	w1, [x0]
ffff00000000bdb0:	b9401ba0 	ldr	w0, [x29,#24]
ffff00000000bdb4:	7100041f 	cmp	w0, #0x1
ffff00000000bdb8:	54000081 	b.ne	ffff00000000bdc8 <sd_readblock+0xf4>
ffff00000000bdbc:	52800200 	mov	w0, #0x10                  	// #16
ffff00000000bdc0:	72a22440 	movk	w0, #0x1122, lsl #16
ffff00000000bdc4:	14000003 	b	ffff00000000bdd0 <sd_readblock+0xfc>
ffff00000000bdc8:	52800640 	mov	w0, #0x32                  	// #50
ffff00000000bdcc:	72a24440 	movk	w0, #0x1222, lsl #16
ffff00000000bdd0:	b9401fa1 	ldr	w1, [x29,#28]
ffff00000000bdd4:	97fffef1 	bl	ffff00000000b998 <sd_cmd>
ffff00000000bdd8:	b0000480 	adrp	x0, ffff00000009c000 <task+0x18>
ffff00000000bddc:	9121e000 	add	x0, x0, #0x878
ffff00000000bde0:	f9400000 	ldr	x0, [x0]
ffff00000000bde4:	f100001f 	cmp	x0, #0x0
ffff00000000bde8:	540008a0 	b.eq	ffff00000000befc <sd_readblock+0x228>
ffff00000000bdec:	52800000 	mov	w0, #0x0                   	// #0
ffff00000000bdf0:	14000066 	b	ffff00000000bf88 <sd_readblock+0x2b4>
ffff00000000bdf4:	d2800080 	mov	x0, #0x4                   	// #4
ffff00000000bdf8:	f2a7e600 	movk	x0, #0x3f30, lsl #16
ffff00000000bdfc:	f2ffffe0 	movk	x0, #0xffff, lsl #48
ffff00000000be00:	52804001 	mov	w1, #0x200                 	// #512
ffff00000000be04:	72a00021 	movk	w1, #0x1, lsl #16
ffff00000000be08:	b9000001 	str	w1, [x0]
ffff00000000be0c:	1400003c 	b	ffff00000000befc <sd_readblock+0x228>
ffff00000000be10:	b0000480 	adrp	x0, ffff00000009c000 <task+0x18>
ffff00000000be14:	91222000 	add	x0, x0, #0x888
ffff00000000be18:	f9400000 	ldr	x0, [x0]
ffff00000000be1c:	92400000 	and	x0, x0, #0x1
ffff00000000be20:	f100001f 	cmp	x0, #0x0
ffff00000000be24:	54000201 	b.ne	ffff00000000be64 <sd_readblock+0x190>
ffff00000000be28:	b9403fa1 	ldr	w1, [x29,#60]
ffff00000000be2c:	b9401fa0 	ldr	w0, [x29,#28]
ffff00000000be30:	0b000020 	add	w0, w1, w0
ffff00000000be34:	53175800 	lsl	w0, w0, #9
ffff00000000be38:	2a0003e1 	mov	w1, w0
ffff00000000be3c:	52800200 	mov	w0, #0x10                  	// #16
ffff00000000be40:	72a22440 	movk	w0, #0x1122, lsl #16
ffff00000000be44:	97fffed5 	bl	ffff00000000b998 <sd_cmd>
ffff00000000be48:	b0000480 	adrp	x0, ffff00000009c000 <task+0x18>
ffff00000000be4c:	9121e000 	add	x0, x0, #0x878
ffff00000000be50:	f9400000 	ldr	x0, [x0]
ffff00000000be54:	f100001f 	cmp	x0, #0x0
ffff00000000be58:	54000060 	b.eq	ffff00000000be64 <sd_readblock+0x190>
ffff00000000be5c:	52800000 	mov	w0, #0x0                   	// #0
ffff00000000be60:	1400004a 	b	ffff00000000bf88 <sd_readblock+0x2b4>
ffff00000000be64:	52800400 	mov	w0, #0x20                  	// #32
ffff00000000be68:	97fffe85 	bl	ffff00000000b87c <sd_int>
ffff00000000be6c:	b9002fa0 	str	w0, [x29,#44]
ffff00000000be70:	b9402fa0 	ldr	w0, [x29,#44]
ffff00000000be74:	7100001f 	cmp	w0, #0x0
ffff00000000be78:	54000140 	b.eq	ffff00000000bea0 <sd_readblock+0x1cc>
ffff00000000be7c:	f0000020 	adrp	x0, ffff000000012000 <sys_call_table+0x1c8>
ffff00000000be80:	91118000 	add	x0, x0, #0x460
ffff00000000be84:	97fffd69 	bl	ffff00000000b428 <uart_puts>
ffff00000000be88:	b9802fa1 	ldrsw	x1, [x29,#44]
ffff00000000be8c:	b0000480 	adrp	x0, ffff00000009c000 <task+0x18>
ffff00000000be90:	9121e000 	add	x0, x0, #0x878
ffff00000000be94:	f9000001 	str	x1, [x0]
ffff00000000be98:	52800000 	mov	w0, #0x0                   	// #0
ffff00000000be9c:	1400003b 	b	ffff00000000bf88 <sd_readblock+0x2b4>
ffff00000000bea0:	b9003bbf 	str	wzr, [x29,#56]
ffff00000000bea4:	1400000d 	b	ffff00000000bed8 <sd_readblock+0x204>
ffff00000000bea8:	b9803ba0 	ldrsw	x0, [x29,#56]
ffff00000000beac:	d37ef400 	lsl	x0, x0, #2
ffff00000000beb0:	f9401ba1 	ldr	x1, [x29,#48]
ffff00000000beb4:	8b000020 	add	x0, x1, x0
ffff00000000beb8:	d2800401 	mov	x1, #0x20                  	// #32
ffff00000000bebc:	f2a7e601 	movk	x1, #0x3f30, lsl #16
ffff00000000bec0:	f2ffffe1 	movk	x1, #0xffff, lsl #48
ffff00000000bec4:	b9400021 	ldr	w1, [x1]
ffff00000000bec8:	b9000001 	str	w1, [x0]
ffff00000000becc:	b9403ba0 	ldr	w0, [x29,#56]
ffff00000000bed0:	11000400 	add	w0, w0, #0x1
ffff00000000bed4:	b9003ba0 	str	w0, [x29,#56]
ffff00000000bed8:	b9403ba0 	ldr	w0, [x29,#56]
ffff00000000bedc:	7101fc1f 	cmp	w0, #0x7f
ffff00000000bee0:	54fffe4d 	b.le	ffff00000000bea8 <sd_readblock+0x1d4>
ffff00000000bee4:	b9403fa0 	ldr	w0, [x29,#60]
ffff00000000bee8:	11000400 	add	w0, w0, #0x1
ffff00000000beec:	b9003fa0 	str	w0, [x29,#60]
ffff00000000bef0:	f9401ba0 	ldr	x0, [x29,#48]
ffff00000000bef4:	91080000 	add	x0, x0, #0x200
ffff00000000bef8:	f9001ba0 	str	x0, [x29,#48]
ffff00000000befc:	b9403fa1 	ldr	w1, [x29,#60]
ffff00000000bf00:	b9401ba0 	ldr	w0, [x29,#24]
ffff00000000bf04:	6b00003f 	cmp	w1, w0
ffff00000000bf08:	54fff843 	b.cc	ffff00000000be10 <sd_readblock+0x13c>
ffff00000000bf0c:	b9401ba0 	ldr	w0, [x29,#24]
ffff00000000bf10:	7100041f 	cmp	w0, #0x1
ffff00000000bf14:	54000209 	b.ls	ffff00000000bf54 <sd_readblock+0x280>
ffff00000000bf18:	b0000480 	adrp	x0, ffff00000009c000 <task+0x18>
ffff00000000bf1c:	91222000 	add	x0, x0, #0x888
ffff00000000bf20:	f9400000 	ldr	x0, [x0]
ffff00000000bf24:	92670000 	and	x0, x0, #0x2000000
ffff00000000bf28:	f100001f 	cmp	x0, #0x0
ffff00000000bf2c:	54000141 	b.ne	ffff00000000bf54 <sd_readblock+0x280>
ffff00000000bf30:	b0000480 	adrp	x0, ffff00000009c000 <task+0x18>
ffff00000000bf34:	91222000 	add	x0, x0, #0x888
ffff00000000bf38:	f9400000 	ldr	x0, [x0]
ffff00000000bf3c:	92400000 	and	x0, x0, #0x1
ffff00000000bf40:	f100001f 	cmp	x0, #0x0
ffff00000000bf44:	54000080 	b.eq	ffff00000000bf54 <sd_readblock+0x280>
ffff00000000bf48:	52800001 	mov	w1, #0x0                   	// #0
ffff00000000bf4c:	52a18060 	mov	w0, #0xc030000             	// #201523200
ffff00000000bf50:	97fffe92 	bl	ffff00000000b998 <sd_cmd>
ffff00000000bf54:	b0000480 	adrp	x0, ffff00000009c000 <task+0x18>
ffff00000000bf58:	9121e000 	add	x0, x0, #0x878
ffff00000000bf5c:	f9400000 	ldr	x0, [x0]
ffff00000000bf60:	f100001f 	cmp	x0, #0x0
ffff00000000bf64:	54000101 	b.ne	ffff00000000bf84 <sd_readblock+0x2b0>
ffff00000000bf68:	b9403fa1 	ldr	w1, [x29,#60]
ffff00000000bf6c:	b9401ba0 	ldr	w0, [x29,#24]
ffff00000000bf70:	6b00003f 	cmp	w1, w0
ffff00000000bf74:	54000081 	b.ne	ffff00000000bf84 <sd_readblock+0x2b0>
ffff00000000bf78:	b9401ba0 	ldr	w0, [x29,#24]
ffff00000000bf7c:	53175800 	lsl	w0, w0, #9
ffff00000000bf80:	14000002 	b	ffff00000000bf88 <sd_readblock+0x2b4>
ffff00000000bf84:	52800000 	mov	w0, #0x0                   	// #0
ffff00000000bf88:	a8c47bfd 	ldp	x29, x30, [sp],#64
ffff00000000bf8c:	d65f03c0 	ret

ffff00000000bf90 <sd_clk>:
ffff00000000bf90:	a9bc7bfd 	stp	x29, x30, [sp,#-64]!
ffff00000000bf94:	910003fd 	mov	x29, sp
ffff00000000bf98:	b9001fa0 	str	w0, [x29,#28]
ffff00000000bf9c:	52990d41 	mov	w1, #0xc86a                	// #51306
ffff00000000bfa0:	72a04f61 	movk	w1, #0x27b, lsl #16
ffff00000000bfa4:	b9401fa0 	ldr	w0, [x29,#28]
ffff00000000bfa8:	1ac00820 	udiv	w0, w1, w0
ffff00000000bfac:	b9002ba0 	str	w0, [x29,#40]
ffff00000000bfb0:	52800400 	mov	w0, #0x20                  	// #32
ffff00000000bfb4:	b90037a0 	str	w0, [x29,#52]
ffff00000000bfb8:	b90033bf 	str	wzr, [x29,#48]
ffff00000000bfbc:	5290d400 	mov	w0, #0x86a0                	// #34464
ffff00000000bfc0:	72a00020 	movk	w0, #0x1, lsl #16
ffff00000000bfc4:	b9002fa0 	str	w0, [x29,#44]
ffff00000000bfc8:	14000003 	b	ffff00000000bfd4 <sd_clk+0x44>
ffff00000000bfcc:	52800020 	mov	w0, #0x1                   	// #1
ffff00000000bfd0:	97fffddd 	bl	ffff00000000b744 <wait_msec>
ffff00000000bfd4:	d2800480 	mov	x0, #0x24                  	// #36
ffff00000000bfd8:	f2a7e600 	movk	x0, #0x3f30, lsl #16
ffff00000000bfdc:	f2ffffe0 	movk	x0, #0xffff, lsl #48
ffff00000000bfe0:	b9400000 	ldr	w0, [x0]
ffff00000000bfe4:	12000400 	and	w0, w0, #0x3
ffff00000000bfe8:	7100001f 	cmp	w0, #0x0
ffff00000000bfec:	540000c0 	b.eq	ffff00000000c004 <sd_clk+0x74>
ffff00000000bff0:	b9402fa0 	ldr	w0, [x29,#44]
ffff00000000bff4:	51000401 	sub	w1, w0, #0x1
ffff00000000bff8:	b9002fa1 	str	w1, [x29,#44]
ffff00000000bffc:	7100001f 	cmp	w0, #0x0
ffff00000000c000:	54fffe61 	b.ne	ffff00000000bfcc <sd_clk+0x3c>
ffff00000000c004:	b9402fa0 	ldr	w0, [x29,#44]
ffff00000000c008:	7100001f 	cmp	w0, #0x0
ffff00000000c00c:	540000cc 	b.gt	ffff00000000c024 <sd_clk+0x94>
ffff00000000c010:	d0000020 	adrp	x0, ffff000000012000 <sys_call_table+0x1c8>
ffff00000000c014:	91124000 	add	x0, x0, #0x490
ffff00000000c018:	97fffd04 	bl	ffff00000000b428 <uart_puts>
ffff00000000c01c:	52800020 	mov	w0, #0x1                   	// #1
ffff00000000c020:	140000a3 	b	ffff00000000c2ac <sd_clk+0x31c>
ffff00000000c024:	d2800580 	mov	x0, #0x2c                  	// #44
ffff00000000c028:	f2a7e600 	movk	x0, #0x3f30, lsl #16
ffff00000000c02c:	f2ffffe0 	movk	x0, #0xffff, lsl #48
ffff00000000c030:	d2800581 	mov	x1, #0x2c                  	// #44
ffff00000000c034:	f2a7e601 	movk	x1, #0x3f30, lsl #16
ffff00000000c038:	f2ffffe1 	movk	x1, #0xffff, lsl #48
ffff00000000c03c:	b9400021 	ldr	w1, [x1]
ffff00000000c040:	121d7821 	and	w1, w1, #0xfffffffb
ffff00000000c044:	b9000001 	str	w1, [x0]
ffff00000000c048:	52800140 	mov	w0, #0xa                   	// #10
ffff00000000c04c:	97fffdbe 	bl	ffff00000000b744 <wait_msec>
ffff00000000c050:	b9402ba0 	ldr	w0, [x29,#40]
ffff00000000c054:	51000400 	sub	w0, w0, #0x1
ffff00000000c058:	b9003ba0 	str	w0, [x29,#56]
ffff00000000c05c:	b9403ba0 	ldr	w0, [x29,#56]
ffff00000000c060:	7100001f 	cmp	w0, #0x0
ffff00000000c064:	54000061 	b.ne	ffff00000000c070 <sd_clk+0xe0>
ffff00000000c068:	b90037bf 	str	wzr, [x29,#52]
ffff00000000c06c:	1400003d 	b	ffff00000000c160 <sd_clk+0x1d0>
ffff00000000c070:	b9403ba0 	ldr	w0, [x29,#56]
ffff00000000c074:	12103c00 	and	w0, w0, #0xffff0000
ffff00000000c078:	7100001f 	cmp	w0, #0x0
ffff00000000c07c:	540000e1 	b.ne	ffff00000000c098 <sd_clk+0x108>
ffff00000000c080:	b9403ba0 	ldr	w0, [x29,#56]
ffff00000000c084:	53103c00 	lsl	w0, w0, #16
ffff00000000c088:	b9003ba0 	str	w0, [x29,#56]
ffff00000000c08c:	b94037a0 	ldr	w0, [x29,#52]
ffff00000000c090:	51004000 	sub	w0, w0, #0x10
ffff00000000c094:	b90037a0 	str	w0, [x29,#52]
ffff00000000c098:	b9403ba0 	ldr	w0, [x29,#56]
ffff00000000c09c:	12081c00 	and	w0, w0, #0xff000000
ffff00000000c0a0:	7100001f 	cmp	w0, #0x0
ffff00000000c0a4:	540000e1 	b.ne	ffff00000000c0c0 <sd_clk+0x130>
ffff00000000c0a8:	b9403ba0 	ldr	w0, [x29,#56]
ffff00000000c0ac:	53185c00 	lsl	w0, w0, #8
ffff00000000c0b0:	b9003ba0 	str	w0, [x29,#56]
ffff00000000c0b4:	b94037a0 	ldr	w0, [x29,#52]
ffff00000000c0b8:	51002000 	sub	w0, w0, #0x8
ffff00000000c0bc:	b90037a0 	str	w0, [x29,#52]
ffff00000000c0c0:	b9403ba0 	ldr	w0, [x29,#56]
ffff00000000c0c4:	12040c00 	and	w0, w0, #0xf0000000
ffff00000000c0c8:	7100001f 	cmp	w0, #0x0
ffff00000000c0cc:	540000e1 	b.ne	ffff00000000c0e8 <sd_clk+0x158>
ffff00000000c0d0:	b9403ba0 	ldr	w0, [x29,#56]
ffff00000000c0d4:	531c6c00 	lsl	w0, w0, #4
ffff00000000c0d8:	b9003ba0 	str	w0, [x29,#56]
ffff00000000c0dc:	b94037a0 	ldr	w0, [x29,#52]
ffff00000000c0e0:	51001000 	sub	w0, w0, #0x4
ffff00000000c0e4:	b90037a0 	str	w0, [x29,#52]
ffff00000000c0e8:	b9403ba0 	ldr	w0, [x29,#56]
ffff00000000c0ec:	12020400 	and	w0, w0, #0xc0000000
ffff00000000c0f0:	7100001f 	cmp	w0, #0x0
ffff00000000c0f4:	540000e1 	b.ne	ffff00000000c110 <sd_clk+0x180>
ffff00000000c0f8:	b9403ba0 	ldr	w0, [x29,#56]
ffff00000000c0fc:	531e7400 	lsl	w0, w0, #2
ffff00000000c100:	b9003ba0 	str	w0, [x29,#56]
ffff00000000c104:	b94037a0 	ldr	w0, [x29,#52]
ffff00000000c108:	51000800 	sub	w0, w0, #0x2
ffff00000000c10c:	b90037a0 	str	w0, [x29,#52]
ffff00000000c110:	b9403ba0 	ldr	w0, [x29,#56]
ffff00000000c114:	7100001f 	cmp	w0, #0x0
ffff00000000c118:	540000eb 	b.lt	ffff00000000c134 <sd_clk+0x1a4>
ffff00000000c11c:	b9403ba0 	ldr	w0, [x29,#56]
ffff00000000c120:	0b000000 	add	w0, w0, w0
ffff00000000c124:	b9003ba0 	str	w0, [x29,#56]
ffff00000000c128:	b94037a0 	ldr	w0, [x29,#52]
ffff00000000c12c:	51000400 	sub	w0, w0, #0x1
ffff00000000c130:	b90037a0 	str	w0, [x29,#52]
ffff00000000c134:	b94037a0 	ldr	w0, [x29,#52]
ffff00000000c138:	7100001f 	cmp	w0, #0x0
ffff00000000c13c:	54000080 	b.eq	ffff00000000c14c <sd_clk+0x1bc>
ffff00000000c140:	b94037a0 	ldr	w0, [x29,#52]
ffff00000000c144:	51000400 	sub	w0, w0, #0x1
ffff00000000c148:	b90037a0 	str	w0, [x29,#52]
ffff00000000c14c:	b94037a0 	ldr	w0, [x29,#52]
ffff00000000c150:	71001c1f 	cmp	w0, #0x7
ffff00000000c154:	54000069 	b.ls	ffff00000000c160 <sd_clk+0x1d0>
ffff00000000c158:	528000e0 	mov	w0, #0x7                   	// #7
ffff00000000c15c:	b90037a0 	str	w0, [x29,#52]
ffff00000000c160:	90000480 	adrp	x0, ffff00000009c000 <task+0x18>
ffff00000000c164:	91226000 	add	x0, x0, #0x898
ffff00000000c168:	f9400000 	ldr	x0, [x0]
ffff00000000c16c:	f100041f 	cmp	x0, #0x1
ffff00000000c170:	54000089 	b.ls	ffff00000000c180 <sd_clk+0x1f0>
ffff00000000c174:	b9402ba0 	ldr	w0, [x29,#40]
ffff00000000c178:	b9003fa0 	str	w0, [x29,#60]
ffff00000000c17c:	14000005 	b	ffff00000000c190 <sd_clk+0x200>
ffff00000000c180:	b94037a0 	ldr	w0, [x29,#52]
ffff00000000c184:	52800021 	mov	w1, #0x1                   	// #1
ffff00000000c188:	1ac02020 	lsl	w0, w1, w0
ffff00000000c18c:	b9003fa0 	str	w0, [x29,#60]
ffff00000000c190:	b9403fa0 	ldr	w0, [x29,#60]
ffff00000000c194:	7100081f 	cmp	w0, #0x2
ffff00000000c198:	54000088 	b.hi	ffff00000000c1a8 <sd_clk+0x218>
ffff00000000c19c:	52800040 	mov	w0, #0x2                   	// #2
ffff00000000c1a0:	b9003fa0 	str	w0, [x29,#60]
ffff00000000c1a4:	b90037bf 	str	wzr, [x29,#52]
ffff00000000c1a8:	90000480 	adrp	x0, ffff00000009c000 <task+0x18>
ffff00000000c1ac:	91226000 	add	x0, x0, #0x898
ffff00000000c1b0:	f9400000 	ldr	x0, [x0]
ffff00000000c1b4:	f100041f 	cmp	x0, #0x1
ffff00000000c1b8:	540000a9 	b.ls	ffff00000000c1cc <sd_clk+0x23c>
ffff00000000c1bc:	b9403fa0 	ldr	w0, [x29,#60]
ffff00000000c1c0:	12180400 	and	w0, w0, #0x300
ffff00000000c1c4:	53027c00 	lsr	w0, w0, #2
ffff00000000c1c8:	b90033a0 	str	w0, [x29,#48]
ffff00000000c1cc:	b9403fa0 	ldr	w0, [x29,#60]
ffff00000000c1d0:	53185c00 	lsl	w0, w0, #8
ffff00000000c1d4:	12003c01 	and	w1, w0, #0xffff
ffff00000000c1d8:	b94033a0 	ldr	w0, [x29,#48]
ffff00000000c1dc:	2a000020 	orr	w0, w1, w0
ffff00000000c1e0:	b9003fa0 	str	w0, [x29,#60]
ffff00000000c1e4:	d2800580 	mov	x0, #0x2c                  	// #44
ffff00000000c1e8:	f2a7e600 	movk	x0, #0x3f30, lsl #16
ffff00000000c1ec:	f2ffffe0 	movk	x0, #0xffff, lsl #48
ffff00000000c1f0:	d2800581 	mov	x1, #0x2c                  	// #44
ffff00000000c1f4:	f2a7e601 	movk	x1, #0x3f30, lsl #16
ffff00000000c1f8:	f2ffffe1 	movk	x1, #0xffff, lsl #48
ffff00000000c1fc:	b9400021 	ldr	w1, [x1]
ffff00000000c200:	12105422 	and	w2, w1, #0xffff003f
ffff00000000c204:	b9403fa1 	ldr	w1, [x29,#60]
ffff00000000c208:	2a010041 	orr	w1, w2, w1
ffff00000000c20c:	b9000001 	str	w1, [x0]
ffff00000000c210:	52800140 	mov	w0, #0xa                   	// #10
ffff00000000c214:	97fffd4c 	bl	ffff00000000b744 <wait_msec>
ffff00000000c218:	d2800580 	mov	x0, #0x2c                  	// #44
ffff00000000c21c:	f2a7e600 	movk	x0, #0x3f30, lsl #16
ffff00000000c220:	f2ffffe0 	movk	x0, #0xffff, lsl #48
ffff00000000c224:	d2800581 	mov	x1, #0x2c                  	// #44
ffff00000000c228:	f2a7e601 	movk	x1, #0x3f30, lsl #16
ffff00000000c22c:	f2ffffe1 	movk	x1, #0xffff, lsl #48
ffff00000000c230:	b9400021 	ldr	w1, [x1]
ffff00000000c234:	321e0021 	orr	w1, w1, #0x4
ffff00000000c238:	b9000001 	str	w1, [x0]
ffff00000000c23c:	52800140 	mov	w0, #0xa                   	// #10
ffff00000000c240:	97fffd41 	bl	ffff00000000b744 <wait_msec>
ffff00000000c244:	5284e200 	mov	w0, #0x2710                	// #10000
ffff00000000c248:	b9002fa0 	str	w0, [x29,#44]
ffff00000000c24c:	14000003 	b	ffff00000000c258 <sd_clk+0x2c8>
ffff00000000c250:	52800140 	mov	w0, #0xa                   	// #10
ffff00000000c254:	97fffd3c 	bl	ffff00000000b744 <wait_msec>
ffff00000000c258:	d2800580 	mov	x0, #0x2c                  	// #44
ffff00000000c25c:	f2a7e600 	movk	x0, #0x3f30, lsl #16
ffff00000000c260:	f2ffffe0 	movk	x0, #0xffff, lsl #48
ffff00000000c264:	b9400000 	ldr	w0, [x0]
ffff00000000c268:	121f0000 	and	w0, w0, #0x2
ffff00000000c26c:	7100001f 	cmp	w0, #0x0
ffff00000000c270:	540000c1 	b.ne	ffff00000000c288 <sd_clk+0x2f8>
ffff00000000c274:	b9402fa0 	ldr	w0, [x29,#44]
ffff00000000c278:	51000401 	sub	w1, w0, #0x1
ffff00000000c27c:	b9002fa1 	str	w1, [x29,#44]
ffff00000000c280:	7100001f 	cmp	w0, #0x0
ffff00000000c284:	54fffe61 	b.ne	ffff00000000c250 <sd_clk+0x2c0>
ffff00000000c288:	b9402fa0 	ldr	w0, [x29,#44]
ffff00000000c28c:	7100001f 	cmp	w0, #0x0
ffff00000000c290:	540000cc 	b.gt	ffff00000000c2a8 <sd_clk+0x318>
ffff00000000c294:	d0000020 	adrp	x0, ffff000000012000 <sys_call_table+0x1c8>
ffff00000000c298:	91130000 	add	x0, x0, #0x4c0
ffff00000000c29c:	97fffc63 	bl	ffff00000000b428 <uart_puts>
ffff00000000c2a0:	52800020 	mov	w0, #0x1                   	// #1
ffff00000000c2a4:	14000002 	b	ffff00000000c2ac <sd_clk+0x31c>
ffff00000000c2a8:	52800000 	mov	w0, #0x0                   	// #0
ffff00000000c2ac:	a8c47bfd 	ldp	x29, x30, [sp],#64
ffff00000000c2b0:	d65f03c0 	ret

ffff00000000c2b4 <sd_init>:
ffff00000000c2b4:	a9bd7bfd 	stp	x29, x30, [sp,#-48]!
ffff00000000c2b8:	910003fd 	mov	x29, sp
ffff00000000c2bc:	f9000fbf 	str	xzr, [x29,#24]
ffff00000000c2c0:	d2800200 	mov	x0, #0x10                  	// #16
ffff00000000c2c4:	f2a7e400 	movk	x0, #0x3f20, lsl #16
ffff00000000c2c8:	f2ffffe0 	movk	x0, #0xffff, lsl #48
ffff00000000c2cc:	b9400000 	ldr	w0, [x0]
ffff00000000c2d0:	2a0003e0 	mov	w0, w0
ffff00000000c2d4:	f90017a0 	str	x0, [x29,#40]
ffff00000000c2d8:	f94017a0 	ldr	x0, [x29,#40]
ffff00000000c2dc:	9268f000 	and	x0, x0, #0xffffffffff1fffff
ffff00000000c2e0:	f90017a0 	str	x0, [x29,#40]
ffff00000000c2e4:	d2800200 	mov	x0, #0x10                  	// #16
ffff00000000c2e8:	f2a7e400 	movk	x0, #0x3f20, lsl #16
ffff00000000c2ec:	f2ffffe0 	movk	x0, #0xffff, lsl #48
ffff00000000c2f0:	f94017a1 	ldr	x1, [x29,#40]
ffff00000000c2f4:	b9000001 	str	w1, [x0]
ffff00000000c2f8:	d2801280 	mov	x0, #0x94                  	// #148
ffff00000000c2fc:	f2a7e400 	movk	x0, #0x3f20, lsl #16
ffff00000000c300:	f2ffffe0 	movk	x0, #0xffff, lsl #48
ffff00000000c304:	52800041 	mov	w1, #0x2                   	// #2
ffff00000000c308:	b9000001 	str	w1, [x0]
ffff00000000c30c:	528012c0 	mov	w0, #0x96                  	// #150
ffff00000000c310:	97fffcfe 	bl	ffff00000000b708 <wait_cycles>
ffff00000000c314:	d2801380 	mov	x0, #0x9c                  	// #156
ffff00000000c318:	f2a7e400 	movk	x0, #0x3f20, lsl #16
ffff00000000c31c:	f2ffffe0 	movk	x0, #0xffff, lsl #48
ffff00000000c320:	52900001 	mov	w1, #0x8000                	// #32768
ffff00000000c324:	b9000001 	str	w1, [x0]
ffff00000000c328:	528012c0 	mov	w0, #0x96                  	// #150
ffff00000000c32c:	97fffcf7 	bl	ffff00000000b708 <wait_cycles>
ffff00000000c330:	d2801280 	mov	x0, #0x94                  	// #148
ffff00000000c334:	f2a7e400 	movk	x0, #0x3f20, lsl #16
ffff00000000c338:	f2ffffe0 	movk	x0, #0xffff, lsl #48
ffff00000000c33c:	b900001f 	str	wzr, [x0]
ffff00000000c340:	d2801380 	mov	x0, #0x9c                  	// #156
ffff00000000c344:	f2a7e400 	movk	x0, #0x3f20, lsl #16
ffff00000000c348:	f2ffffe0 	movk	x0, #0xffff, lsl #48
ffff00000000c34c:	b900001f 	str	wzr, [x0]
ffff00000000c350:	d2800d00 	mov	x0, #0x68                  	// #104
ffff00000000c354:	f2a7e400 	movk	x0, #0x3f20, lsl #16
ffff00000000c358:	f2ffffe0 	movk	x0, #0xffff, lsl #48
ffff00000000c35c:	b9400000 	ldr	w0, [x0]
ffff00000000c360:	2a0003e0 	mov	w0, w0
ffff00000000c364:	f90017a0 	str	x0, [x29,#40]
ffff00000000c368:	f94017a0 	ldr	x0, [x29,#40]
ffff00000000c36c:	b2710000 	orr	x0, x0, #0x8000
ffff00000000c370:	f90017a0 	str	x0, [x29,#40]
ffff00000000c374:	d2800d00 	mov	x0, #0x68                  	// #104
ffff00000000c378:	f2a7e400 	movk	x0, #0x3f20, lsl #16
ffff00000000c37c:	f2ffffe0 	movk	x0, #0xffff, lsl #48
ffff00000000c380:	f94017a1 	ldr	x1, [x29,#40]
ffff00000000c384:	b9000001 	str	w1, [x0]
ffff00000000c388:	d2800200 	mov	x0, #0x10                  	// #16
ffff00000000c38c:	f2a7e400 	movk	x0, #0x3f20, lsl #16
ffff00000000c390:	f2ffffe0 	movk	x0, #0xffff, lsl #48
ffff00000000c394:	b9400000 	ldr	w0, [x0]
ffff00000000c398:	2a0003e0 	mov	w0, w0
ffff00000000c39c:	f90017a0 	str	x0, [x29,#40]
ffff00000000c3a0:	f94017a0 	ldr	x0, [x29,#40]
ffff00000000c3a4:	b2681400 	orr	x0, x0, #0x3f000000
ffff00000000c3a8:	f90017a0 	str	x0, [x29,#40]
ffff00000000c3ac:	d2800200 	mov	x0, #0x10                  	// #16
ffff00000000c3b0:	f2a7e400 	movk	x0, #0x3f20, lsl #16
ffff00000000c3b4:	f2ffffe0 	movk	x0, #0xffff, lsl #48
ffff00000000c3b8:	f94017a1 	ldr	x1, [x29,#40]
ffff00000000c3bc:	b9000001 	str	w1, [x0]
ffff00000000c3c0:	d2801280 	mov	x0, #0x94                  	// #148
ffff00000000c3c4:	f2a7e400 	movk	x0, #0x3f20, lsl #16
ffff00000000c3c8:	f2ffffe0 	movk	x0, #0xffff, lsl #48
ffff00000000c3cc:	52800041 	mov	w1, #0x2                   	// #2
ffff00000000c3d0:	b9000001 	str	w1, [x0]
ffff00000000c3d4:	528012c0 	mov	w0, #0x96                  	// #150
ffff00000000c3d8:	97fffccc 	bl	ffff00000000b708 <wait_cycles>
ffff00000000c3dc:	d2801380 	mov	x0, #0x9c                  	// #156
ffff00000000c3e0:	f2a7e400 	movk	x0, #0x3f20, lsl #16
ffff00000000c3e4:	f2ffffe0 	movk	x0, #0xffff, lsl #48
ffff00000000c3e8:	52a00061 	mov	w1, #0x30000               	// #196608
ffff00000000c3ec:	b9000001 	str	w1, [x0]
ffff00000000c3f0:	528012c0 	mov	w0, #0x96                  	// #150
ffff00000000c3f4:	97fffcc5 	bl	ffff00000000b708 <wait_cycles>
ffff00000000c3f8:	d2801280 	mov	x0, #0x94                  	// #148
ffff00000000c3fc:	f2a7e400 	movk	x0, #0x3f20, lsl #16
ffff00000000c400:	f2ffffe0 	movk	x0, #0xffff, lsl #48
ffff00000000c404:	b900001f 	str	wzr, [x0]
ffff00000000c408:	d2801380 	mov	x0, #0x9c                  	// #156
ffff00000000c40c:	f2a7e400 	movk	x0, #0x3f20, lsl #16
ffff00000000c410:	f2ffffe0 	movk	x0, #0xffff, lsl #48
ffff00000000c414:	b900001f 	str	wzr, [x0]
ffff00000000c418:	d2800280 	mov	x0, #0x14                  	// #20
ffff00000000c41c:	f2a7e400 	movk	x0, #0x3f20, lsl #16
ffff00000000c420:	f2ffffe0 	movk	x0, #0xffff, lsl #48
ffff00000000c424:	b9400000 	ldr	w0, [x0]
ffff00000000c428:	2a0003e0 	mov	w0, w0
ffff00000000c42c:	f90017a0 	str	x0, [x29,#40]
ffff00000000c430:	f94017a0 	ldr	x0, [x29,#40]
ffff00000000c434:	b2402c00 	orr	x0, x0, #0xfff
ffff00000000c438:	f90017a0 	str	x0, [x29,#40]
ffff00000000c43c:	d2800280 	mov	x0, #0x14                  	// #20
ffff00000000c440:	f2a7e400 	movk	x0, #0x3f20, lsl #16
ffff00000000c444:	f2ffffe0 	movk	x0, #0xffff, lsl #48
ffff00000000c448:	f94017a1 	ldr	x1, [x29,#40]
ffff00000000c44c:	b9000001 	str	w1, [x0]
ffff00000000c450:	d2801280 	mov	x0, #0x94                  	// #148
ffff00000000c454:	f2a7e400 	movk	x0, #0x3f20, lsl #16
ffff00000000c458:	f2ffffe0 	movk	x0, #0xffff, lsl #48
ffff00000000c45c:	52800041 	mov	w1, #0x2                   	// #2
ffff00000000c460:	b9000001 	str	w1, [x0]
ffff00000000c464:	528012c0 	mov	w0, #0x96                  	// #150
ffff00000000c468:	97fffca8 	bl	ffff00000000b708 <wait_cycles>
ffff00000000c46c:	d2801380 	mov	x0, #0x9c                  	// #156
ffff00000000c470:	f2a7e400 	movk	x0, #0x3f20, lsl #16
ffff00000000c474:	f2ffffe0 	movk	x0, #0xffff, lsl #48
ffff00000000c478:	52a00781 	mov	w1, #0x3c0000              	// #3932160
ffff00000000c47c:	b9000001 	str	w1, [x0]
ffff00000000c480:	528012c0 	mov	w0, #0x96                  	// #150
ffff00000000c484:	97fffca1 	bl	ffff00000000b708 <wait_cycles>
ffff00000000c488:	d2801280 	mov	x0, #0x94                  	// #148
ffff00000000c48c:	f2a7e400 	movk	x0, #0x3f20, lsl #16
ffff00000000c490:	f2ffffe0 	movk	x0, #0xffff, lsl #48
ffff00000000c494:	b900001f 	str	wzr, [x0]
ffff00000000c498:	d2801380 	mov	x0, #0x9c                  	// #156
ffff00000000c49c:	f2a7e400 	movk	x0, #0x3f20, lsl #16
ffff00000000c4a0:	f2ffffe0 	movk	x0, #0xffff, lsl #48
ffff00000000c4a4:	b900001f 	str	wzr, [x0]
ffff00000000c4a8:	d2801f80 	mov	x0, #0xfc                  	// #252
ffff00000000c4ac:	f2a7e600 	movk	x0, #0x3f30, lsl #16
ffff00000000c4b0:	f2ffffe0 	movk	x0, #0xffff, lsl #48
ffff00000000c4b4:	b9400000 	ldr	w0, [x0]
ffff00000000c4b8:	12101c00 	and	w0, w0, #0xff0000
ffff00000000c4bc:	53107c00 	lsr	w0, w0, #16
ffff00000000c4c0:	2a0003e1 	mov	w1, w0
ffff00000000c4c4:	90000480 	adrp	x0, ffff00000009c000 <task+0x18>
ffff00000000c4c8:	91226000 	add	x0, x0, #0x898
ffff00000000c4cc:	f9000001 	str	x1, [x0]
ffff00000000c4d0:	d0000020 	adrp	x0, ffff000000012000 <sys_call_table+0x1c8>
ffff00000000c4d4:	9113a000 	add	x0, x0, #0x4e8
ffff00000000c4d8:	97fffbd4 	bl	ffff00000000b428 <uart_puts>
ffff00000000c4dc:	d2800500 	mov	x0, #0x28                  	// #40
ffff00000000c4e0:	f2a7e600 	movk	x0, #0x3f30, lsl #16
ffff00000000c4e4:	f2ffffe0 	movk	x0, #0xffff, lsl #48
ffff00000000c4e8:	b900001f 	str	wzr, [x0]
ffff00000000c4ec:	d2800580 	mov	x0, #0x2c                  	// #44
ffff00000000c4f0:	f2a7e600 	movk	x0, #0x3f30, lsl #16
ffff00000000c4f4:	f2ffffe0 	movk	x0, #0xffff, lsl #48
ffff00000000c4f8:	d2800581 	mov	x1, #0x2c                  	// #44
ffff00000000c4fc:	f2a7e601 	movk	x1, #0x3f30, lsl #16
ffff00000000c500:	f2ffffe1 	movk	x1, #0xffff, lsl #48
ffff00000000c504:	b9400021 	ldr	w1, [x1]
ffff00000000c508:	32080021 	orr	w1, w1, #0x1000000
ffff00000000c50c:	b9000001 	str	w1, [x0]
ffff00000000c510:	d284e200 	mov	x0, #0x2710                	// #10000
ffff00000000c514:	f90013a0 	str	x0, [x29,#32]
ffff00000000c518:	52800140 	mov	w0, #0xa                   	// #10
ffff00000000c51c:	97fffc8a 	bl	ffff00000000b744 <wait_msec>
ffff00000000c520:	d2800580 	mov	x0, #0x2c                  	// #44
ffff00000000c524:	f2a7e600 	movk	x0, #0x3f30, lsl #16
ffff00000000c528:	f2ffffe0 	movk	x0, #0xffff, lsl #48
ffff00000000c52c:	b9400000 	ldr	w0, [x0]
ffff00000000c530:	12080000 	and	w0, w0, #0x1000000
ffff00000000c534:	7100001f 	cmp	w0, #0x0
ffff00000000c538:	540000c0 	b.eq	ffff00000000c550 <sd_init+0x29c>
ffff00000000c53c:	f94013a0 	ldr	x0, [x29,#32]
ffff00000000c540:	d1000401 	sub	x1, x0, #0x1
ffff00000000c544:	f90013a1 	str	x1, [x29,#32]
ffff00000000c548:	f100001f 	cmp	x0, #0x0
ffff00000000c54c:	54fffe61 	b.ne	ffff00000000c518 <sd_init+0x264>
ffff00000000c550:	f94013a0 	ldr	x0, [x29,#32]
ffff00000000c554:	f100001f 	cmp	x0, #0x0
ffff00000000c558:	540000cc 	b.gt	ffff00000000c570 <sd_init+0x2bc>
ffff00000000c55c:	d0000020 	adrp	x0, ffff000000012000 <sys_call_table+0x1c8>
ffff00000000c560:	91140000 	add	x0, x0, #0x500
ffff00000000c564:	97fffbb1 	bl	ffff00000000b428 <uart_puts>
ffff00000000c568:	52800020 	mov	w0, #0x1                   	// #1
ffff00000000c56c:	14000171 	b	ffff00000000cb30 <sd_init+0x87c>
ffff00000000c570:	d0000020 	adrp	x0, ffff000000012000 <sys_call_table+0x1c8>
ffff00000000c574:	91148000 	add	x0, x0, #0x520
ffff00000000c578:	97fffbac 	bl	ffff00000000b428 <uart_puts>
ffff00000000c57c:	d2800580 	mov	x0, #0x2c                  	// #44
ffff00000000c580:	f2a7e600 	movk	x0, #0x3f30, lsl #16
ffff00000000c584:	f2ffffe0 	movk	x0, #0xffff, lsl #48
ffff00000000c588:	d2800581 	mov	x1, #0x2c                  	// #44
ffff00000000c58c:	f2a7e601 	movk	x1, #0x3f30, lsl #16
ffff00000000c590:	f2ffffe1 	movk	x1, #0xffff, lsl #48
ffff00000000c594:	b9400022 	ldr	w2, [x1]
ffff00000000c598:	52800021 	mov	w1, #0x1                   	// #1
ffff00000000c59c:	72a001c1 	movk	w1, #0xe, lsl #16
ffff00000000c5a0:	2a010041 	orr	w1, w2, w1
ffff00000000c5a4:	b9000001 	str	w1, [x0]
ffff00000000c5a8:	52800140 	mov	w0, #0xa                   	// #10
ffff00000000c5ac:	97fffc66 	bl	ffff00000000b744 <wait_msec>
ffff00000000c5b0:	52835000 	mov	w0, #0x1a80                	// #6784
ffff00000000c5b4:	72a000c0 	movk	w0, #0x6, lsl #16
ffff00000000c5b8:	97fffe76 	bl	ffff00000000bf90 <sd_clk>
ffff00000000c5bc:	93407c00 	sxtw	x0, w0
ffff00000000c5c0:	f90017a0 	str	x0, [x29,#40]
ffff00000000c5c4:	f94017a0 	ldr	x0, [x29,#40]
ffff00000000c5c8:	f100001f 	cmp	x0, #0x0
ffff00000000c5cc:	54000060 	b.eq	ffff00000000c5d8 <sd_init+0x324>
ffff00000000c5d0:	f94017a0 	ldr	x0, [x29,#40]
ffff00000000c5d4:	14000157 	b	ffff00000000cb30 <sd_init+0x87c>
ffff00000000c5d8:	d2800700 	mov	x0, #0x38                  	// #56
ffff00000000c5dc:	f2a7e600 	movk	x0, #0x3f30, lsl #16
ffff00000000c5e0:	f2ffffe0 	movk	x0, #0xffff, lsl #48
ffff00000000c5e4:	12800001 	mov	w1, #0xffffffff            	// #-1
ffff00000000c5e8:	b9000001 	str	w1, [x0]
ffff00000000c5ec:	d2800680 	mov	x0, #0x34                  	// #52
ffff00000000c5f0:	f2a7e600 	movk	x0, #0x3f30, lsl #16
ffff00000000c5f4:	f2ffffe0 	movk	x0, #0xffff, lsl #48
ffff00000000c5f8:	12800001 	mov	w1, #0xffffffff            	// #-1
ffff00000000c5fc:	b9000001 	str	w1, [x0]
ffff00000000c600:	90000480 	adrp	x0, ffff00000009c000 <task+0x18>
ffff00000000c604:	9121e000 	add	x0, x0, #0x878
ffff00000000c608:	f900001f 	str	xzr, [x0]
ffff00000000c60c:	90000480 	adrp	x0, ffff00000009c000 <task+0x18>
ffff00000000c610:	9121e000 	add	x0, x0, #0x878
ffff00000000c614:	f9400001 	ldr	x1, [x0]
ffff00000000c618:	90000480 	adrp	x0, ffff00000009c000 <task+0x18>
ffff00000000c61c:	91220000 	add	x0, x0, #0x880
ffff00000000c620:	f9000001 	str	x1, [x0]
ffff00000000c624:	90000480 	adrp	x0, ffff00000009c000 <task+0x18>
ffff00000000c628:	91220000 	add	x0, x0, #0x880
ffff00000000c62c:	f9400001 	ldr	x1, [x0]
ffff00000000c630:	90000480 	adrp	x0, ffff00000009c000 <task+0x18>
ffff00000000c634:	91222000 	add	x0, x0, #0x888
ffff00000000c638:	f9000401 	str	x1, [x0,#8]
ffff00000000c63c:	90000480 	adrp	x0, ffff00000009c000 <task+0x18>
ffff00000000c640:	91222000 	add	x0, x0, #0x888
ffff00000000c644:	f9400401 	ldr	x1, [x0,#8]
ffff00000000c648:	90000480 	adrp	x0, ffff00000009c000 <task+0x18>
ffff00000000c64c:	91222000 	add	x0, x0, #0x888
ffff00000000c650:	f9000001 	str	x1, [x0]
ffff00000000c654:	52800001 	mov	w1, #0x0                   	// #0
ffff00000000c658:	52800000 	mov	w0, #0x0                   	// #0
ffff00000000c65c:	97fffccf 	bl	ffff00000000b998 <sd_cmd>
ffff00000000c660:	90000480 	adrp	x0, ffff00000009c000 <task+0x18>
ffff00000000c664:	9121e000 	add	x0, x0, #0x878
ffff00000000c668:	f9400000 	ldr	x0, [x0]
ffff00000000c66c:	f100001f 	cmp	x0, #0x0
ffff00000000c670:	540000a0 	b.eq	ffff00000000c684 <sd_init+0x3d0>
ffff00000000c674:	90000480 	adrp	x0, ffff00000009c000 <task+0x18>
ffff00000000c678:	9121e000 	add	x0, x0, #0x878
ffff00000000c67c:	f9400000 	ldr	x0, [x0]
ffff00000000c680:	1400012c 	b	ffff00000000cb30 <sd_init+0x87c>
ffff00000000c684:	52803541 	mov	w1, #0x1aa                 	// #426
ffff00000000c688:	52a10040 	mov	w0, #0x8020000             	// #134348800
ffff00000000c68c:	97fffcc3 	bl	ffff00000000b998 <sd_cmd>
ffff00000000c690:	90000480 	adrp	x0, ffff00000009c000 <task+0x18>
ffff00000000c694:	9121e000 	add	x0, x0, #0x878
ffff00000000c698:	f9400000 	ldr	x0, [x0]
ffff00000000c69c:	f100001f 	cmp	x0, #0x0
ffff00000000c6a0:	540000a0 	b.eq	ffff00000000c6b4 <sd_init+0x400>
ffff00000000c6a4:	90000480 	adrp	x0, ffff00000009c000 <task+0x18>
ffff00000000c6a8:	9121e000 	add	x0, x0, #0x878
ffff00000000c6ac:	f9400000 	ldr	x0, [x0]
ffff00000000c6b0:	14000120 	b	ffff00000000cb30 <sd_init+0x87c>
ffff00000000c6b4:	d28000c0 	mov	x0, #0x6                   	// #6
ffff00000000c6b8:	f90013a0 	str	x0, [x29,#32]
ffff00000000c6bc:	f90017bf 	str	xzr, [x29,#40]
ffff00000000c6c0:	1400003b 	b	ffff00000000c7ac <sd_init+0x4f8>
ffff00000000c6c4:	52884800 	mov	w0, #0x4240                	// #16960
ffff00000000c6c8:	72a001e0 	movk	w0, #0xf, lsl #16
ffff00000000c6cc:	97fffc0f 	bl	ffff00000000b708 <wait_cycles>
ffff00000000c6d0:	52900001 	mov	w1, #0x8000                	// #32768
ffff00000000c6d4:	72aa3fe1 	movk	w1, #0x51ff, lsl #16
ffff00000000c6d8:	52b52040 	mov	w0, #0xa9020000            	// #-1459486720
ffff00000000c6dc:	97fffcaf 	bl	ffff00000000b998 <sd_cmd>
ffff00000000c6e0:	93407c00 	sxtw	x0, w0
ffff00000000c6e4:	f90017a0 	str	x0, [x29,#40]
ffff00000000c6e8:	d0000020 	adrp	x0, ffff000000012000 <sys_call_table+0x1c8>
ffff00000000c6ec:	9114c000 	add	x0, x0, #0x530
ffff00000000c6f0:	97fffb4e 	bl	ffff00000000b428 <uart_puts>
ffff00000000c6f4:	f94017a0 	ldr	x0, [x29,#40]
ffff00000000c6f8:	92610000 	and	x0, x0, #0x80000000
ffff00000000c6fc:	f100001f 	cmp	x0, #0x0
ffff00000000c700:	54000080 	b.eq	ffff00000000c710 <sd_init+0x45c>
ffff00000000c704:	d0000020 	adrp	x0, ffff000000012000 <sys_call_table+0x1c8>
ffff00000000c708:	91156000 	add	x0, x0, #0x558
ffff00000000c70c:	97fffb47 	bl	ffff00000000b428 <uart_puts>
ffff00000000c710:	f94017a0 	ldr	x0, [x29,#40]
ffff00000000c714:	92712000 	and	x0, x0, #0xff8000
ffff00000000c718:	f100001f 	cmp	x0, #0x0
ffff00000000c71c:	54000080 	b.eq	ffff00000000c72c <sd_init+0x478>
ffff00000000c720:	d0000020 	adrp	x0, ffff000000012000 <sys_call_table+0x1c8>
ffff00000000c724:	9115a000 	add	x0, x0, #0x568
ffff00000000c728:	97fffb40 	bl	ffff00000000b428 <uart_puts>
ffff00000000c72c:	f94017a0 	ldr	x0, [x29,#40]
ffff00000000c730:	92620000 	and	x0, x0, #0x40000000
ffff00000000c734:	f100001f 	cmp	x0, #0x0
ffff00000000c738:	54000080 	b.eq	ffff00000000c748 <sd_init+0x494>
ffff00000000c73c:	d0000020 	adrp	x0, ffff000000012000 <sys_call_table+0x1c8>
ffff00000000c740:	9115e000 	add	x0, x0, #0x578
ffff00000000c744:	97fffb39 	bl	ffff00000000b428 <uart_puts>
ffff00000000c748:	f94017a0 	ldr	x0, [x29,#40]
ffff00000000c74c:	9360fc00 	asr	x0, x0, #32
ffff00000000c750:	97fffb16 	bl	ffff00000000b3a8 <uart_hex>
ffff00000000c754:	f94017a0 	ldr	x0, [x29,#40]
ffff00000000c758:	97fffb14 	bl	ffff00000000b3a8 <uart_hex>
ffff00000000c75c:	d0000020 	adrp	x0, ffff000000012000 <sys_call_table+0x1c8>
ffff00000000c760:	91160000 	add	x0, x0, #0x580
ffff00000000c764:	97fffb31 	bl	ffff00000000b428 <uart_puts>
ffff00000000c768:	90000480 	adrp	x0, ffff00000009c000 <task+0x18>
ffff00000000c76c:	9121e000 	add	x0, x0, #0x878
ffff00000000c770:	f9400000 	ldr	x0, [x0]
ffff00000000c774:	f100081f 	cmp	x0, #0x2
ffff00000000c778:	540001a0 	b.eq	ffff00000000c7ac <sd_init+0x4f8>
ffff00000000c77c:	90000480 	adrp	x0, ffff00000009c000 <task+0x18>
ffff00000000c780:	9121e000 	add	x0, x0, #0x878
ffff00000000c784:	f9400000 	ldr	x0, [x0]
ffff00000000c788:	f100001f 	cmp	x0, #0x0
ffff00000000c78c:	54000100 	b.eq	ffff00000000c7ac <sd_init+0x4f8>
ffff00000000c790:	d0000020 	adrp	x0, ffff000000012000 <sys_call_table+0x1c8>
ffff00000000c794:	91162000 	add	x0, x0, #0x588
ffff00000000c798:	97fffb24 	bl	ffff00000000b428 <uart_puts>
ffff00000000c79c:	90000480 	adrp	x0, ffff00000009c000 <task+0x18>
ffff00000000c7a0:	9121e000 	add	x0, x0, #0x878
ffff00000000c7a4:	f9400000 	ldr	x0, [x0]
ffff00000000c7a8:	140000e2 	b	ffff00000000cb30 <sd_init+0x87c>
ffff00000000c7ac:	f94017a0 	ldr	x0, [x29,#40]
ffff00000000c7b0:	92610000 	and	x0, x0, #0x80000000
ffff00000000c7b4:	f100001f 	cmp	x0, #0x0
ffff00000000c7b8:	540000c1 	b.ne	ffff00000000c7d0 <sd_init+0x51c>
ffff00000000c7bc:	f94013a0 	ldr	x0, [x29,#32]
ffff00000000c7c0:	d1000401 	sub	x1, x0, #0x1
ffff00000000c7c4:	f90013a1 	str	x1, [x29,#32]
ffff00000000c7c8:	f100001f 	cmp	x0, #0x0
ffff00000000c7cc:	54fff7c1 	b.ne	ffff00000000c6c4 <sd_init+0x410>
ffff00000000c7d0:	f94017a0 	ldr	x0, [x29,#40]
ffff00000000c7d4:	92610000 	and	x0, x0, #0x80000000
ffff00000000c7d8:	f100001f 	cmp	x0, #0x0
ffff00000000c7dc:	54000080 	b.eq	ffff00000000c7ec <sd_init+0x538>
ffff00000000c7e0:	f94013a0 	ldr	x0, [x29,#32]
ffff00000000c7e4:	f100001f 	cmp	x0, #0x0
ffff00000000c7e8:	54000061 	b.ne	ffff00000000c7f4 <sd_init+0x540>
ffff00000000c7ec:	52800040 	mov	w0, #0x2                   	// #2
ffff00000000c7f0:	140000d0 	b	ffff00000000cb30 <sd_init+0x87c>
ffff00000000c7f4:	f94017a0 	ldr	x0, [x29,#40]
ffff00000000c7f8:	92712000 	and	x0, x0, #0xff8000
ffff00000000c7fc:	f100001f 	cmp	x0, #0x0
ffff00000000c800:	54000061 	b.ne	ffff00000000c80c <sd_init+0x558>
ffff00000000c804:	52800020 	mov	w0, #0x1                   	// #1
ffff00000000c808:	140000ca 	b	ffff00000000cb30 <sd_init+0x87c>
ffff00000000c80c:	f94017a0 	ldr	x0, [x29,#40]
ffff00000000c810:	92620000 	and	x0, x0, #0x40000000
ffff00000000c814:	f100001f 	cmp	x0, #0x0
ffff00000000c818:	54000060 	b.eq	ffff00000000c824 <sd_init+0x570>
ffff00000000c81c:	d2800020 	mov	x0, #0x1                   	// #1
ffff00000000c820:	f9000fa0 	str	x0, [x29,#24]
ffff00000000c824:	52800001 	mov	w1, #0x0                   	// #0
ffff00000000c828:	52a04020 	mov	w0, #0x2010000             	// #33619968
ffff00000000c82c:	97fffc5b 	bl	ffff00000000b998 <sd_cmd>
ffff00000000c830:	52800001 	mov	w1, #0x0                   	// #0
ffff00000000c834:	52a06040 	mov	w0, #0x3020000             	// #50462720
ffff00000000c838:	97fffc58 	bl	ffff00000000b998 <sd_cmd>
ffff00000000c83c:	93407c01 	sxtw	x1, w0
ffff00000000c840:	90000480 	adrp	x0, ffff00000009c000 <task+0x18>
ffff00000000c844:	91220000 	add	x0, x0, #0x880
ffff00000000c848:	f9000001 	str	x1, [x0]
ffff00000000c84c:	d0000020 	adrp	x0, ffff000000012000 <sys_call_table+0x1c8>
ffff00000000c850:	9116c000 	add	x0, x0, #0x5b0
ffff00000000c854:	97fffaf5 	bl	ffff00000000b428 <uart_puts>
ffff00000000c858:	90000480 	adrp	x0, ffff00000009c000 <task+0x18>
ffff00000000c85c:	91220000 	add	x0, x0, #0x880
ffff00000000c860:	f9400000 	ldr	x0, [x0]
ffff00000000c864:	d360fc00 	lsr	x0, x0, #32
ffff00000000c868:	97fffad0 	bl	ffff00000000b3a8 <uart_hex>
ffff00000000c86c:	90000480 	adrp	x0, ffff00000009c000 <task+0x18>
ffff00000000c870:	91220000 	add	x0, x0, #0x880
ffff00000000c874:	f9400000 	ldr	x0, [x0]
ffff00000000c878:	97fffacc 	bl	ffff00000000b3a8 <uart_hex>
ffff00000000c87c:	d0000020 	adrp	x0, ffff000000012000 <sys_call_table+0x1c8>
ffff00000000c880:	91160000 	add	x0, x0, #0x580
ffff00000000c884:	97fffae9 	bl	ffff00000000b428 <uart_puts>
ffff00000000c888:	90000480 	adrp	x0, ffff00000009c000 <task+0x18>
ffff00000000c88c:	9121e000 	add	x0, x0, #0x878
ffff00000000c890:	f9400000 	ldr	x0, [x0]
ffff00000000c894:	f100001f 	cmp	x0, #0x0
ffff00000000c898:	540000a0 	b.eq	ffff00000000c8ac <sd_init+0x5f8>
ffff00000000c89c:	90000480 	adrp	x0, ffff00000009c000 <task+0x18>
ffff00000000c8a0:	9121e000 	add	x0, x0, #0x878
ffff00000000c8a4:	f9400000 	ldr	x0, [x0]
ffff00000000c8a8:	140000a2 	b	ffff00000000cb30 <sd_init+0x87c>
ffff00000000c8ac:	528f0800 	mov	w0, #0x7840                	// #30784
ffff00000000c8b0:	72a02fa0 	movk	w0, #0x17d, lsl #16
ffff00000000c8b4:	97fffdb7 	bl	ffff00000000bf90 <sd_clk>
ffff00000000c8b8:	93407c00 	sxtw	x0, w0
ffff00000000c8bc:	f90017a0 	str	x0, [x29,#40]
ffff00000000c8c0:	f94017a0 	ldr	x0, [x29,#40]
ffff00000000c8c4:	f100001f 	cmp	x0, #0x0
ffff00000000c8c8:	54000060 	b.eq	ffff00000000c8d4 <sd_init+0x620>
ffff00000000c8cc:	f94017a0 	ldr	x0, [x29,#40]
ffff00000000c8d0:	14000098 	b	ffff00000000cb30 <sd_init+0x87c>
ffff00000000c8d4:	90000480 	adrp	x0, ffff00000009c000 <task+0x18>
ffff00000000c8d8:	91220000 	add	x0, x0, #0x880
ffff00000000c8dc:	f9400000 	ldr	x0, [x0]
ffff00000000c8e0:	2a0003e1 	mov	w1, w0
ffff00000000c8e4:	52a0e060 	mov	w0, #0x7030000             	// #117637120
ffff00000000c8e8:	97fffc2c 	bl	ffff00000000b998 <sd_cmd>
ffff00000000c8ec:	90000480 	adrp	x0, ffff00000009c000 <task+0x18>
ffff00000000c8f0:	9121e000 	add	x0, x0, #0x878
ffff00000000c8f4:	f9400000 	ldr	x0, [x0]
ffff00000000c8f8:	f100001f 	cmp	x0, #0x0
ffff00000000c8fc:	540000a0 	b.eq	ffff00000000c910 <sd_init+0x65c>
ffff00000000c900:	90000480 	adrp	x0, ffff00000009c000 <task+0x18>
ffff00000000c904:	9121e000 	add	x0, x0, #0x878
ffff00000000c908:	f9400000 	ldr	x0, [x0]
ffff00000000c90c:	14000089 	b	ffff00000000cb30 <sd_init+0x87c>
ffff00000000c910:	52800040 	mov	w0, #0x2                   	// #2
ffff00000000c914:	97fffbaa 	bl	ffff00000000b7bc <sd_status>
ffff00000000c918:	7100001f 	cmp	w0, #0x0
ffff00000000c91c:	54000060 	b.eq	ffff00000000c928 <sd_init+0x674>
ffff00000000c920:	52800040 	mov	w0, #0x2                   	// #2
ffff00000000c924:	14000083 	b	ffff00000000cb30 <sd_init+0x87c>
ffff00000000c928:	d2800080 	mov	x0, #0x4                   	// #4
ffff00000000c92c:	f2a7e600 	movk	x0, #0x3f30, lsl #16
ffff00000000c930:	f2ffffe0 	movk	x0, #0xffff, lsl #48
ffff00000000c934:	52800101 	mov	w1, #0x8                   	// #8
ffff00000000c938:	72a00021 	movk	w1, #0x1, lsl #16
ffff00000000c93c:	b9000001 	str	w1, [x0]
ffff00000000c940:	52800001 	mov	w1, #0x0                   	// #0
ffff00000000c944:	52800200 	mov	w0, #0x10                  	// #16
ffff00000000c948:	72b66440 	movk	w0, #0xb322, lsl #16
ffff00000000c94c:	97fffc13 	bl	ffff00000000b998 <sd_cmd>
ffff00000000c950:	90000480 	adrp	x0, ffff00000009c000 <task+0x18>
ffff00000000c954:	9121e000 	add	x0, x0, #0x878
ffff00000000c958:	f9400000 	ldr	x0, [x0]
ffff00000000c95c:	f100001f 	cmp	x0, #0x0
ffff00000000c960:	540000a0 	b.eq	ffff00000000c974 <sd_init+0x6c0>
ffff00000000c964:	90000480 	adrp	x0, ffff00000009c000 <task+0x18>
ffff00000000c968:	9121e000 	add	x0, x0, #0x878
ffff00000000c96c:	f9400000 	ldr	x0, [x0]
ffff00000000c970:	14000070 	b	ffff00000000cb30 <sd_init+0x87c>
ffff00000000c974:	52800400 	mov	w0, #0x20                  	// #32
ffff00000000c978:	97fffbc1 	bl	ffff00000000b87c <sd_int>
ffff00000000c97c:	7100001f 	cmp	w0, #0x0
ffff00000000c980:	54000060 	b.eq	ffff00000000c98c <sd_init+0x6d8>
ffff00000000c984:	52800040 	mov	w0, #0x2                   	// #2
ffff00000000c988:	1400006a 	b	ffff00000000cb30 <sd_init+0x87c>
ffff00000000c98c:	f90017bf 	str	xzr, [x29,#40]
ffff00000000c990:	d290d400 	mov	x0, #0x86a0                	// #34464
ffff00000000c994:	f2a00020 	movk	x0, #0x1, lsl #16
ffff00000000c998:	f90013a0 	str	x0, [x29,#32]
ffff00000000c99c:	14000016 	b	ffff00000000c9f4 <sd_init+0x740>
ffff00000000c9a0:	d2800480 	mov	x0, #0x24                  	// #36
ffff00000000c9a4:	f2a7e600 	movk	x0, #0x3f30, lsl #16
ffff00000000c9a8:	f2ffffe0 	movk	x0, #0xffff, lsl #48
ffff00000000c9ac:	b9400000 	ldr	w0, [x0]
ffff00000000c9b0:	12150000 	and	w0, w0, #0x800
ffff00000000c9b4:	7100001f 	cmp	w0, #0x0
ffff00000000c9b8:	540001a0 	b.eq	ffff00000000c9ec <sd_init+0x738>
ffff00000000c9bc:	f94017a0 	ldr	x0, [x29,#40]
ffff00000000c9c0:	91000401 	add	x1, x0, #0x1
ffff00000000c9c4:	f90017a1 	str	x1, [x29,#40]
ffff00000000c9c8:	d2800401 	mov	x1, #0x20                  	// #32
ffff00000000c9cc:	f2a7e601 	movk	x1, #0x3f30, lsl #16
ffff00000000c9d0:	f2ffffe1 	movk	x1, #0xffff, lsl #48
ffff00000000c9d4:	b9400021 	ldr	w1, [x1]
ffff00000000c9d8:	2a0103e2 	mov	w2, w1
ffff00000000c9dc:	90000481 	adrp	x1, ffff00000009c000 <task+0x18>
ffff00000000c9e0:	91222021 	add	x1, x1, #0x888
ffff00000000c9e4:	f8207822 	str	x2, [x1,x0,lsl #3]
ffff00000000c9e8:	14000003 	b	ffff00000000c9f4 <sd_init+0x740>
ffff00000000c9ec:	52800020 	mov	w0, #0x1                   	// #1
ffff00000000c9f0:	97fffb55 	bl	ffff00000000b744 <wait_msec>
ffff00000000c9f4:	f94017a0 	ldr	x0, [x29,#40]
ffff00000000c9f8:	f100041f 	cmp	x0, #0x1
ffff00000000c9fc:	5400008c 	b.gt	ffff00000000ca0c <sd_init+0x758>
ffff00000000ca00:	f94013a0 	ldr	x0, [x29,#32]
ffff00000000ca04:	f100001f 	cmp	x0, #0x0
ffff00000000ca08:	54fffcc1 	b.ne	ffff00000000c9a0 <sd_init+0x6ec>
ffff00000000ca0c:	f94017a0 	ldr	x0, [x29,#40]
ffff00000000ca10:	f100081f 	cmp	x0, #0x2
ffff00000000ca14:	54000060 	b.eq	ffff00000000ca20 <sd_init+0x76c>
ffff00000000ca18:	52800040 	mov	w0, #0x2                   	// #2
ffff00000000ca1c:	14000045 	b	ffff00000000cb30 <sd_init+0x87c>
ffff00000000ca20:	90000480 	adrp	x0, ffff00000009c000 <task+0x18>
ffff00000000ca24:	91222000 	add	x0, x0, #0x888
ffff00000000ca28:	f9400000 	ldr	x0, [x0]
ffff00000000ca2c:	92760000 	and	x0, x0, #0x400
ffff00000000ca30:	f100001f 	cmp	x0, #0x0
ffff00000000ca34:	54000340 	b.eq	ffff00000000ca9c <sd_init+0x7e8>
ffff00000000ca38:	90000480 	adrp	x0, ffff00000009c000 <task+0x18>
ffff00000000ca3c:	91220000 	add	x0, x0, #0x880
ffff00000000ca40:	f9400000 	ldr	x0, [x0]
ffff00000000ca44:	321f0000 	orr	w0, w0, #0x2
ffff00000000ca48:	2a0003e1 	mov	w1, w0
ffff00000000ca4c:	52b0c040 	mov	w0, #0x86020000            	// #-2046689280
ffff00000000ca50:	97fffbd2 	bl	ffff00000000b998 <sd_cmd>
ffff00000000ca54:	90000480 	adrp	x0, ffff00000009c000 <task+0x18>
ffff00000000ca58:	9121e000 	add	x0, x0, #0x878
ffff00000000ca5c:	f9400000 	ldr	x0, [x0]
ffff00000000ca60:	f100001f 	cmp	x0, #0x0
ffff00000000ca64:	540000a0 	b.eq	ffff00000000ca78 <sd_init+0x7c4>
ffff00000000ca68:	90000480 	adrp	x0, ffff00000009c000 <task+0x18>
ffff00000000ca6c:	9121e000 	add	x0, x0, #0x878
ffff00000000ca70:	f9400000 	ldr	x0, [x0]
ffff00000000ca74:	1400002f 	b	ffff00000000cb30 <sd_init+0x87c>
ffff00000000ca78:	d2800500 	mov	x0, #0x28                  	// #40
ffff00000000ca7c:	f2a7e600 	movk	x0, #0x3f30, lsl #16
ffff00000000ca80:	f2ffffe0 	movk	x0, #0xffff, lsl #48
ffff00000000ca84:	d2800501 	mov	x1, #0x28                  	// #40
ffff00000000ca88:	f2a7e601 	movk	x1, #0x3f30, lsl #16
ffff00000000ca8c:	f2ffffe1 	movk	x1, #0xffff, lsl #48
ffff00000000ca90:	b9400021 	ldr	w1, [x1]
ffff00000000ca94:	321f0021 	orr	w1, w1, #0x2
ffff00000000ca98:	b9000001 	str	w1, [x0]
ffff00000000ca9c:	d0000020 	adrp	x0, ffff000000012000 <sys_call_table+0x1c8>
ffff00000000caa0:	91176000 	add	x0, x0, #0x5d8
ffff00000000caa4:	97fffa61 	bl	ffff00000000b428 <uart_puts>
ffff00000000caa8:	90000480 	adrp	x0, ffff00000009c000 <task+0x18>
ffff00000000caac:	91222000 	add	x0, x0, #0x888
ffff00000000cab0:	f9400000 	ldr	x0, [x0]
ffff00000000cab4:	92670000 	and	x0, x0, #0x2000000
ffff00000000cab8:	f100001f 	cmp	x0, #0x0
ffff00000000cabc:	54000080 	b.eq	ffff00000000cacc <sd_init+0x818>
ffff00000000cac0:	d0000020 	adrp	x0, ffff000000012000 <sys_call_table+0x1c8>
ffff00000000cac4:	9117a000 	add	x0, x0, #0x5e8
ffff00000000cac8:	97fffa58 	bl	ffff00000000b428 <uart_puts>
ffff00000000cacc:	f9400fa0 	ldr	x0, [x29,#24]
ffff00000000cad0:	f100001f 	cmp	x0, #0x0
ffff00000000cad4:	54000080 	b.eq	ffff00000000cae4 <sd_init+0x830>
ffff00000000cad8:	d0000020 	adrp	x0, ffff000000012000 <sys_call_table+0x1c8>
ffff00000000cadc:	9115e000 	add	x0, x0, #0x578
ffff00000000cae0:	97fffa52 	bl	ffff00000000b428 <uart_puts>
ffff00000000cae4:	d0000020 	adrp	x0, ffff000000012000 <sys_call_table+0x1c8>
ffff00000000cae8:	91160000 	add	x0, x0, #0x580
ffff00000000caec:	97fffa4f 	bl	ffff00000000b428 <uart_puts>
ffff00000000caf0:	90000480 	adrp	x0, ffff00000009c000 <task+0x18>
ffff00000000caf4:	91222000 	add	x0, x0, #0x888
ffff00000000caf8:	f9400000 	ldr	x0, [x0]
ffff00000000cafc:	927ff801 	and	x1, x0, #0xfffffffffffffffe
ffff00000000cb00:	90000480 	adrp	x0, ffff00000009c000 <task+0x18>
ffff00000000cb04:	91222000 	add	x0, x0, #0x888
ffff00000000cb08:	f9000001 	str	x1, [x0]
ffff00000000cb0c:	90000480 	adrp	x0, ffff00000009c000 <task+0x18>
ffff00000000cb10:	91222000 	add	x0, x0, #0x888
ffff00000000cb14:	f9400001 	ldr	x1, [x0]
ffff00000000cb18:	f9400fa0 	ldr	x0, [x29,#24]
ffff00000000cb1c:	aa000021 	orr	x1, x1, x0
ffff00000000cb20:	90000480 	adrp	x0, ffff00000009c000 <task+0x18>
ffff00000000cb24:	91222000 	add	x0, x0, #0x888
ffff00000000cb28:	f9000001 	str	x1, [x0]
ffff00000000cb2c:	52800000 	mov	w0, #0x0                   	// #0
ffff00000000cb30:	a8c37bfd 	ldp	x29, x30, [sp],#48
ffff00000000cb34:	d65f03c0 	ret

ffff00000000cb38 <ls_dev>:
ffff00000000cb38:	a9be7bfd 	stp	x29, x30, [sp,#-32]!
ffff00000000cb3c:	910003fd 	mov	x29, sp
ffff00000000cb40:	d0000020 	adrp	x0, ffff000000012000 <sys_call_table+0x1c8>
ffff00000000cb44:	9117e000 	add	x0, x0, #0x5f8
ffff00000000cb48:	97ffe2f0 	bl	ffff000000005708 <tfp_printf>
ffff00000000cb4c:	b9001fbf 	str	wzr, [x29,#28]
ffff00000000cb50:	14000063 	b	ffff00000000ccdc <ls_dev+0x1a4>
ffff00000000cb54:	f0000460 	adrp	x0, ffff00000009b000 <thread_id_table+0x75d0>
ffff00000000cb58:	91298001 	add	x1, x0, #0xa60
ffff00000000cb5c:	b9801fa2 	ldrsw	x2, [x29,#28]
ffff00000000cb60:	d2800a80 	mov	x0, #0x54                  	// #84
ffff00000000cb64:	9b007c40 	mul	x0, x2, x0
ffff00000000cb68:	8b000020 	add	x0, x1, x0
ffff00000000cb6c:	91001000 	add	x0, x0, #0x4
ffff00000000cb70:	b9400000 	ldr	w0, [x0]
ffff00000000cb74:	7100001f 	cmp	w0, #0x0
ffff00000000cb78:	54000ba0 	b.eq	ffff00000000ccec <ls_dev+0x1b4>
ffff00000000cb7c:	b9401fa0 	ldr	w0, [x29,#28]
ffff00000000cb80:	11000401 	add	w1, w0, #0x1
ffff00000000cb84:	d0000020 	adrp	x0, ffff000000012000 <sys_call_table+0x1c8>
ffff00000000cb88:	9118a000 	add	x0, x0, #0x628
ffff00000000cb8c:	97ffe2df 	bl	ffff000000005708 <tfp_printf>
ffff00000000cb90:	f0000460 	adrp	x0, ffff00000009b000 <thread_id_table+0x75d0>
ffff00000000cb94:	91298001 	add	x1, x0, #0xa60
ffff00000000cb98:	b9801fa2 	ldrsw	x2, [x29,#28]
ffff00000000cb9c:	d2800a80 	mov	x0, #0x54                  	// #84
ffff00000000cba0:	9b007c40 	mul	x0, x2, x0
ffff00000000cba4:	8b000020 	add	x0, x1, x0
ffff00000000cba8:	91002000 	add	x0, x0, #0x8
ffff00000000cbac:	b9400000 	ldr	w0, [x0]
ffff00000000cbb0:	7100301f 	cmp	w0, #0xc
ffff00000000cbb4:	54000080 	b.eq	ffff00000000cbc4 <ls_dev+0x8c>
ffff00000000cbb8:	7100381f 	cmp	w0, #0xe
ffff00000000cbbc:	540003e0 	b.eq	ffff00000000cc38 <ls_dev+0x100>
ffff00000000cbc0:	14000040 	b	ffff00000000ccc0 <ls_dev+0x188>
ffff00000000cbc4:	d0000020 	adrp	x0, ffff000000012000 <sys_call_table+0x1c8>
ffff00000000cbc8:	9118e000 	add	x0, x0, #0x638
ffff00000000cbcc:	97ffe2cf 	bl	ffff000000005708 <tfp_printf>
ffff00000000cbd0:	d0000020 	adrp	x0, ffff000000012000 <sys_call_table+0x1c8>
ffff00000000cbd4:	91192000 	add	x0, x0, #0x648
ffff00000000cbd8:	97ffe2cc 	bl	ffff000000005708 <tfp_printf>
ffff00000000cbdc:	b9401fa0 	ldr	w0, [x29,#28]
ffff00000000cbe0:	7100001f 	cmp	w0, #0x0
ffff00000000cbe4:	54000161 	b.ne	ffff00000000cc10 <ls_dev+0xd8>
ffff00000000cbe8:	b9801fa1 	ldrsw	x1, [x29,#28]
ffff00000000cbec:	d2800160 	mov	x0, #0xb                   	// #11
ffff00000000cbf0:	9b007c21 	mul	x1, x1, x0
ffff00000000cbf4:	f0000460 	adrp	x0, ffff00000009b000 <thread_id_table+0x75d0>
ffff00000000cbf8:	9128c000 	add	x0, x0, #0xa30
ffff00000000cbfc:	8b000021 	add	x1, x1, x0
ffff00000000cc00:	d0000020 	adrp	x0, ffff000000012000 <sys_call_table+0x1c8>
ffff00000000cc04:	91196000 	add	x0, x0, #0x658
ffff00000000cc08:	97ffe2c0 	bl	ffff000000005708 <tfp_printf>
ffff00000000cc0c:	14000031 	b	ffff00000000ccd0 <ls_dev+0x198>
ffff00000000cc10:	b9801fa1 	ldrsw	x1, [x29,#28]
ffff00000000cc14:	d2800160 	mov	x0, #0xb                   	// #11
ffff00000000cc18:	9b007c21 	mul	x1, x1, x0
ffff00000000cc1c:	f0000460 	adrp	x0, ffff00000009b000 <thread_id_table+0x75d0>
ffff00000000cc20:	9128c000 	add	x0, x0, #0xa30
ffff00000000cc24:	8b000021 	add	x1, x1, x0
ffff00000000cc28:	d0000020 	adrp	x0, ffff000000012000 <sys_call_table+0x1c8>
ffff00000000cc2c:	9119e000 	add	x0, x0, #0x678
ffff00000000cc30:	97ffe2b6 	bl	ffff000000005708 <tfp_printf>
ffff00000000cc34:	14000027 	b	ffff00000000ccd0 <ls_dev+0x198>
ffff00000000cc38:	d0000020 	adrp	x0, ffff000000012000 <sys_call_table+0x1c8>
ffff00000000cc3c:	911a2000 	add	x0, x0, #0x688
ffff00000000cc40:	97ffe2b2 	bl	ffff000000005708 <tfp_printf>
ffff00000000cc44:	f0000460 	adrp	x0, ffff00000009b000 <thread_id_table+0x75d0>
ffff00000000cc48:	91298001 	add	x1, x0, #0xa60
ffff00000000cc4c:	b9801fa2 	ldrsw	x2, [x29,#28]
ffff00000000cc50:	d2800a80 	mov	x0, #0x54                  	// #84
ffff00000000cc54:	9b007c40 	mul	x0, x2, x0
ffff00000000cc58:	8b000020 	add	x0, x1, x0
ffff00000000cc5c:	91002000 	add	x0, x0, #0x8
ffff00000000cc60:	b9400000 	ldr	w0, [x0]
ffff00000000cc64:	97ffd6ec 	bl	ffff000000002814 <fs_type_support>
ffff00000000cc68:	f100001f 	cmp	x0, #0x0
ffff00000000cc6c:	540001c0 	b.eq	ffff00000000cca4 <ls_dev+0x16c>
ffff00000000cc70:	d0000020 	adrp	x0, ffff000000012000 <sys_call_table+0x1c8>
ffff00000000cc74:	91192000 	add	x0, x0, #0x648
ffff00000000cc78:	97ffe2a4 	bl	ffff000000005708 <tfp_printf>
ffff00000000cc7c:	b9801fa1 	ldrsw	x1, [x29,#28]
ffff00000000cc80:	d2800160 	mov	x0, #0xb                   	// #11
ffff00000000cc84:	9b007c21 	mul	x1, x1, x0
ffff00000000cc88:	f0000460 	adrp	x0, ffff00000009b000 <thread_id_table+0x75d0>
ffff00000000cc8c:	9128c000 	add	x0, x0, #0xa30
ffff00000000cc90:	8b000021 	add	x1, x1, x0
ffff00000000cc94:	d0000020 	adrp	x0, ffff000000012000 <sys_call_table+0x1c8>
ffff00000000cc98:	9119e000 	add	x0, x0, #0x678
ffff00000000cc9c:	97ffe29b 	bl	ffff000000005708 <tfp_printf>
ffff00000000cca0:	1400000c 	b	ffff00000000ccd0 <ls_dev+0x198>
ffff00000000cca4:	d0000020 	adrp	x0, ffff000000012000 <sys_call_table+0x1c8>
ffff00000000cca8:	911a6000 	add	x0, x0, #0x698
ffff00000000ccac:	97ffe297 	bl	ffff000000005708 <tfp_printf>
ffff00000000ccb0:	d0000020 	adrp	x0, ffff000000012000 <sys_call_table+0x1c8>
ffff00000000ccb4:	911a8000 	add	x0, x0, #0x6a0
ffff00000000ccb8:	97ffe294 	bl	ffff000000005708 <tfp_printf>
ffff00000000ccbc:	14000005 	b	ffff00000000ccd0 <ls_dev+0x198>
ffff00000000ccc0:	d0000020 	adrp	x0, ffff000000012000 <sys_call_table+0x1c8>
ffff00000000ccc4:	911ac000 	add	x0, x0, #0x6b0
ffff00000000ccc8:	97ffe290 	bl	ffff000000005708 <tfp_printf>
ffff00000000cccc:	d503201f 	nop
ffff00000000ccd0:	b9401fa0 	ldr	w0, [x29,#28]
ffff00000000ccd4:	11000400 	add	w0, w0, #0x1
ffff00000000ccd8:	b9001fa0 	str	w0, [x29,#28]
ffff00000000ccdc:	b9401fa0 	ldr	w0, [x29,#28]
ffff00000000cce0:	71000c1f 	cmp	w0, #0x3
ffff00000000cce4:	54fff38d 	b.le	ffff00000000cb54 <ls_dev+0x1c>
ffff00000000cce8:	14000002 	b	ffff00000000ccf0 <ls_dev+0x1b8>
ffff00000000ccec:	d503201f 	nop
ffff00000000ccf0:	d503201f 	nop
ffff00000000ccf4:	a8c27bfd 	ldp	x29, x30, [sp],#32
ffff00000000ccf8:	d65f03c0 	ret

ffff00000000ccfc <compt_file>:
ffff00000000ccfc:	a9b67bfd 	stp	x29, x30, [sp,#-160]!
ffff00000000cd00:	910003fd 	mov	x29, sp
ffff00000000cd04:	f9000fa0 	str	x0, [x29,#24]
ffff00000000cd08:	b90093bf 	str	wzr, [x29,#144]
ffff00000000cd0c:	f90047bf 	str	xzr, [x29,#136]
ffff00000000cd10:	b9009fbf 	str	wzr, [x29,#156]
ffff00000000cd14:	1400019a 	b	ffff00000000d37c <compt_file+0x680>
ffff00000000cd18:	b9809fa1 	ldrsw	x1, [x29,#156]
ffff00000000cd1c:	d2800380 	mov	x0, #0x1c                  	// #28
ffff00000000cd20:	9b007c21 	mul	x1, x1, x0
ffff00000000cd24:	f0000460 	adrp	x0, ffff00000009b000 <thread_id_table+0x75d0>
ffff00000000cd28:	912ec000 	add	x0, x0, #0xbb0
ffff00000000cd2c:	8b000020 	add	x0, x1, x0
ffff00000000cd30:	aa0003e3 	mov	x3, x0
ffff00000000cd34:	f9400fa0 	ldr	x0, [x29,#24]
ffff00000000cd38:	d2800102 	mov	x2, #0x8                   	// #8
ffff00000000cd3c:	aa0003e1 	mov	x1, x0
ffff00000000cd40:	aa0303e0 	mov	x0, x3
ffff00000000cd44:	94000e8b 	bl	ffff000000010770 <memcmp>
ffff00000000cd48:	7100001f 	cmp	w0, #0x0
ffff00000000cd4c:	54003121 	b.ne	ffff00000000d370 <compt_file+0x674>
ffff00000000cd50:	f0000460 	adrp	x0, ffff00000009b000 <thread_id_table+0x75d0>
ffff00000000cd54:	912ec001 	add	x1, x0, #0xbb0
ffff00000000cd58:	b9809fa2 	ldrsw	x2, [x29,#156]
ffff00000000cd5c:	d2800380 	mov	x0, #0x1c                  	// #28
ffff00000000cd60:	9b007c40 	mul	x0, x2, x0
ffff00000000cd64:	8b000020 	add	x0, x1, x0
ffff00000000cd68:	91006000 	add	x0, x0, #0x18
ffff00000000cd6c:	79400000 	ldrh	w0, [x0]
ffff00000000cd70:	53103c00 	lsl	w0, w0, #16
ffff00000000cd74:	f0000461 	adrp	x1, ffff00000009b000 <thread_id_table+0x75d0>
ffff00000000cd78:	912ec022 	add	x2, x1, #0xbb0
ffff00000000cd7c:	b9809fa3 	ldrsw	x3, [x29,#156]
ffff00000000cd80:	d2800381 	mov	x1, #0x1c                  	// #28
ffff00000000cd84:	9b017c61 	mul	x1, x3, x1
ffff00000000cd88:	8b010041 	add	x1, x2, x1
ffff00000000cd8c:	91006821 	add	x1, x1, #0x1a
ffff00000000cd90:	79400021 	ldrh	w1, [x1]
ffff00000000cd94:	2a010000 	orr	w0, w0, w1
ffff00000000cd98:	b90093a0 	str	w0, [x29,#144]
ffff00000000cd9c:	b94093a0 	ldr	w0, [x29,#144]
ffff00000000cda0:	7100001f 	cmp	w0, #0x0
ffff00000000cda4:	54002d80 	b.eq	ffff00000000d354 <compt_file+0x658>
ffff00000000cda8:	d0000020 	adrp	x0, ffff000000012000 <sys_call_table+0x1c8>
ffff00000000cdac:	911b4000 	add	x0, x0, #0x6d0
ffff00000000cdb0:	97ffe256 	bl	ffff000000005708 <tfp_printf>
ffff00000000cdb4:	b9009bbf 	str	wzr, [x29,#152]
ffff00000000cdb8:	14000019 	b	ffff00000000ce1c <compt_file+0x120>
ffff00000000cdbc:	90000480 	adrp	x0, ffff00000009c000 <task+0x18>
ffff00000000cdc0:	91228001 	add	x1, x0, #0x8a0
ffff00000000cdc4:	b9809ba2 	ldrsw	x2, [x29,#152]
ffff00000000cdc8:	d2800300 	mov	x0, #0x18                  	// #24
ffff00000000cdcc:	9b007c40 	mul	x0, x2, x0
ffff00000000cdd0:	8b000020 	add	x0, x1, x0
ffff00000000cdd4:	39400000 	ldrb	w0, [x0]
ffff00000000cdd8:	7100001f 	cmp	w0, #0x0
ffff00000000cddc:	540001a1 	b.ne	ffff00000000ce10 <compt_file+0x114>
ffff00000000cde0:	f9400fa3 	ldr	x3, [x29,#24]
ffff00000000cde4:	b9809ba1 	ldrsw	x1, [x29,#152]
ffff00000000cde8:	d2800300 	mov	x0, #0x18                  	// #24
ffff00000000cdec:	9b007c21 	mul	x1, x1, x0
ffff00000000cdf0:	90000480 	adrp	x0, ffff00000009c000 <task+0x18>
ffff00000000cdf4:	91228000 	add	x0, x0, #0x8a0
ffff00000000cdf8:	8b000020 	add	x0, x1, x0
ffff00000000cdfc:	d2800102 	mov	x2, #0x8                   	// #8
ffff00000000ce00:	aa0003e1 	mov	x1, x0
ffff00000000ce04:	aa0303e0 	mov	x0, x3
ffff00000000ce08:	94000e55 	bl	ffff00000001075c <memcpy>
ffff00000000ce0c:	14000007 	b	ffff00000000ce28 <compt_file+0x12c>
ffff00000000ce10:	b9409ba0 	ldr	w0, [x29,#152]
ffff00000000ce14:	11000400 	add	w0, w0, #0x1
ffff00000000ce18:	b9009ba0 	str	w0, [x29,#152]
ffff00000000ce1c:	b9409ba0 	ldr	w0, [x29,#152]
ffff00000000ce20:	71007c1f 	cmp	w0, #0x1f
ffff00000000ce24:	54fffccd 	b.le	ffff00000000cdbc <compt_file+0xc0>
ffff00000000ce28:	f0000020 	adrp	x0, ffff000000013000 <sdCommandTable+0x110>
ffff00000000ce2c:	910b0000 	add	x0, x0, #0x2c0
ffff00000000ce30:	b9400002 	ldr	w2, [x0]
ffff00000000ce34:	f0000460 	adrp	x0, ffff00000009b000 <thread_id_table+0x75d0>
ffff00000000ce38:	91298001 	add	x1, x0, #0xa60
ffff00000000ce3c:	93407c42 	sxtw	x2, w2
ffff00000000ce40:	d2800a80 	mov	x0, #0x54                  	// #84
ffff00000000ce44:	9b007c40 	mul	x0, x2, x0
ffff00000000ce48:	8b000020 	add	x0, x1, x0
ffff00000000ce4c:	91002000 	add	x0, x0, #0x8
ffff00000000ce50:	b9400000 	ldr	w0, [x0]
ffff00000000ce54:	97ffd670 	bl	ffff000000002814 <fs_type_support>
ffff00000000ce58:	f90043a0 	str	x0, [x29,#128]
ffff00000000ce5c:	f0000020 	adrp	x0, ffff000000013000 <sdCommandTable+0x110>
ffff00000000ce60:	910b0000 	add	x0, x0, #0x2c0
ffff00000000ce64:	b9400000 	ldr	w0, [x0]
ffff00000000ce68:	93407c01 	sxtw	x1, w0
ffff00000000ce6c:	d2800a80 	mov	x0, #0x54                  	// #84
ffff00000000ce70:	9b007c21 	mul	x1, x1, x0
ffff00000000ce74:	f0000460 	adrp	x0, ffff00000009b000 <thread_id_table+0x75d0>
ffff00000000ce78:	91298000 	add	x0, x0, #0xa60
ffff00000000ce7c:	8b000020 	add	x0, x1, x0
ffff00000000ce80:	f9003fa0 	str	x0, [x29,#120]
ffff00000000ce84:	f94043a0 	ldr	x0, [x29,#128]
ffff00000000ce88:	f100001f 	cmp	x0, #0x0
ffff00000000ce8c:	540005a0 	b.eq	ffff00000000cf40 <compt_file+0x244>
ffff00000000ce90:	90ffffa0 	adrp	x0, ffff000000000000 <_start>
ffff00000000ce94:	91000001 	add	x1, x0, #0x0
ffff00000000ce98:	f94043a0 	ldr	x0, [x29,#128]
ffff00000000ce9c:	b9400c00 	ldr	w0, [x0,#12]
ffff00000000cea0:	90ffffa2 	adrp	x2, ffff000000000000 <_start>
ffff00000000cea4:	91000042 	add	x2, x2, #0x0
ffff00000000cea8:	4b020000 	sub	w0, w0, w2
ffff00000000ceac:	2a0003e0 	mov	w0, w0
ffff00000000ceb0:	8b000020 	add	x0, x1, x0
ffff00000000ceb4:	b94093a1 	ldr	w1, [x29,#144]
ffff00000000ceb8:	f9403fa2 	ldr	x2, [x29,#120]
ffff00000000cebc:	940012c8 	bl	ffff0000000119dc <bl_init>
ffff00000000cec0:	f90047a0 	str	x0, [x29,#136]
ffff00000000cec4:	f0000460 	adrp	x0, ffff00000009b000 <thread_id_table+0x75d0>
ffff00000000cec8:	912ec001 	add	x1, x0, #0xbb0
ffff00000000cecc:	b9809fa2 	ldrsw	x2, [x29,#156]
ffff00000000ced0:	d2800380 	mov	x0, #0x1c                  	// #28
ffff00000000ced4:	9b007c40 	mul	x0, x2, x0
ffff00000000ced8:	8b000020 	add	x0, x1, x0
ffff00000000cedc:	91005000 	add	x0, x0, #0x14
ffff00000000cee0:	b9400000 	ldr	w0, [x0]
ffff00000000cee4:	2a0003e0 	mov	w0, w0
ffff00000000cee8:	f9003ba0 	str	x0, [x29,#112]
ffff00000000ceec:	d0000020 	adrp	x0, ffff000000012000 <sys_call_table+0x1c8>
ffff00000000cef0:	911c0000 	add	x0, x0, #0x700
ffff00000000cef4:	97ffe205 	bl	ffff000000005708 <tfp_printf>
ffff00000000cef8:	d0000020 	adrp	x0, ffff000000012000 <sys_call_table+0x1c8>
ffff00000000cefc:	911c8000 	add	x0, x0, #0x720
ffff00000000cf00:	97ffe202 	bl	ffff000000005708 <tfp_printf>
ffff00000000cf04:	9100c3a3 	add	x3, x29, #0x30
ffff00000000cf08:	9100e3a2 	add	x2, x29, #0x38
ffff00000000cf0c:	910103a1 	add	x1, x29, #0x40
ffff00000000cf10:	910123a0 	add	x0, x29, #0x48
ffff00000000cf14:	aa0303e4 	mov	x4, x3
ffff00000000cf18:	aa0203e3 	mov	x3, x2
ffff00000000cf1c:	aa0103e2 	mov	x2, x1
ffff00000000cf20:	aa0003e1 	mov	x1, x0
ffff00000000cf24:	f94047a0 	ldr	x0, [x29,#136]
ffff00000000cf28:	9400066e 	bl	ffff00000000e8e0 <check_file_format>
ffff00000000cf2c:	b9006fa0 	str	w0, [x29,#108]
ffff00000000cf30:	b9406fa0 	ldr	w0, [x29,#108]
ffff00000000cf34:	7100001f 	cmp	w0, #0x0
ffff00000000cf38:	540002e1 	b.ne	ffff00000000cf94 <compt_file+0x298>
ffff00000000cf3c:	14000011 	b	ffff00000000cf80 <compt_file+0x284>
ffff00000000cf40:	f0000020 	adrp	x0, ffff000000013000 <sdCommandTable+0x110>
ffff00000000cf44:	910b0000 	add	x0, x0, #0x2c0
ffff00000000cf48:	b9400002 	ldr	w2, [x0]
ffff00000000cf4c:	f0000460 	adrp	x0, ffff00000009b000 <thread_id_table+0x75d0>
ffff00000000cf50:	91298001 	add	x1, x0, #0xa60
ffff00000000cf54:	93407c42 	sxtw	x2, w2
ffff00000000cf58:	d2800a80 	mov	x0, #0x54                  	// #84
ffff00000000cf5c:	9b007c40 	mul	x0, x2, x0
ffff00000000cf60:	8b000020 	add	x0, x1, x0
ffff00000000cf64:	91002000 	add	x0, x0, #0x8
ffff00000000cf68:	b9400001 	ldr	w1, [x0]
ffff00000000cf6c:	d0000020 	adrp	x0, ffff000000012000 <sys_call_table+0x1c8>
ffff00000000cf70:	911b6000 	add	x0, x0, #0x6d8
ffff00000000cf74:	97ffe1e5 	bl	ffff000000005708 <tfp_printf>
ffff00000000cf78:	52800000 	mov	w0, #0x0                   	// #0
ffff00000000cf7c:	1400010d 	b	ffff00000000d3b0 <compt_file+0x6b4>
ffff00000000cf80:	d0000020 	adrp	x0, ffff000000012000 <sys_call_table+0x1c8>
ffff00000000cf84:	911d8000 	add	x0, x0, #0x760
ffff00000000cf88:	97ffe1e0 	bl	ffff000000005708 <tfp_printf>
ffff00000000cf8c:	52800000 	mov	w0, #0x0                   	// #0
ffff00000000cf90:	14000108 	b	ffff00000000d3b0 <compt_file+0x6b4>
ffff00000000cf94:	b90097bf 	str	wzr, [x29,#148]
ffff00000000cf98:	1400000c 	b	ffff00000000cfc8 <compt_file+0x2cc>
ffff00000000cf9c:	f94027a1 	ldr	x1, [x29,#72]
ffff00000000cfa0:	f94047a0 	ldr	x0, [x29,#136]
ffff00000000cfa4:	8b000021 	add	x1, x1, x0
ffff00000000cfa8:	b98097a2 	ldrsw	x2, [x29,#148]
ffff00000000cfac:	f9401fa0 	ldr	x0, [x29,#56]
ffff00000000cfb0:	9b007c40 	mul	x0, x2, x0
ffff00000000cfb4:	8b000020 	add	x0, x1, x0
ffff00000000cfb8:	940005b1 	bl	ffff00000000e67c <find_sec_addr>
ffff00000000cfbc:	b94097a0 	ldr	w0, [x29,#148]
ffff00000000cfc0:	11000400 	add	w0, w0, #0x1
ffff00000000cfc4:	b90097a0 	str	w0, [x29,#148]
ffff00000000cfc8:	b98097a1 	ldrsw	x1, [x29,#148]
ffff00000000cfcc:	f94023a0 	ldr	x0, [x29,#64]
ffff00000000cfd0:	eb00003f 	cmp	x1, x0
ffff00000000cfd4:	54fffe43 	b.cc	ffff00000000cf9c <compt_file+0x2a0>
ffff00000000cfd8:	52820000 	mov	w0, #0x1000                	// #4096
ffff00000000cfdc:	97ffdbbc 	bl	ffff000000003ecc <allocate_kernel_page>
ffff00000000cfe0:	a90207a0 	stp	x0, x1, [x29,#32]
ffff00000000cfe4:	f94013a0 	ldr	x0, [x29,#32]
ffff00000000cfe8:	f90033a0 	str	x0, [x29,#96]
ffff00000000cfec:	f94033a1 	ldr	x1, [x29,#96]
ffff00000000cff0:	f0000420 	adrp	x0, ffff000000093000 <intFileIORecord+0xed0>
ffff00000000cff4:	91286000 	add	x0, x0, #0xa18
ffff00000000cff8:	f9000001 	str	x1, [x0]
ffff00000000cffc:	b0000480 	adrp	x0, ffff00000009d000 <ksym+0x320>
ffff00000000d000:	911b8000 	add	x0, x0, #0x6e0
ffff00000000d004:	f9400401 	ldr	x1, [x0,#8]
ffff00000000d008:	f94047a0 	ldr	x0, [x29,#136]
ffff00000000d00c:	8b000023 	add	x3, x1, x0
ffff00000000d010:	90000480 	adrp	x0, ffff00000009d000 <ksym+0x320>
ffff00000000d014:	911b8000 	add	x0, x0, #0x6e0
ffff00000000d018:	b9401000 	ldr	w0, [x0,#16]
ffff00000000d01c:	93407c00 	sxtw	x0, w0
ffff00000000d020:	aa0003e2 	mov	x2, x0
ffff00000000d024:	f94033a1 	ldr	x1, [x29,#96]
ffff00000000d028:	aa0303e0 	mov	x0, x3
ffff00000000d02c:	94000dcc 	bl	ffff00000001075c <memcpy>
ffff00000000d030:	90000480 	adrp	x0, ffff00000009d000 <ksym+0x320>
ffff00000000d034:	911b8000 	add	x0, x0, #0x6e0
ffff00000000d038:	b9401000 	ldr	w0, [x0,#16]
ffff00000000d03c:	93407c00 	sxtw	x0, w0
ffff00000000d040:	f94033a1 	ldr	x1, [x29,#96]
ffff00000000d044:	8b000020 	add	x0, x1, x0
ffff00000000d048:	f90033a0 	str	x0, [x29,#96]
ffff00000000d04c:	90000480 	adrp	x0, ffff00000009d000 <ksym+0x320>
ffff00000000d050:	911b8000 	add	x0, x0, #0x6e0
ffff00000000d054:	f9401001 	ldr	x1, [x0,#32]
ffff00000000d058:	f94047a0 	ldr	x0, [x29,#136]
ffff00000000d05c:	8b000023 	add	x3, x1, x0
ffff00000000d060:	90000480 	adrp	x0, ffff00000009d000 <ksym+0x320>
ffff00000000d064:	911b8000 	add	x0, x0, #0x6e0
ffff00000000d068:	b9402800 	ldr	w0, [x0,#40]
ffff00000000d06c:	93407c00 	sxtw	x0, w0
ffff00000000d070:	aa0003e2 	mov	x2, x0
ffff00000000d074:	f94033a1 	ldr	x1, [x29,#96]
ffff00000000d078:	aa0303e0 	mov	x0, x3
ffff00000000d07c:	94000db8 	bl	ffff00000001075c <memcpy>
ffff00000000d080:	90000480 	adrp	x0, ffff00000009d000 <ksym+0x320>
ffff00000000d084:	911b8000 	add	x0, x0, #0x6e0
ffff00000000d088:	b9402800 	ldr	w0, [x0,#40]
ffff00000000d08c:	93407c00 	sxtw	x0, w0
ffff00000000d090:	f94033a1 	ldr	x1, [x29,#96]
ffff00000000d094:	8b000020 	add	x0, x1, x0
ffff00000000d098:	f90033a0 	str	x0, [x29,#96]
ffff00000000d09c:	90000480 	adrp	x0, ffff00000009d000 <ksym+0x320>
ffff00000000d0a0:	911b8000 	add	x0, x0, #0x6e0
ffff00000000d0a4:	f9401c01 	ldr	x1, [x0,#56]
ffff00000000d0a8:	f94047a0 	ldr	x0, [x29,#136]
ffff00000000d0ac:	8b000023 	add	x3, x1, x0
ffff00000000d0b0:	90000480 	adrp	x0, ffff00000009d000 <ksym+0x320>
ffff00000000d0b4:	911b8000 	add	x0, x0, #0x6e0
ffff00000000d0b8:	b9404000 	ldr	w0, [x0,#64]
ffff00000000d0bc:	93407c00 	sxtw	x0, w0
ffff00000000d0c0:	aa0003e2 	mov	x2, x0
ffff00000000d0c4:	f94033a1 	ldr	x1, [x29,#96]
ffff00000000d0c8:	aa0303e0 	mov	x0, x3
ffff00000000d0cc:	94000da4 	bl	ffff00000001075c <memcpy>
ffff00000000d0d0:	90000480 	adrp	x0, ffff00000009d000 <ksym+0x320>
ffff00000000d0d4:	911b8000 	add	x0, x0, #0x6e0
ffff00000000d0d8:	b9404000 	ldr	w0, [x0,#64]
ffff00000000d0dc:	93407c00 	sxtw	x0, w0
ffff00000000d0e0:	f94033a1 	ldr	x1, [x29,#96]
ffff00000000d0e4:	8b000020 	add	x0, x1, x0
ffff00000000d0e8:	f90033a0 	str	x0, [x29,#96]
ffff00000000d0ec:	90000480 	adrp	x0, ffff00000009d000 <ksym+0x320>
ffff00000000d0f0:	911b8000 	add	x0, x0, #0x6e0
ffff00000000d0f4:	b9405800 	ldr	w0, [x0,#88]
ffff00000000d0f8:	93407c00 	sxtw	x0, w0
ffff00000000d0fc:	aa0003e1 	mov	x1, x0
ffff00000000d100:	f94033a0 	ldr	x0, [x29,#96]
ffff00000000d104:	94000da5 	bl	ffff000000010798 <memzero>
ffff00000000d108:	90000480 	adrp	x0, ffff00000009d000 <ksym+0x320>
ffff00000000d10c:	911b8000 	add	x0, x0, #0x6e0
ffff00000000d110:	b9405800 	ldr	w0, [x0,#88]
ffff00000000d114:	93407c00 	sxtw	x0, w0
ffff00000000d118:	f94033a1 	ldr	x1, [x29,#96]
ffff00000000d11c:	8b000020 	add	x0, x1, x0
ffff00000000d120:	f90033a0 	str	x0, [x29,#96]
ffff00000000d124:	90000480 	adrp	x0, ffff00000009d000 <ksym+0x320>
ffff00000000d128:	911b8000 	add	x0, x0, #0x6e0
ffff00000000d12c:	b9401001 	ldr	w1, [x0,#16]
ffff00000000d130:	90000480 	adrp	x0, ffff00000009d000 <ksym+0x320>
ffff00000000d134:	911b8000 	add	x0, x0, #0x6e0
ffff00000000d138:	b9402800 	ldr	w0, [x0,#40]
ffff00000000d13c:	0b000021 	add	w1, w1, w0
ffff00000000d140:	90000480 	adrp	x0, ffff00000009d000 <ksym+0x320>
ffff00000000d144:	911b8000 	add	x0, x0, #0x6e0
ffff00000000d148:	b9404000 	ldr	w0, [x0,#64]
ffff00000000d14c:	0b000021 	add	w1, w1, w0
ffff00000000d150:	90000480 	adrp	x0, ffff00000009d000 <ksym+0x320>
ffff00000000d154:	911b8000 	add	x0, x0, #0x6e0
ffff00000000d158:	b9405800 	ldr	w0, [x0,#88]
ffff00000000d15c:	0b000020 	add	w0, w1, w0
ffff00000000d160:	93407c00 	sxtw	x0, w0
ffff00000000d164:	f9002fa0 	str	x0, [x29,#88]
ffff00000000d168:	d0000420 	adrp	x0, ffff000000093000 <intFileIORecord+0xed0>
ffff00000000d16c:	91286000 	add	x0, x0, #0xa18
ffff00000000d170:	f9400006 	ldr	x6, [x0]
ffff00000000d174:	f94027a7 	ldr	x7, [x29,#72]
ffff00000000d178:	f9401fa2 	ldr	x2, [x29,#56]
ffff00000000d17c:	f94047a3 	ldr	x3, [x29,#136]
ffff00000000d180:	90000480 	adrp	x0, ffff00000009d000 <ksym+0x320>
ffff00000000d184:	911b8000 	add	x0, x0, #0x6e0
ffff00000000d188:	f9403401 	ldr	x1, [x0,#104]
ffff00000000d18c:	f94047a0 	ldr	x0, [x29,#136]
ffff00000000d190:	8b000020 	add	x0, x1, x0
ffff00000000d194:	aa0003e1 	mov	x1, x0
ffff00000000d198:	90000480 	adrp	x0, ffff00000009d000 <ksym+0x320>
ffff00000000d19c:	911b8000 	add	x0, x0, #0x6e0
ffff00000000d1a0:	b9407000 	ldr	w0, [x0,#112]
ffff00000000d1a4:	2a0003e5 	mov	w5, w0
ffff00000000d1a8:	aa0103e4 	mov	x4, x1
ffff00000000d1ac:	aa0703e1 	mov	x1, x7
ffff00000000d1b0:	aa0603e0 	mov	x0, x6
ffff00000000d1b4:	940003f5 	bl	ffff00000000e188 <relocate>
ffff00000000d1b8:	b90057a0 	str	w0, [x29,#84]
ffff00000000d1bc:	b94057a0 	ldr	w0, [x29,#84]
ffff00000000d1c0:	7100001f 	cmp	w0, #0x0
ffff00000000d1c4:	54000d21 	b.ne	ffff00000000d368 <compt_file+0x66c>
ffff00000000d1c8:	90000480 	adrp	x0, ffff00000009d000 <ksym+0x320>
ffff00000000d1cc:	911b8000 	add	x0, x0, #0x6e0
ffff00000000d1d0:	f9404001 	ldr	x1, [x0,#128]
ffff00000000d1d4:	f94047a0 	ldr	x0, [x29,#136]
ffff00000000d1d8:	8b000020 	add	x0, x1, x0
ffff00000000d1dc:	aa0003e4 	mov	x4, x0
ffff00000000d1e0:	90000480 	adrp	x0, ffff00000009d000 <ksym+0x320>
ffff00000000d1e4:	911b8000 	add	x0, x0, #0x6e0
ffff00000000d1e8:	b9408801 	ldr	w1, [x0,#136]
ffff00000000d1ec:	b0000020 	adrp	x0, ffff000000012000 <sys_call_table+0x1c8>
ffff00000000d1f0:	911de000 	add	x0, x0, #0x778
ffff00000000d1f4:	aa0003e3 	mov	x3, x0
ffff00000000d1f8:	2a0103e2 	mov	w2, w1
ffff00000000d1fc:	aa0403e1 	mov	x1, x4
ffff00000000d200:	f94047a0 	ldr	x0, [x29,#136]
ffff00000000d204:	9400035d 	bl	ffff00000000df78 <use_compt_func>
ffff00000000d208:	b90053a0 	str	w0, [x29,#80]
ffff00000000d20c:	90000480 	adrp	x0, ffff00000009d000 <ksym+0x320>
ffff00000000d210:	911b8000 	add	x0, x0, #0x6e0
ffff00000000d214:	f9404001 	ldr	x1, [x0,#128]
ffff00000000d218:	f94047a0 	ldr	x0, [x29,#136]
ffff00000000d21c:	8b000020 	add	x0, x1, x0
ffff00000000d220:	aa0003e4 	mov	x4, x0
ffff00000000d224:	90000480 	adrp	x0, ffff00000009d000 <ksym+0x320>
ffff00000000d228:	911b8000 	add	x0, x0, #0x6e0
ffff00000000d22c:	b9408801 	ldr	w1, [x0,#136]
ffff00000000d230:	b0000020 	adrp	x0, ffff000000012000 <sys_call_table+0x1c8>
ffff00000000d234:	911e2000 	add	x0, x0, #0x788
ffff00000000d238:	aa0003e3 	mov	x3, x0
ffff00000000d23c:	2a0103e2 	mov	w2, w1
ffff00000000d240:	aa0403e1 	mov	x1, x4
ffff00000000d244:	f94047a0 	ldr	x0, [x29,#136]
ffff00000000d248:	9400034c 	bl	ffff00000000df78 <use_compt_func>
ffff00000000d24c:	2a0003e1 	mov	w1, w0
ffff00000000d250:	d0000420 	adrp	x0, ffff000000093000 <intFileIORecord+0xed0>
ffff00000000d254:	91284000 	add	x0, x0, #0xa10
ffff00000000d258:	b9000001 	str	w1, [x0]
ffff00000000d25c:	90000480 	adrp	x0, ffff00000009d000 <ksym+0x320>
ffff00000000d260:	911b8000 	add	x0, x0, #0x6e0
ffff00000000d264:	f9404001 	ldr	x1, [x0,#128]
ffff00000000d268:	f94047a0 	ldr	x0, [x29,#136]
ffff00000000d26c:	8b000020 	add	x0, x1, x0
ffff00000000d270:	aa0003e4 	mov	x4, x0
ffff00000000d274:	90000480 	adrp	x0, ffff00000009d000 <ksym+0x320>
ffff00000000d278:	911b8000 	add	x0, x0, #0x6e0
ffff00000000d27c:	b9408801 	ldr	w1, [x0,#136]
ffff00000000d280:	b0000020 	adrp	x0, ffff000000012000 <sys_call_table+0x1c8>
ffff00000000d284:	911e6000 	add	x0, x0, #0x798
ffff00000000d288:	aa0003e3 	mov	x3, x0
ffff00000000d28c:	2a0103e2 	mov	w2, w1
ffff00000000d290:	aa0403e1 	mov	x1, x4
ffff00000000d294:	f94047a0 	ldr	x0, [x29,#136]
ffff00000000d298:	94000338 	bl	ffff00000000df78 <use_compt_func>
ffff00000000d29c:	2a0003e1 	mov	w1, w0
ffff00000000d2a0:	d0000420 	adrp	x0, ffff000000093000 <intFileIORecord+0xed0>
ffff00000000d2a4:	91285000 	add	x0, x0, #0xa14
ffff00000000d2a8:	b9000001 	str	w1, [x0]
ffff00000000d2ac:	d0000420 	adrp	x0, ffff000000093000 <intFileIORecord+0xed0>
ffff00000000d2b0:	91286000 	add	x0, x0, #0xa18
ffff00000000d2b4:	f9400001 	ldr	x1, [x0]
ffff00000000d2b8:	d0000420 	adrp	x0, ffff000000093000 <intFileIORecord+0xed0>
ffff00000000d2bc:	91285000 	add	x0, x0, #0xa14
ffff00000000d2c0:	b9400000 	ldr	w0, [x0]
ffff00000000d2c4:	93407c00 	sxtw	x0, w0
ffff00000000d2c8:	8b000020 	add	x0, x1, x0
ffff00000000d2cc:	aa0003e3 	mov	x3, x0
ffff00000000d2d0:	f0000460 	adrp	x0, ffff00000009c000 <task+0x18>
ffff00000000d2d4:	91228001 	add	x1, x0, #0x8a0
ffff00000000d2d8:	b9809ba2 	ldrsw	x2, [x29,#152]
ffff00000000d2dc:	d2800300 	mov	x0, #0x18                  	// #24
ffff00000000d2e0:	9b007c40 	mul	x0, x2, x0
ffff00000000d2e4:	8b000020 	add	x0, x1, x0
ffff00000000d2e8:	91004000 	add	x0, x0, #0x10
ffff00000000d2ec:	f9000003 	str	x3, [x0]
ffff00000000d2f0:	b94053a0 	ldr	w0, [x29,#80]
ffff00000000d2f4:	7100001f 	cmp	w0, #0x0
ffff00000000d2f8:	540000aa 	b.ge	ffff00000000d30c <compt_file+0x610>
ffff00000000d2fc:	b0000020 	adrp	x0, ffff000000012000 <sys_call_table+0x1c8>
ffff00000000d300:	911ea000 	add	x0, x0, #0x7a8
ffff00000000d304:	97ffe101 	bl	ffff000000005708 <tfp_printf>
ffff00000000d308:	14000018 	b	ffff00000000d368 <compt_file+0x66c>
ffff00000000d30c:	d0000420 	adrp	x0, ffff000000093000 <intFileIORecord+0xed0>
ffff00000000d310:	91285000 	add	x0, x0, #0xa14
ffff00000000d314:	b9400000 	ldr	w0, [x0]
ffff00000000d318:	7100001f 	cmp	w0, #0x0
ffff00000000d31c:	540000aa 	b.ge	ffff00000000d330 <compt_file+0x634>
ffff00000000d320:	b0000020 	adrp	x0, ffff000000012000 <sys_call_table+0x1c8>
ffff00000000d324:	911f2000 	add	x0, x0, #0x7c8
ffff00000000d328:	97ffe0f8 	bl	ffff000000005708 <tfp_printf>
ffff00000000d32c:	1400000f 	b	ffff00000000d368 <compt_file+0x66c>
ffff00000000d330:	d0000420 	adrp	x0, ffff000000093000 <intFileIORecord+0xed0>
ffff00000000d334:	91286000 	add	x0, x0, #0xa18
ffff00000000d338:	f9400000 	ldr	x0, [x0]
ffff00000000d33c:	aa0003e1 	mov	x1, x0
ffff00000000d340:	b98053a0 	ldrsw	x0, [x29,#80]
ffff00000000d344:	8b000020 	add	x0, x1, x0
ffff00000000d348:	d2800001 	mov	x1, #0x0                   	// #0
ffff00000000d34c:	940011a4 	bl	ffff0000000119dc <bl_init>
ffff00000000d350:	14000006 	b	ffff00000000d368 <compt_file+0x66c>
ffff00000000d354:	b0000020 	adrp	x0, ffff000000012000 <sys_call_table+0x1c8>
ffff00000000d358:	911fa000 	add	x0, x0, #0x7e8
ffff00000000d35c:	97ffe0eb 	bl	ffff000000005708 <tfp_printf>
ffff00000000d360:	52800000 	mov	w0, #0x0                   	// #0
ffff00000000d364:	14000013 	b	ffff00000000d3b0 <compt_file+0x6b4>
ffff00000000d368:	52800020 	mov	w0, #0x1                   	// #1
ffff00000000d36c:	14000011 	b	ffff00000000d3b0 <compt_file+0x6b4>
ffff00000000d370:	b9409fa0 	ldr	w0, [x29,#156]
ffff00000000d374:	11000400 	add	w0, w0, #0x1
ffff00000000d378:	b9009fa0 	str	w0, [x29,#156]
ffff00000000d37c:	d0000460 	adrp	x0, ffff00000009b000 <thread_id_table+0x75d0>
ffff00000000d380:	912ec001 	add	x1, x0, #0xbb0
ffff00000000d384:	b9809fa2 	ldrsw	x2, [x29,#156]
ffff00000000d388:	d2800380 	mov	x0, #0x1c                  	// #28
ffff00000000d38c:	9b007c40 	mul	x0, x2, x0
ffff00000000d390:	8b000020 	add	x0, x1, x0
ffff00000000d394:	39400000 	ldrb	w0, [x0]
ffff00000000d398:	7100001f 	cmp	w0, #0x0
ffff00000000d39c:	54ffcbe1 	b.ne	ffff00000000cd18 <compt_file+0x1c>
ffff00000000d3a0:	b0000020 	adrp	x0, ffff000000012000 <sys_call_table+0x1c8>
ffff00000000d3a4:	911fa000 	add	x0, x0, #0x7e8
ffff00000000d3a8:	97ffe0d8 	bl	ffff000000005708 <tfp_printf>
ffff00000000d3ac:	52800000 	mov	w0, #0x0                   	// #0
ffff00000000d3b0:	a8ca7bfd 	ldp	x29, x30, [sp],#160
ffff00000000d3b4:	d65f03c0 	ret

ffff00000000d3b8 <compt_fs_file>:
ffff00000000d3b8:	a9b57bfd 	stp	x29, x30, [sp,#-176]!
ffff00000000d3bc:	910003fd 	mov	x29, sp
ffff00000000d3c0:	f9000fa0 	str	x0, [x29,#24]
ffff00000000d3c4:	b900a3bf 	str	wzr, [x29,#160]
ffff00000000d3c8:	f9004fbf 	str	xzr, [x29,#152]
ffff00000000d3cc:	b900afbf 	str	wzr, [x29,#172]
ffff00000000d3d0:	1400018c 	b	ffff00000000da00 <compt_fs_file+0x648>
ffff00000000d3d4:	b980afa1 	ldrsw	x1, [x29,#172]
ffff00000000d3d8:	d2800380 	mov	x0, #0x1c                  	// #28
ffff00000000d3dc:	9b007c21 	mul	x1, x1, x0
ffff00000000d3e0:	d0000460 	adrp	x0, ffff00000009b000 <thread_id_table+0x75d0>
ffff00000000d3e4:	912ec000 	add	x0, x0, #0xbb0
ffff00000000d3e8:	8b000020 	add	x0, x1, x0
ffff00000000d3ec:	aa0003e3 	mov	x3, x0
ffff00000000d3f0:	f9400fa0 	ldr	x0, [x29,#24]
ffff00000000d3f4:	d2800102 	mov	x2, #0x8                   	// #8
ffff00000000d3f8:	aa0003e1 	mov	x1, x0
ffff00000000d3fc:	aa0303e0 	mov	x0, x3
ffff00000000d400:	94000cdc 	bl	ffff000000010770 <memcmp>
ffff00000000d404:	7100001f 	cmp	w0, #0x0
ffff00000000d408:	54002f61 	b.ne	ffff00000000d9f4 <compt_fs_file+0x63c>
ffff00000000d40c:	d0000460 	adrp	x0, ffff00000009b000 <thread_id_table+0x75d0>
ffff00000000d410:	912ec001 	add	x1, x0, #0xbb0
ffff00000000d414:	b980afa2 	ldrsw	x2, [x29,#172]
ffff00000000d418:	d2800380 	mov	x0, #0x1c                  	// #28
ffff00000000d41c:	9b007c40 	mul	x0, x2, x0
ffff00000000d420:	8b000020 	add	x0, x1, x0
ffff00000000d424:	91006000 	add	x0, x0, #0x18
ffff00000000d428:	79400000 	ldrh	w0, [x0]
ffff00000000d42c:	53103c00 	lsl	w0, w0, #16
ffff00000000d430:	d0000461 	adrp	x1, ffff00000009b000 <thread_id_table+0x75d0>
ffff00000000d434:	912ec022 	add	x2, x1, #0xbb0
ffff00000000d438:	b980afa3 	ldrsw	x3, [x29,#172]
ffff00000000d43c:	d2800381 	mov	x1, #0x1c                  	// #28
ffff00000000d440:	9b017c61 	mul	x1, x3, x1
ffff00000000d444:	8b010041 	add	x1, x2, x1
ffff00000000d448:	91006821 	add	x1, x1, #0x1a
ffff00000000d44c:	79400021 	ldrh	w1, [x1]
ffff00000000d450:	2a010000 	orr	w0, w0, w1
ffff00000000d454:	b900a3a0 	str	w0, [x29,#160]
ffff00000000d458:	b940a3a0 	ldr	w0, [x29,#160]
ffff00000000d45c:	7100001f 	cmp	w0, #0x0
ffff00000000d460:	54002bc0 	b.eq	ffff00000000d9d8 <compt_fs_file+0x620>
ffff00000000d464:	b0000020 	adrp	x0, ffff000000012000 <sys_call_table+0x1c8>
ffff00000000d468:	911b4000 	add	x0, x0, #0x6d0
ffff00000000d46c:	97ffe0a7 	bl	ffff000000005708 <tfp_printf>
ffff00000000d470:	b900abbf 	str	wzr, [x29,#168]
ffff00000000d474:	14000019 	b	ffff00000000d4d8 <compt_fs_file+0x120>
ffff00000000d478:	f0000460 	adrp	x0, ffff00000009c000 <task+0x18>
ffff00000000d47c:	91228001 	add	x1, x0, #0x8a0
ffff00000000d480:	b980aba2 	ldrsw	x2, [x29,#168]
ffff00000000d484:	d2800300 	mov	x0, #0x18                  	// #24
ffff00000000d488:	9b007c40 	mul	x0, x2, x0
ffff00000000d48c:	8b000020 	add	x0, x1, x0
ffff00000000d490:	39400000 	ldrb	w0, [x0]
ffff00000000d494:	7100001f 	cmp	w0, #0x0
ffff00000000d498:	540001a1 	b.ne	ffff00000000d4cc <compt_fs_file+0x114>
ffff00000000d49c:	f9400fa3 	ldr	x3, [x29,#24]
ffff00000000d4a0:	b980aba1 	ldrsw	x1, [x29,#168]
ffff00000000d4a4:	d2800300 	mov	x0, #0x18                  	// #24
ffff00000000d4a8:	9b007c21 	mul	x1, x1, x0
ffff00000000d4ac:	f0000460 	adrp	x0, ffff00000009c000 <task+0x18>
ffff00000000d4b0:	91228000 	add	x0, x0, #0x8a0
ffff00000000d4b4:	8b000020 	add	x0, x1, x0
ffff00000000d4b8:	d2800102 	mov	x2, #0x8                   	// #8
ffff00000000d4bc:	aa0003e1 	mov	x1, x0
ffff00000000d4c0:	aa0303e0 	mov	x0, x3
ffff00000000d4c4:	94000ca6 	bl	ffff00000001075c <memcpy>
ffff00000000d4c8:	14000007 	b	ffff00000000d4e4 <compt_fs_file+0x12c>
ffff00000000d4cc:	b940aba0 	ldr	w0, [x29,#168]
ffff00000000d4d0:	11000400 	add	w0, w0, #0x1
ffff00000000d4d4:	b900aba0 	str	w0, [x29,#168]
ffff00000000d4d8:	b940aba0 	ldr	w0, [x29,#168]
ffff00000000d4dc:	71007c1f 	cmp	w0, #0x1f
ffff00000000d4e0:	54fffccd 	b.le	ffff00000000d478 <compt_fs_file+0xc0>
ffff00000000d4e4:	d0000020 	adrp	x0, ffff000000013000 <sdCommandTable+0x110>
ffff00000000d4e8:	910b0000 	add	x0, x0, #0x2c0
ffff00000000d4ec:	b9400002 	ldr	w2, [x0]
ffff00000000d4f0:	d0000460 	adrp	x0, ffff00000009b000 <thread_id_table+0x75d0>
ffff00000000d4f4:	91298001 	add	x1, x0, #0xa60
ffff00000000d4f8:	93407c42 	sxtw	x2, w2
ffff00000000d4fc:	d2800a80 	mov	x0, #0x54                  	// #84
ffff00000000d500:	9b007c40 	mul	x0, x2, x0
ffff00000000d504:	8b000020 	add	x0, x1, x0
ffff00000000d508:	91002000 	add	x0, x0, #0x8
ffff00000000d50c:	b9400000 	ldr	w0, [x0]
ffff00000000d510:	97ffd4c1 	bl	ffff000000002814 <fs_type_support>
ffff00000000d514:	f9004ba0 	str	x0, [x29,#144]
ffff00000000d518:	d0000020 	adrp	x0, ffff000000013000 <sdCommandTable+0x110>
ffff00000000d51c:	910b0000 	add	x0, x0, #0x2c0
ffff00000000d520:	b9400000 	ldr	w0, [x0]
ffff00000000d524:	93407c01 	sxtw	x1, w0
ffff00000000d528:	d2800a80 	mov	x0, #0x54                  	// #84
ffff00000000d52c:	9b007c21 	mul	x1, x1, x0
ffff00000000d530:	d0000460 	adrp	x0, ffff00000009b000 <thread_id_table+0x75d0>
ffff00000000d534:	91298000 	add	x0, x0, #0xa60
ffff00000000d538:	8b000020 	add	x0, x1, x0
ffff00000000d53c:	f90047a0 	str	x0, [x29,#136]
ffff00000000d540:	f9404ba0 	ldr	x0, [x29,#144]
ffff00000000d544:	f100001f 	cmp	x0, #0x0
ffff00000000d548:	540005a0 	b.eq	ffff00000000d5fc <compt_fs_file+0x244>
ffff00000000d54c:	f0ffff80 	adrp	x0, ffff000000000000 <_start>
ffff00000000d550:	91000001 	add	x1, x0, #0x0
ffff00000000d554:	f9404ba0 	ldr	x0, [x29,#144]
ffff00000000d558:	b9400c00 	ldr	w0, [x0,#12]
ffff00000000d55c:	f0ffff82 	adrp	x2, ffff000000000000 <_start>
ffff00000000d560:	91000042 	add	x2, x2, #0x0
ffff00000000d564:	4b020000 	sub	w0, w0, w2
ffff00000000d568:	2a0003e0 	mov	w0, w0
ffff00000000d56c:	8b000020 	add	x0, x1, x0
ffff00000000d570:	b940a3a1 	ldr	w1, [x29,#160]
ffff00000000d574:	f94047a2 	ldr	x2, [x29,#136]
ffff00000000d578:	94001119 	bl	ffff0000000119dc <bl_init>
ffff00000000d57c:	f9004fa0 	str	x0, [x29,#152]
ffff00000000d580:	d0000460 	adrp	x0, ffff00000009b000 <thread_id_table+0x75d0>
ffff00000000d584:	912ec001 	add	x1, x0, #0xbb0
ffff00000000d588:	b980afa2 	ldrsw	x2, [x29,#172]
ffff00000000d58c:	d2800380 	mov	x0, #0x1c                  	// #28
ffff00000000d590:	9b007c40 	mul	x0, x2, x0
ffff00000000d594:	8b000020 	add	x0, x1, x0
ffff00000000d598:	91005000 	add	x0, x0, #0x14
ffff00000000d59c:	b9400000 	ldr	w0, [x0]
ffff00000000d5a0:	2a0003e0 	mov	w0, w0
ffff00000000d5a4:	f90043a0 	str	x0, [x29,#128]
ffff00000000d5a8:	b0000020 	adrp	x0, ffff000000012000 <sys_call_table+0x1c8>
ffff00000000d5ac:	911c0000 	add	x0, x0, #0x700
ffff00000000d5b0:	97ffe056 	bl	ffff000000005708 <tfp_printf>
ffff00000000d5b4:	b0000020 	adrp	x0, ffff000000012000 <sys_call_table+0x1c8>
ffff00000000d5b8:	911c8000 	add	x0, x0, #0x720
ffff00000000d5bc:	97ffe053 	bl	ffff000000005708 <tfp_printf>
ffff00000000d5c0:	9100e3a3 	add	x3, x29, #0x38
ffff00000000d5c4:	910103a2 	add	x2, x29, #0x40
ffff00000000d5c8:	910123a1 	add	x1, x29, #0x48
ffff00000000d5cc:	910143a0 	add	x0, x29, #0x50
ffff00000000d5d0:	aa0303e4 	mov	x4, x3
ffff00000000d5d4:	aa0203e3 	mov	x3, x2
ffff00000000d5d8:	aa0103e2 	mov	x2, x1
ffff00000000d5dc:	aa0003e1 	mov	x1, x0
ffff00000000d5e0:	f9404fa0 	ldr	x0, [x29,#152]
ffff00000000d5e4:	940004bf 	bl	ffff00000000e8e0 <check_file_format>
ffff00000000d5e8:	b9007fa0 	str	w0, [x29,#124]
ffff00000000d5ec:	b9407fa0 	ldr	w0, [x29,#124]
ffff00000000d5f0:	7100001f 	cmp	w0, #0x0
ffff00000000d5f4:	540002e1 	b.ne	ffff00000000d650 <compt_fs_file+0x298>
ffff00000000d5f8:	14000011 	b	ffff00000000d63c <compt_fs_file+0x284>
ffff00000000d5fc:	d0000020 	adrp	x0, ffff000000013000 <sdCommandTable+0x110>
ffff00000000d600:	910b0000 	add	x0, x0, #0x2c0
ffff00000000d604:	b9400002 	ldr	w2, [x0]
ffff00000000d608:	d0000460 	adrp	x0, ffff00000009b000 <thread_id_table+0x75d0>
ffff00000000d60c:	91298001 	add	x1, x0, #0xa60
ffff00000000d610:	93407c42 	sxtw	x2, w2
ffff00000000d614:	d2800a80 	mov	x0, #0x54                  	// #84
ffff00000000d618:	9b007c40 	mul	x0, x2, x0
ffff00000000d61c:	8b000020 	add	x0, x1, x0
ffff00000000d620:	91002000 	add	x0, x0, #0x8
ffff00000000d624:	b9400001 	ldr	w1, [x0]
ffff00000000d628:	b0000020 	adrp	x0, ffff000000012000 <sys_call_table+0x1c8>
ffff00000000d62c:	911b6000 	add	x0, x0, #0x6d8
ffff00000000d630:	97ffe036 	bl	ffff000000005708 <tfp_printf>
ffff00000000d634:	52800000 	mov	w0, #0x0                   	// #0
ffff00000000d638:	140000ff 	b	ffff00000000da34 <compt_fs_file+0x67c>
ffff00000000d63c:	b0000020 	adrp	x0, ffff000000012000 <sys_call_table+0x1c8>
ffff00000000d640:	911d8000 	add	x0, x0, #0x760
ffff00000000d644:	97ffe031 	bl	ffff000000005708 <tfp_printf>
ffff00000000d648:	52800000 	mov	w0, #0x0                   	// #0
ffff00000000d64c:	140000fa 	b	ffff00000000da34 <compt_fs_file+0x67c>
ffff00000000d650:	b900a7bf 	str	wzr, [x29,#164]
ffff00000000d654:	1400000c 	b	ffff00000000d684 <compt_fs_file+0x2cc>
ffff00000000d658:	f9402ba1 	ldr	x1, [x29,#80]
ffff00000000d65c:	f9404fa0 	ldr	x0, [x29,#152]
ffff00000000d660:	8b000021 	add	x1, x1, x0
ffff00000000d664:	b980a7a2 	ldrsw	x2, [x29,#164]
ffff00000000d668:	f94023a0 	ldr	x0, [x29,#64]
ffff00000000d66c:	9b007c40 	mul	x0, x2, x0
ffff00000000d670:	8b000020 	add	x0, x1, x0
ffff00000000d674:	94000402 	bl	ffff00000000e67c <find_sec_addr>
ffff00000000d678:	b940a7a0 	ldr	w0, [x29,#164]
ffff00000000d67c:	11000400 	add	w0, w0, #0x1
ffff00000000d680:	b900a7a0 	str	w0, [x29,#164]
ffff00000000d684:	b980a7a1 	ldrsw	x1, [x29,#164]
ffff00000000d688:	f94027a0 	ldr	x0, [x29,#72]
ffff00000000d68c:	eb00003f 	cmp	x1, x0
ffff00000000d690:	54fffe43 	b.cc	ffff00000000d658 <compt_fs_file+0x2a0>
ffff00000000d694:	52820000 	mov	w0, #0x1000                	// #4096
ffff00000000d698:	97ffda0d 	bl	ffff000000003ecc <allocate_kernel_page>
ffff00000000d69c:	9100a3a2 	add	x2, x29, #0x28
ffff00000000d6a0:	a9000440 	stp	x0, x1, [x2]
ffff00000000d6a4:	f94017a0 	ldr	x0, [x29,#40]
ffff00000000d6a8:	f9003ba0 	str	x0, [x29,#112]
ffff00000000d6ac:	f9403ba1 	ldr	x1, [x29,#112]
ffff00000000d6b0:	d0000420 	adrp	x0, ffff000000093000 <intFileIORecord+0xed0>
ffff00000000d6b4:	91286000 	add	x0, x0, #0xa18
ffff00000000d6b8:	f9000001 	str	x1, [x0]
ffff00000000d6bc:	90000480 	adrp	x0, ffff00000009d000 <ksym+0x320>
ffff00000000d6c0:	911b8000 	add	x0, x0, #0x6e0
ffff00000000d6c4:	f9400401 	ldr	x1, [x0,#8]
ffff00000000d6c8:	f9404fa0 	ldr	x0, [x29,#152]
ffff00000000d6cc:	8b000023 	add	x3, x1, x0
ffff00000000d6d0:	90000480 	adrp	x0, ffff00000009d000 <ksym+0x320>
ffff00000000d6d4:	911b8000 	add	x0, x0, #0x6e0
ffff00000000d6d8:	b9401000 	ldr	w0, [x0,#16]
ffff00000000d6dc:	93407c00 	sxtw	x0, w0
ffff00000000d6e0:	aa0003e2 	mov	x2, x0
ffff00000000d6e4:	f9403ba1 	ldr	x1, [x29,#112]
ffff00000000d6e8:	aa0303e0 	mov	x0, x3
ffff00000000d6ec:	94000c1c 	bl	ffff00000001075c <memcpy>
ffff00000000d6f0:	90000480 	adrp	x0, ffff00000009d000 <ksym+0x320>
ffff00000000d6f4:	911b8000 	add	x0, x0, #0x6e0
ffff00000000d6f8:	b9401000 	ldr	w0, [x0,#16]
ffff00000000d6fc:	93407c00 	sxtw	x0, w0
ffff00000000d700:	f9403ba1 	ldr	x1, [x29,#112]
ffff00000000d704:	8b000020 	add	x0, x1, x0
ffff00000000d708:	f9003ba0 	str	x0, [x29,#112]
ffff00000000d70c:	90000480 	adrp	x0, ffff00000009d000 <ksym+0x320>
ffff00000000d710:	911b8000 	add	x0, x0, #0x6e0
ffff00000000d714:	f9401001 	ldr	x1, [x0,#32]
ffff00000000d718:	f9404fa0 	ldr	x0, [x29,#152]
ffff00000000d71c:	8b000023 	add	x3, x1, x0
ffff00000000d720:	90000480 	adrp	x0, ffff00000009d000 <ksym+0x320>
ffff00000000d724:	911b8000 	add	x0, x0, #0x6e0
ffff00000000d728:	b9402800 	ldr	w0, [x0,#40]
ffff00000000d72c:	93407c00 	sxtw	x0, w0
ffff00000000d730:	aa0003e2 	mov	x2, x0
ffff00000000d734:	f9403ba1 	ldr	x1, [x29,#112]
ffff00000000d738:	aa0303e0 	mov	x0, x3
ffff00000000d73c:	94000c08 	bl	ffff00000001075c <memcpy>
ffff00000000d740:	90000480 	adrp	x0, ffff00000009d000 <ksym+0x320>
ffff00000000d744:	911b8000 	add	x0, x0, #0x6e0
ffff00000000d748:	b9402800 	ldr	w0, [x0,#40]
ffff00000000d74c:	93407c00 	sxtw	x0, w0
ffff00000000d750:	f9403ba1 	ldr	x1, [x29,#112]
ffff00000000d754:	8b000020 	add	x0, x1, x0
ffff00000000d758:	f9003ba0 	str	x0, [x29,#112]
ffff00000000d75c:	90000480 	adrp	x0, ffff00000009d000 <ksym+0x320>
ffff00000000d760:	911b8000 	add	x0, x0, #0x6e0
ffff00000000d764:	f9401c01 	ldr	x1, [x0,#56]
ffff00000000d768:	f9404fa0 	ldr	x0, [x29,#152]
ffff00000000d76c:	8b000023 	add	x3, x1, x0
ffff00000000d770:	90000480 	adrp	x0, ffff00000009d000 <ksym+0x320>
ffff00000000d774:	911b8000 	add	x0, x0, #0x6e0
ffff00000000d778:	b9404000 	ldr	w0, [x0,#64]
ffff00000000d77c:	93407c00 	sxtw	x0, w0
ffff00000000d780:	aa0003e2 	mov	x2, x0
ffff00000000d784:	f9403ba1 	ldr	x1, [x29,#112]
ffff00000000d788:	aa0303e0 	mov	x0, x3
ffff00000000d78c:	94000bf4 	bl	ffff00000001075c <memcpy>
ffff00000000d790:	90000480 	adrp	x0, ffff00000009d000 <ksym+0x320>
ffff00000000d794:	911b8000 	add	x0, x0, #0x6e0
ffff00000000d798:	b9404000 	ldr	w0, [x0,#64]
ffff00000000d79c:	93407c00 	sxtw	x0, w0
ffff00000000d7a0:	f9403ba1 	ldr	x1, [x29,#112]
ffff00000000d7a4:	8b000020 	add	x0, x1, x0
ffff00000000d7a8:	f9003ba0 	str	x0, [x29,#112]
ffff00000000d7ac:	90000480 	adrp	x0, ffff00000009d000 <ksym+0x320>
ffff00000000d7b0:	911b8000 	add	x0, x0, #0x6e0
ffff00000000d7b4:	b9405800 	ldr	w0, [x0,#88]
ffff00000000d7b8:	93407c00 	sxtw	x0, w0
ffff00000000d7bc:	aa0003e1 	mov	x1, x0
ffff00000000d7c0:	f9403ba0 	ldr	x0, [x29,#112]
ffff00000000d7c4:	94000bf5 	bl	ffff000000010798 <memzero>
ffff00000000d7c8:	90000480 	adrp	x0, ffff00000009d000 <ksym+0x320>
ffff00000000d7cc:	911b8000 	add	x0, x0, #0x6e0
ffff00000000d7d0:	b9405800 	ldr	w0, [x0,#88]
ffff00000000d7d4:	93407c00 	sxtw	x0, w0
ffff00000000d7d8:	f9403ba1 	ldr	x1, [x29,#112]
ffff00000000d7dc:	8b000020 	add	x0, x1, x0
ffff00000000d7e0:	f9003ba0 	str	x0, [x29,#112]
ffff00000000d7e4:	90000480 	adrp	x0, ffff00000009d000 <ksym+0x320>
ffff00000000d7e8:	911b8000 	add	x0, x0, #0x6e0
ffff00000000d7ec:	b9401001 	ldr	w1, [x0,#16]
ffff00000000d7f0:	90000480 	adrp	x0, ffff00000009d000 <ksym+0x320>
ffff00000000d7f4:	911b8000 	add	x0, x0, #0x6e0
ffff00000000d7f8:	b9402800 	ldr	w0, [x0,#40]
ffff00000000d7fc:	0b000021 	add	w1, w1, w0
ffff00000000d800:	90000480 	adrp	x0, ffff00000009d000 <ksym+0x320>
ffff00000000d804:	911b8000 	add	x0, x0, #0x6e0
ffff00000000d808:	b9404000 	ldr	w0, [x0,#64]
ffff00000000d80c:	0b000021 	add	w1, w1, w0
ffff00000000d810:	90000480 	adrp	x0, ffff00000009d000 <ksym+0x320>
ffff00000000d814:	911b8000 	add	x0, x0, #0x6e0
ffff00000000d818:	b9405800 	ldr	w0, [x0,#88]
ffff00000000d81c:	0b000020 	add	w0, w1, w0
ffff00000000d820:	93407c00 	sxtw	x0, w0
ffff00000000d824:	f90037a0 	str	x0, [x29,#104]
ffff00000000d828:	d0000420 	adrp	x0, ffff000000093000 <intFileIORecord+0xed0>
ffff00000000d82c:	91286000 	add	x0, x0, #0xa18
ffff00000000d830:	f9400006 	ldr	x6, [x0]
ffff00000000d834:	f9402ba7 	ldr	x7, [x29,#80]
ffff00000000d838:	f94023a2 	ldr	x2, [x29,#64]
ffff00000000d83c:	f9404fa3 	ldr	x3, [x29,#152]
ffff00000000d840:	90000480 	adrp	x0, ffff00000009d000 <ksym+0x320>
ffff00000000d844:	911b8000 	add	x0, x0, #0x6e0
ffff00000000d848:	f9403401 	ldr	x1, [x0,#104]
ffff00000000d84c:	f9404fa0 	ldr	x0, [x29,#152]
ffff00000000d850:	8b000020 	add	x0, x1, x0
ffff00000000d854:	aa0003e1 	mov	x1, x0
ffff00000000d858:	90000480 	adrp	x0, ffff00000009d000 <ksym+0x320>
ffff00000000d85c:	911b8000 	add	x0, x0, #0x6e0
ffff00000000d860:	b9407000 	ldr	w0, [x0,#112]
ffff00000000d864:	2a0003e5 	mov	w5, w0
ffff00000000d868:	aa0103e4 	mov	x4, x1
ffff00000000d86c:	aa0703e1 	mov	x1, x7
ffff00000000d870:	aa0603e0 	mov	x0, x6
ffff00000000d874:	94000245 	bl	ffff00000000e188 <relocate>
ffff00000000d878:	b90067a0 	str	w0, [x29,#100]
ffff00000000d87c:	b94067a0 	ldr	w0, [x29,#100]
ffff00000000d880:	7100001f 	cmp	w0, #0x0
ffff00000000d884:	54000b41 	b.ne	ffff00000000d9ec <compt_fs_file+0x634>
ffff00000000d888:	90000480 	adrp	x0, ffff00000009d000 <ksym+0x320>
ffff00000000d88c:	911b8000 	add	x0, x0, #0x6e0
ffff00000000d890:	f9404001 	ldr	x1, [x0,#128]
ffff00000000d894:	f9404fa0 	ldr	x0, [x29,#152]
ffff00000000d898:	8b000020 	add	x0, x1, x0
ffff00000000d89c:	aa0003e4 	mov	x4, x0
ffff00000000d8a0:	90000480 	adrp	x0, ffff00000009d000 <ksym+0x320>
ffff00000000d8a4:	911b8000 	add	x0, x0, #0x6e0
ffff00000000d8a8:	b9408801 	ldr	w1, [x0,#136]
ffff00000000d8ac:	b0000020 	adrp	x0, ffff000000012000 <sys_call_table+0x1c8>
ffff00000000d8b0:	911fe000 	add	x0, x0, #0x7f8
ffff00000000d8b4:	aa0003e3 	mov	x3, x0
ffff00000000d8b8:	2a0103e2 	mov	w2, w1
ffff00000000d8bc:	aa0403e1 	mov	x1, x4
ffff00000000d8c0:	f9404fa0 	ldr	x0, [x29,#152]
ffff00000000d8c4:	940001ad 	bl	ffff00000000df78 <use_compt_func>
ffff00000000d8c8:	b90063a0 	str	w0, [x29,#96]
ffff00000000d8cc:	90000480 	adrp	x0, ffff00000009d000 <ksym+0x320>
ffff00000000d8d0:	911b8000 	add	x0, x0, #0x6e0
ffff00000000d8d4:	f9404001 	ldr	x1, [x0,#128]
ffff00000000d8d8:	f9404fa0 	ldr	x0, [x29,#152]
ffff00000000d8dc:	8b000020 	add	x0, x1, x0
ffff00000000d8e0:	aa0003e4 	mov	x4, x0
ffff00000000d8e4:	90000480 	adrp	x0, ffff00000009d000 <ksym+0x320>
ffff00000000d8e8:	911b8000 	add	x0, x0, #0x6e0
ffff00000000d8ec:	b9408801 	ldr	w1, [x0,#136]
ffff00000000d8f0:	b0000020 	adrp	x0, ffff000000012000 <sys_call_table+0x1c8>
ffff00000000d8f4:	91202000 	add	x0, x0, #0x808
ffff00000000d8f8:	aa0003e3 	mov	x3, x0
ffff00000000d8fc:	2a0103e2 	mov	w2, w1
ffff00000000d900:	aa0403e1 	mov	x1, x4
ffff00000000d904:	f9404fa0 	ldr	x0, [x29,#152]
ffff00000000d908:	9400019c 	bl	ffff00000000df78 <use_compt_func>
ffff00000000d90c:	b9005fa0 	str	w0, [x29,#92]
ffff00000000d910:	90000480 	adrp	x0, ffff00000009d000 <ksym+0x320>
ffff00000000d914:	911b8000 	add	x0, x0, #0x6e0
ffff00000000d918:	f9404001 	ldr	x1, [x0,#128]
ffff00000000d91c:	f9404fa0 	ldr	x0, [x29,#152]
ffff00000000d920:	8b000020 	add	x0, x1, x0
ffff00000000d924:	aa0003e4 	mov	x4, x0
ffff00000000d928:	90000480 	adrp	x0, ffff00000009d000 <ksym+0x320>
ffff00000000d92c:	911b8000 	add	x0, x0, #0x6e0
ffff00000000d930:	b9408801 	ldr	w1, [x0,#136]
ffff00000000d934:	b0000020 	adrp	x0, ffff000000012000 <sys_call_table+0x1c8>
ffff00000000d938:	91206000 	add	x0, x0, #0x818
ffff00000000d93c:	aa0003e3 	mov	x3, x0
ffff00000000d940:	2a0103e2 	mov	w2, w1
ffff00000000d944:	aa0403e1 	mov	x1, x4
ffff00000000d948:	f9404fa0 	ldr	x0, [x29,#152]
ffff00000000d94c:	9400018b 	bl	ffff00000000df78 <use_compt_func>
ffff00000000d950:	b9005ba0 	str	w0, [x29,#88]
ffff00000000d954:	d0000460 	adrp	x0, ffff00000009b000 <thread_id_table+0x75d0>
ffff00000000d958:	9137a000 	add	x0, x0, #0xde8
ffff00000000d95c:	528001c1 	mov	w1, #0xe                   	// #14
ffff00000000d960:	b9001001 	str	w1, [x0,#16]
ffff00000000d964:	d0000420 	adrp	x0, ffff000000093000 <intFileIORecord+0xed0>
ffff00000000d968:	91286000 	add	x0, x0, #0xa18
ffff00000000d96c:	f9400001 	ldr	x1, [x0]
ffff00000000d970:	b9805ba0 	ldrsw	x0, [x29,#88]
ffff00000000d974:	8b000020 	add	x0, x1, x0
ffff00000000d978:	2a0003e1 	mov	w1, w0
ffff00000000d97c:	d0000460 	adrp	x0, ffff00000009b000 <thread_id_table+0x75d0>
ffff00000000d980:	9137a000 	add	x0, x0, #0xde8
ffff00000000d984:	b9001401 	str	w1, [x0,#20]
ffff00000000d988:	d0000420 	adrp	x0, ffff000000093000 <intFileIORecord+0xed0>
ffff00000000d98c:	91286000 	add	x0, x0, #0xa18
ffff00000000d990:	f9400001 	ldr	x1, [x0]
ffff00000000d994:	b98063a0 	ldrsw	x0, [x29,#96]
ffff00000000d998:	8b000020 	add	x0, x1, x0
ffff00000000d99c:	2a0003e1 	mov	w1, w0
ffff00000000d9a0:	d0000460 	adrp	x0, ffff00000009b000 <thread_id_table+0x75d0>
ffff00000000d9a4:	9137a000 	add	x0, x0, #0xde8
ffff00000000d9a8:	b9001801 	str	w1, [x0,#24]
ffff00000000d9ac:	d0000420 	adrp	x0, ffff000000093000 <intFileIORecord+0xed0>
ffff00000000d9b0:	91286000 	add	x0, x0, #0xa18
ffff00000000d9b4:	f9400001 	ldr	x1, [x0]
ffff00000000d9b8:	b9805fa0 	ldrsw	x0, [x29,#92]
ffff00000000d9bc:	8b000020 	add	x0, x1, x0
ffff00000000d9c0:	2a0003e1 	mov	w1, w0
ffff00000000d9c4:	d0000460 	adrp	x0, ffff00000009b000 <thread_id_table+0x75d0>
ffff00000000d9c8:	9137a000 	add	x0, x0, #0xde8
ffff00000000d9cc:	b9001c01 	str	w1, [x0,#28]
ffff00000000d9d0:	97ffd3b5 	bl	ffff0000000028a4 <build_kernel_directory>
ffff00000000d9d4:	14000006 	b	ffff00000000d9ec <compt_fs_file+0x634>
ffff00000000d9d8:	b0000020 	adrp	x0, ffff000000012000 <sys_call_table+0x1c8>
ffff00000000d9dc:	911fa000 	add	x0, x0, #0x7e8
ffff00000000d9e0:	97ffdf4a 	bl	ffff000000005708 <tfp_printf>
ffff00000000d9e4:	52800000 	mov	w0, #0x0                   	// #0
ffff00000000d9e8:	14000013 	b	ffff00000000da34 <compt_fs_file+0x67c>
ffff00000000d9ec:	52800020 	mov	w0, #0x1                   	// #1
ffff00000000d9f0:	14000011 	b	ffff00000000da34 <compt_fs_file+0x67c>
ffff00000000d9f4:	b940afa0 	ldr	w0, [x29,#172]
ffff00000000d9f8:	11000400 	add	w0, w0, #0x1
ffff00000000d9fc:	b900afa0 	str	w0, [x29,#172]
ffff00000000da00:	d0000460 	adrp	x0, ffff00000009b000 <thread_id_table+0x75d0>
ffff00000000da04:	912ec001 	add	x1, x0, #0xbb0
ffff00000000da08:	b980afa2 	ldrsw	x2, [x29,#172]
ffff00000000da0c:	d2800380 	mov	x0, #0x1c                  	// #28
ffff00000000da10:	9b007c40 	mul	x0, x2, x0
ffff00000000da14:	8b000020 	add	x0, x1, x0
ffff00000000da18:	39400000 	ldrb	w0, [x0]
ffff00000000da1c:	7100001f 	cmp	w0, #0x0
ffff00000000da20:	54ffcda1 	b.ne	ffff00000000d3d4 <compt_fs_file+0x1c>
ffff00000000da24:	b0000020 	adrp	x0, ffff000000012000 <sys_call_table+0x1c8>
ffff00000000da28:	911fa000 	add	x0, x0, #0x7e8
ffff00000000da2c:	97ffdf37 	bl	ffff000000005708 <tfp_printf>
ffff00000000da30:	52800000 	mov	w0, #0x0                   	// #0
ffff00000000da34:	a8cb7bfd 	ldp	x29, x30, [sp],#176
ffff00000000da38:	d65f03c0 	ret

ffff00000000da3c <rm_compt_file>:
ffff00000000da3c:	a9bc7bfd 	stp	x29, x30, [sp,#-64]!
ffff00000000da40:	910003fd 	mov	x29, sp
ffff00000000da44:	f9000fa0 	str	x0, [x29,#24]
ffff00000000da48:	b90033bf 	str	wzr, [x29,#48]
ffff00000000da4c:	f90017bf 	str	xzr, [x29,#40]
ffff00000000da50:	b9003fbf 	str	wzr, [x29,#60]
ffff00000000da54:	1400007d 	b	ffff00000000dc48 <rm_compt_file+0x20c>
ffff00000000da58:	b9803fa1 	ldrsw	x1, [x29,#60]
ffff00000000da5c:	d2800380 	mov	x0, #0x1c                  	// #28
ffff00000000da60:	9b007c21 	mul	x1, x1, x0
ffff00000000da64:	d0000460 	adrp	x0, ffff00000009b000 <thread_id_table+0x75d0>
ffff00000000da68:	912ec000 	add	x0, x0, #0xbb0
ffff00000000da6c:	8b000020 	add	x0, x1, x0
ffff00000000da70:	aa0003e3 	mov	x3, x0
ffff00000000da74:	f9400fa0 	ldr	x0, [x29,#24]
ffff00000000da78:	d2800102 	mov	x2, #0x8                   	// #8
ffff00000000da7c:	aa0003e1 	mov	x1, x0
ffff00000000da80:	aa0303e0 	mov	x0, x3
ffff00000000da84:	94000b3b 	bl	ffff000000010770 <memcmp>
ffff00000000da88:	7100001f 	cmp	w0, #0x0
ffff00000000da8c:	54000d81 	b.ne	ffff00000000dc3c <rm_compt_file+0x200>
ffff00000000da90:	b9003bbf 	str	wzr, [x29,#56]
ffff00000000da94:	14000067 	b	ffff00000000dc30 <rm_compt_file+0x1f4>
ffff00000000da98:	b9803ba1 	ldrsw	x1, [x29,#56]
ffff00000000da9c:	d2800300 	mov	x0, #0x18                  	// #24
ffff00000000daa0:	9b007c21 	mul	x1, x1, x0
ffff00000000daa4:	f0000460 	adrp	x0, ffff00000009c000 <task+0x18>
ffff00000000daa8:	91228000 	add	x0, x0, #0x8a0
ffff00000000daac:	8b000020 	add	x0, x1, x0
ffff00000000dab0:	aa0003e3 	mov	x3, x0
ffff00000000dab4:	f9400fa0 	ldr	x0, [x29,#24]
ffff00000000dab8:	d2800102 	mov	x2, #0x8                   	// #8
ffff00000000dabc:	aa0003e1 	mov	x1, x0
ffff00000000dac0:	aa0303e0 	mov	x0, x3
ffff00000000dac4:	94000b2b 	bl	ffff000000010770 <memcmp>
ffff00000000dac8:	7100001f 	cmp	w0, #0x0
ffff00000000dacc:	54000ac1 	b.ne	ffff00000000dc24 <rm_compt_file+0x1e8>
ffff00000000dad0:	b0000020 	adrp	x0, ffff000000012000 <sys_call_table+0x1c8>
ffff00000000dad4:	9120a000 	add	x0, x0, #0x828
ffff00000000dad8:	97ffdf0c 	bl	ffff000000005708 <tfp_printf>
ffff00000000dadc:	f0000460 	adrp	x0, ffff00000009c000 <task+0x18>
ffff00000000dae0:	91228001 	add	x1, x0, #0x8a0
ffff00000000dae4:	b9803ba2 	ldrsw	x2, [x29,#56]
ffff00000000dae8:	d2800300 	mov	x0, #0x18                  	// #24
ffff00000000daec:	9b007c40 	mul	x0, x2, x0
ffff00000000daf0:	8b000020 	add	x0, x1, x0
ffff00000000daf4:	91004000 	add	x0, x0, #0x10
ffff00000000daf8:	f9400000 	ldr	x0, [x0]
ffff00000000dafc:	d2800001 	mov	x1, #0x0                   	// #0
ffff00000000db00:	94000fb7 	bl	ffff0000000119dc <bl_init>
ffff00000000db04:	b9803ba1 	ldrsw	x1, [x29,#56]
ffff00000000db08:	d2800300 	mov	x0, #0x18                  	// #24
ffff00000000db0c:	9b007c21 	mul	x1, x1, x0
ffff00000000db10:	f0000460 	adrp	x0, ffff00000009c000 <task+0x18>
ffff00000000db14:	91228000 	add	x0, x0, #0x8a0
ffff00000000db18:	8b000020 	add	x0, x1, x0
ffff00000000db1c:	d2800101 	mov	x1, #0x8                   	// #8
ffff00000000db20:	94000b1e 	bl	ffff000000010798 <memzero>
ffff00000000db24:	f0000460 	adrp	x0, ffff00000009c000 <task+0x18>
ffff00000000db28:	91228001 	add	x1, x0, #0x8a0
ffff00000000db2c:	b9803ba2 	ldrsw	x2, [x29,#56]
ffff00000000db30:	d2800300 	mov	x0, #0x18                  	// #24
ffff00000000db34:	9b007c40 	mul	x0, x2, x0
ffff00000000db38:	8b000020 	add	x0, x1, x0
ffff00000000db3c:	91004000 	add	x0, x0, #0x10
ffff00000000db40:	f9400000 	ldr	x0, [x0]
ffff00000000db44:	97ffd9ab 	bl	ffff0000000041f0 <free_page>
ffff00000000db48:	f0000460 	adrp	x0, ffff00000009c000 <task+0x18>
ffff00000000db4c:	91228001 	add	x1, x0, #0x8a0
ffff00000000db50:	b9803ba2 	ldrsw	x2, [x29,#56]
ffff00000000db54:	d2800300 	mov	x0, #0x18                  	// #24
ffff00000000db58:	9b007c40 	mul	x0, x2, x0
ffff00000000db5c:	8b000020 	add	x0, x1, x0
ffff00000000db60:	91004000 	add	x0, x0, #0x10
ffff00000000db64:	f9400000 	ldr	x0, [x0]
ffff00000000db68:	d1500000 	sub	x0, x0, #0x400, lsl #12
ffff00000000db6c:	d34cfc00 	lsr	x0, x0, #12
ffff00000000db70:	b90027a0 	str	w0, [x29,#36]
ffff00000000db74:	52800340 	mov	w0, #0x1a                  	// #26
ffff00000000db78:	b90037a0 	str	w0, [x29,#52]
ffff00000000db7c:	14000025 	b	ffff00000000dc10 <rm_compt_file+0x1d4>
ffff00000000db80:	f0000460 	adrp	x0, ffff00000009c000 <task+0x18>
ffff00000000db84:	91338001 	add	x1, x0, #0xce0
ffff00000000db88:	b98037a2 	ldrsw	x2, [x29,#52]
ffff00000000db8c:	d2800500 	mov	x0, #0x28                  	// #40
ffff00000000db90:	9b007c40 	mul	x0, x2, x0
ffff00000000db94:	8b000020 	add	x0, x1, x0
ffff00000000db98:	39400000 	ldrb	w0, [x0]
ffff00000000db9c:	7100001f 	cmp	w0, #0x0
ffff00000000dba0:	54000320 	b.eq	ffff00000000dc04 <rm_compt_file+0x1c8>
ffff00000000dba4:	f0000460 	adrp	x0, ffff00000009c000 <task+0x18>
ffff00000000dba8:	91338001 	add	x1, x0, #0xce0
ffff00000000dbac:	b98037a2 	ldrsw	x2, [x29,#52]
ffff00000000dbb0:	d2800500 	mov	x0, #0x28                  	// #40
ffff00000000dbb4:	9b007c40 	mul	x0, x2, x0
ffff00000000dbb8:	8b000020 	add	x0, x1, x0
ffff00000000dbbc:	91008000 	add	x0, x0, #0x20
ffff00000000dbc0:	f9400000 	ldr	x0, [x0]
ffff00000000dbc4:	d1500000 	sub	x0, x0, #0x400, lsl #12
ffff00000000dbc8:	d34cfc00 	lsr	x0, x0, #12
ffff00000000dbcc:	b90023a0 	str	w0, [x29,#32]
ffff00000000dbd0:	b94027a1 	ldr	w1, [x29,#36]
ffff00000000dbd4:	b94023a0 	ldr	w0, [x29,#32]
ffff00000000dbd8:	6b00003f 	cmp	w1, w0
ffff00000000dbdc:	54000141 	b.ne	ffff00000000dc04 <rm_compt_file+0x1c8>
ffff00000000dbe0:	b98037a1 	ldrsw	x1, [x29,#52]
ffff00000000dbe4:	d2800500 	mov	x0, #0x28                  	// #40
ffff00000000dbe8:	9b007c21 	mul	x1, x1, x0
ffff00000000dbec:	f0000460 	adrp	x0, ffff00000009c000 <task+0x18>
ffff00000000dbf0:	91338000 	add	x0, x0, #0xce0
ffff00000000dbf4:	8b000020 	add	x0, x1, x0
ffff00000000dbf8:	d2800401 	mov	x1, #0x20                  	// #32
ffff00000000dbfc:	94000ae7 	bl	ffff000000010798 <memzero>
ffff00000000dc00:	14000007 	b	ffff00000000dc1c <rm_compt_file+0x1e0>
ffff00000000dc04:	b94037a0 	ldr	w0, [x29,#52]
ffff00000000dc08:	11000400 	add	w0, w0, #0x1
ffff00000000dc0c:	b90037a0 	str	w0, [x29,#52]
ffff00000000dc10:	b94037a0 	ldr	w0, [x29,#52]
ffff00000000dc14:	7100fc1f 	cmp	w0, #0x3f
ffff00000000dc18:	54fffb4d 	b.le	ffff00000000db80 <rm_compt_file+0x144>
ffff00000000dc1c:	52800020 	mov	w0, #0x1                   	// #1
ffff00000000dc20:	14000017 	b	ffff00000000dc7c <rm_compt_file+0x240>
ffff00000000dc24:	b9403ba0 	ldr	w0, [x29,#56]
ffff00000000dc28:	11000400 	add	w0, w0, #0x1
ffff00000000dc2c:	b9003ba0 	str	w0, [x29,#56]
ffff00000000dc30:	b9403ba0 	ldr	w0, [x29,#56]
ffff00000000dc34:	71007c1f 	cmp	w0, #0x1f
ffff00000000dc38:	54fff30d 	b.le	ffff00000000da98 <rm_compt_file+0x5c>
ffff00000000dc3c:	b9403fa0 	ldr	w0, [x29,#60]
ffff00000000dc40:	11000400 	add	w0, w0, #0x1
ffff00000000dc44:	b9003fa0 	str	w0, [x29,#60]
ffff00000000dc48:	d0000460 	adrp	x0, ffff00000009b000 <thread_id_table+0x75d0>
ffff00000000dc4c:	912ec001 	add	x1, x0, #0xbb0
ffff00000000dc50:	b9803fa2 	ldrsw	x2, [x29,#60]
ffff00000000dc54:	d2800380 	mov	x0, #0x1c                  	// #28
ffff00000000dc58:	9b007c40 	mul	x0, x2, x0
ffff00000000dc5c:	8b000020 	add	x0, x1, x0
ffff00000000dc60:	39400000 	ldrb	w0, [x0]
ffff00000000dc64:	7100001f 	cmp	w0, #0x0
ffff00000000dc68:	54ffef81 	b.ne	ffff00000000da58 <rm_compt_file+0x1c>
ffff00000000dc6c:	b0000020 	adrp	x0, ffff000000012000 <sys_call_table+0x1c8>
ffff00000000dc70:	911fa000 	add	x0, x0, #0x7e8
ffff00000000dc74:	97ffdea5 	bl	ffff000000005708 <tfp_printf>
ffff00000000dc78:	52800000 	mov	w0, #0x0                   	// #0
ffff00000000dc7c:	a8c47bfd 	ldp	x29, x30, [sp],#64
ffff00000000dc80:	d65f03c0 	ret

ffff00000000dc84 <unreg_compt>:
ffff00000000dc84:	a9bd7bfd 	stp	x29, x30, [sp,#-48]!
ffff00000000dc88:	910003fd 	mov	x29, sp
ffff00000000dc8c:	f9000fa0 	str	x0, [x29,#24]
ffff00000000dc90:	f9400fa0 	ldr	x0, [x29,#24]
ffff00000000dc94:	9400002a 	bl	ffff00000000dd3c <strlength>
ffff00000000dc98:	b9002ba0 	str	w0, [x29,#40]
ffff00000000dc9c:	52800120 	mov	w0, #0x9                   	// #9
ffff00000000dca0:	b90027a0 	str	w0, [x29,#36]
ffff00000000dca4:	b90023bf 	str	wzr, [x29,#32]
ffff00000000dca8:	52800340 	mov	w0, #0x1a                  	// #26
ffff00000000dcac:	b9002fa0 	str	w0, [x29,#44]
ffff00000000dcb0:	14000019 	b	ffff00000000dd14 <unreg_compt+0x90>
ffff00000000dcb4:	b9802fa1 	ldrsw	x1, [x29,#44]
ffff00000000dcb8:	d2800500 	mov	x0, #0x28                  	// #40
ffff00000000dcbc:	9b007c20 	mul	x0, x1, x0
ffff00000000dcc0:	91002401 	add	x1, x0, #0x9
ffff00000000dcc4:	f0000460 	adrp	x0, ffff00000009c000 <task+0x18>
ffff00000000dcc8:	91338000 	add	x0, x0, #0xce0
ffff00000000dccc:	8b000020 	add	x0, x1, x0
ffff00000000dcd0:	aa0003e3 	mov	x3, x0
ffff00000000dcd4:	f9400fa0 	ldr	x0, [x29,#24]
ffff00000000dcd8:	b9802ba1 	ldrsw	x1, [x29,#40]
ffff00000000dcdc:	aa0103e2 	mov	x2, x1
ffff00000000dce0:	aa0003e1 	mov	x1, x0
ffff00000000dce4:	aa0303e0 	mov	x0, x3
ffff00000000dce8:	94000aa2 	bl	ffff000000010770 <memcmp>
ffff00000000dcec:	7100001f 	cmp	w0, #0x0
ffff00000000dcf0:	540000c1 	b.ne	ffff00000000dd08 <unreg_compt+0x84>
ffff00000000dcf4:	b0000020 	adrp	x0, ffff000000012000 <sys_call_table+0x1c8>
ffff00000000dcf8:	9121a000 	add	x0, x0, #0x868
ffff00000000dcfc:	97ffde83 	bl	ffff000000005708 <tfp_printf>
ffff00000000dd00:	52800000 	mov	w0, #0x0                   	// #0
ffff00000000dd04:	1400000c 	b	ffff00000000dd34 <unreg_compt+0xb0>
ffff00000000dd08:	b9402fa0 	ldr	w0, [x29,#44]
ffff00000000dd0c:	11000400 	add	w0, w0, #0x1
ffff00000000dd10:	b9002fa0 	str	w0, [x29,#44]
ffff00000000dd14:	b9402fa0 	ldr	w0, [x29,#44]
ffff00000000dd18:	7100fc1f 	cmp	w0, #0x3f
ffff00000000dd1c:	54fffccd 	b.le	ffff00000000dcb4 <unreg_compt+0x30>
ffff00000000dd20:	b0000020 	adrp	x0, ffff000000012000 <sys_call_table+0x1c8>
ffff00000000dd24:	91222000 	add	x0, x0, #0x888
ffff00000000dd28:	f9400fa1 	ldr	x1, [x29,#24]
ffff00000000dd2c:	97ffde77 	bl	ffff000000005708 <tfp_printf>
ffff00000000dd30:	52800020 	mov	w0, #0x1                   	// #1
ffff00000000dd34:	a8c37bfd 	ldp	x29, x30, [sp],#48
ffff00000000dd38:	d65f03c0 	ret

ffff00000000dd3c <strlength>:
ffff00000000dd3c:	d10083ff 	sub	sp, sp, #0x20
ffff00000000dd40:	f90007e0 	str	x0, [sp,#8]
ffff00000000dd44:	b9001fff 	str	wzr, [sp,#28]
ffff00000000dd48:	14000004 	b	ffff00000000dd58 <strlength+0x1c>
ffff00000000dd4c:	b9401fe0 	ldr	w0, [sp,#28]
ffff00000000dd50:	11000400 	add	w0, w0, #0x1
ffff00000000dd54:	b9001fe0 	str	w0, [sp,#28]
ffff00000000dd58:	b9801fe0 	ldrsw	x0, [sp,#28]
ffff00000000dd5c:	f94007e1 	ldr	x1, [sp,#8]
ffff00000000dd60:	8b000020 	add	x0, x1, x0
ffff00000000dd64:	39400000 	ldrb	w0, [x0]
ffff00000000dd68:	7100001f 	cmp	w0, #0x0
ffff00000000dd6c:	54ffff01 	b.ne	ffff00000000dd4c <strlength+0x10>
ffff00000000dd70:	b9401fe0 	ldr	w0, [sp,#28]
ffff00000000dd74:	910083ff 	add	sp, sp, #0x20
ffff00000000dd78:	d65f03c0 	ret

ffff00000000dd7c <reg_compt>:
ffff00000000dd7c:	a9bd7bfd 	stp	x29, x30, [sp,#-48]!
ffff00000000dd80:	910003fd 	mov	x29, sp
ffff00000000dd84:	f9000fa0 	str	x0, [x29,#24]
ffff00000000dd88:	52800120 	mov	w0, #0x9                   	// #9
ffff00000000dd8c:	b9002fa0 	str	w0, [x29,#44]
ffff00000000dd90:	b9002bbf 	str	wzr, [x29,#40]
ffff00000000dd94:	f9400fa0 	ldr	x0, [x29,#24]
ffff00000000dd98:	97ffffe9 	bl	ffff00000000dd3c <strlength>
ffff00000000dd9c:	b90023a0 	str	w0, [x29,#32]
ffff00000000dda0:	b90027bf 	str	wzr, [x29,#36]
ffff00000000dda4:	14000066 	b	ffff00000000df3c <reg_compt+0x1c0>
ffff00000000dda8:	b98027a1 	ldrsw	x1, [x29,#36]
ffff00000000ddac:	d2800500 	mov	x0, #0x28                  	// #40
ffff00000000ddb0:	9b007c20 	mul	x0, x1, x0
ffff00000000ddb4:	91002401 	add	x1, x0, #0x9
ffff00000000ddb8:	f0000460 	adrp	x0, ffff00000009c000 <task+0x18>
ffff00000000ddbc:	91338000 	add	x0, x0, #0xce0
ffff00000000ddc0:	8b000020 	add	x0, x1, x0
ffff00000000ddc4:	aa0003e3 	mov	x3, x0
ffff00000000ddc8:	f9400fa0 	ldr	x0, [x29,#24]
ffff00000000ddcc:	b98023a1 	ldrsw	x1, [x29,#32]
ffff00000000ddd0:	aa0103e2 	mov	x2, x1
ffff00000000ddd4:	aa0003e1 	mov	x1, x0
ffff00000000ddd8:	aa0303e0 	mov	x0, x3
ffff00000000dddc:	94000a65 	bl	ffff000000010770 <memcmp>
ffff00000000dde0:	7100001f 	cmp	w0, #0x0
ffff00000000dde4:	540000e1 	b.ne	ffff00000000de00 <reg_compt+0x84>
ffff00000000dde8:	b0000020 	adrp	x0, ffff000000012000 <sys_call_table+0x1c8>
ffff00000000ddec:	9122c000 	add	x0, x0, #0x8b0
ffff00000000ddf0:	f9400fa1 	ldr	x1, [x29,#24]
ffff00000000ddf4:	97ffde45 	bl	ffff000000005708 <tfp_printf>
ffff00000000ddf8:	52800020 	mov	w0, #0x1                   	// #1
ffff00000000ddfc:	14000057 	b	ffff00000000df58 <reg_compt+0x1dc>
ffff00000000de00:	f0000460 	adrp	x0, ffff00000009c000 <task+0x18>
ffff00000000de04:	91338001 	add	x1, x0, #0xce0
ffff00000000de08:	b98027a2 	ldrsw	x2, [x29,#36]
ffff00000000de0c:	d2800500 	mov	x0, #0x28                  	// #40
ffff00000000de10:	9b007c40 	mul	x0, x2, x0
ffff00000000de14:	8b000020 	add	x0, x1, x0
ffff00000000de18:	39400000 	ldrb	w0, [x0]
ffff00000000de1c:	7100001f 	cmp	w0, #0x0
ffff00000000de20:	54000881 	b.ne	ffff00000000df30 <reg_compt+0x1b4>
ffff00000000de24:	b0000020 	adrp	x0, ffff000000012000 <sys_call_table+0x1c8>
ffff00000000de28:	91238003 	add	x3, x0, #0x8e0
ffff00000000de2c:	b98027a1 	ldrsw	x1, [x29,#36]
ffff00000000de30:	d2800500 	mov	x0, #0x28                  	// #40
ffff00000000de34:	9b007c21 	mul	x1, x1, x0
ffff00000000de38:	f0000460 	adrp	x0, ffff00000009c000 <task+0x18>
ffff00000000de3c:	91338000 	add	x0, x0, #0xce0
ffff00000000de40:	8b000020 	add	x0, x1, x0
ffff00000000de44:	d2800122 	mov	x2, #0x9                   	// #9
ffff00000000de48:	aa0003e1 	mov	x1, x0
ffff00000000de4c:	aa0303e0 	mov	x0, x3
ffff00000000de50:	94000a43 	bl	ffff00000001075c <memcpy>
ffff00000000de54:	14000015 	b	ffff00000000dea8 <reg_compt+0x12c>
ffff00000000de58:	b9402fa0 	ldr	w0, [x29,#44]
ffff00000000de5c:	11000401 	add	w1, w0, #0x1
ffff00000000de60:	b9002fa1 	str	w1, [x29,#44]
ffff00000000de64:	b9402ba1 	ldr	w1, [x29,#40]
ffff00000000de68:	11000422 	add	w2, w1, #0x1
ffff00000000de6c:	b9002ba2 	str	w2, [x29,#40]
ffff00000000de70:	93407c21 	sxtw	x1, w1
ffff00000000de74:	f9400fa2 	ldr	x2, [x29,#24]
ffff00000000de78:	8b010041 	add	x1, x2, x1
ffff00000000de7c:	39400024 	ldrb	w4, [x1]
ffff00000000de80:	f0000461 	adrp	x1, ffff00000009c000 <task+0x18>
ffff00000000de84:	91338022 	add	x2, x1, #0xce0
ffff00000000de88:	93407c00 	sxtw	x0, w0
ffff00000000de8c:	b98027a3 	ldrsw	x3, [x29,#36]
ffff00000000de90:	d2800501 	mov	x1, #0x28                  	// #40
ffff00000000de94:	9b017c61 	mul	x1, x3, x1
ffff00000000de98:	8b010041 	add	x1, x2, x1
ffff00000000de9c:	8b000020 	add	x0, x1, x0
ffff00000000dea0:	2a0403e1 	mov	w1, w4
ffff00000000dea4:	39000001 	strb	w1, [x0]
ffff00000000dea8:	b9802ba0 	ldrsw	x0, [x29,#40]
ffff00000000deac:	f9400fa1 	ldr	x1, [x29,#24]
ffff00000000deb0:	8b000020 	add	x0, x1, x0
ffff00000000deb4:	39400000 	ldrb	w0, [x0]
ffff00000000deb8:	7100001f 	cmp	w0, #0x0
ffff00000000debc:	54fffce1 	b.ne	ffff00000000de58 <reg_compt+0xdc>
ffff00000000dec0:	d0000420 	adrp	x0, ffff000000093000 <intFileIORecord+0xed0>
ffff00000000dec4:	91286000 	add	x0, x0, #0xa18
ffff00000000dec8:	f9400001 	ldr	x1, [x0]
ffff00000000decc:	d0000420 	adrp	x0, ffff000000093000 <intFileIORecord+0xed0>
ffff00000000ded0:	91284000 	add	x0, x0, #0xa10
ffff00000000ded4:	b9400000 	ldr	w0, [x0]
ffff00000000ded8:	93407c00 	sxtw	x0, w0
ffff00000000dedc:	8b000020 	add	x0, x1, x0
ffff00000000dee0:	aa0003e3 	mov	x3, x0
ffff00000000dee4:	f0000460 	adrp	x0, ffff00000009c000 <task+0x18>
ffff00000000dee8:	91338001 	add	x1, x0, #0xce0
ffff00000000deec:	b98027a2 	ldrsw	x2, [x29,#36]
ffff00000000def0:	d2800500 	mov	x0, #0x28                  	// #40
ffff00000000def4:	9b007c40 	mul	x0, x2, x0
ffff00000000def8:	8b000020 	add	x0, x1, x0
ffff00000000defc:	91008000 	add	x0, x0, #0x20
ffff00000000df00:	f9000003 	str	x3, [x0]
ffff00000000df04:	b98027a1 	ldrsw	x1, [x29,#36]
ffff00000000df08:	d2800500 	mov	x0, #0x28                  	// #40
ffff00000000df0c:	9b007c21 	mul	x1, x1, x0
ffff00000000df10:	f0000460 	adrp	x0, ffff00000009c000 <task+0x18>
ffff00000000df14:	91338000 	add	x0, x0, #0xce0
ffff00000000df18:	8b000021 	add	x1, x1, x0
ffff00000000df1c:	b0000020 	adrp	x0, ffff000000012000 <sys_call_table+0x1c8>
ffff00000000df20:	9123c000 	add	x0, x0, #0x8f0
ffff00000000df24:	97ffddf9 	bl	ffff000000005708 <tfp_printf>
ffff00000000df28:	52800000 	mov	w0, #0x0                   	// #0
ffff00000000df2c:	1400000b 	b	ffff00000000df58 <reg_compt+0x1dc>
ffff00000000df30:	b94027a0 	ldr	w0, [x29,#36]
ffff00000000df34:	11000400 	add	w0, w0, #0x1
ffff00000000df38:	b90027a0 	str	w0, [x29,#36]
ffff00000000df3c:	b94027a0 	ldr	w0, [x29,#36]
ffff00000000df40:	7100fc1f 	cmp	w0, #0x3f
ffff00000000df44:	54fff32d 	b.le	ffff00000000dda8 <reg_compt+0x2c>
ffff00000000df48:	b0000020 	adrp	x0, ffff000000012000 <sys_call_table+0x1c8>
ffff00000000df4c:	91246000 	add	x0, x0, #0x918
ffff00000000df50:	97ffddee 	bl	ffff000000005708 <tfp_printf>
ffff00000000df54:	52800020 	mov	w0, #0x1                   	// #1
ffff00000000df58:	a8c37bfd 	ldp	x29, x30, [sp],#48
ffff00000000df5c:	d65f03c0 	ret

ffff00000000df60 <get_ndx>:
ffff00000000df60:	d10043ff 	sub	sp, sp, #0x10
ffff00000000df64:	f90007e0 	str	x0, [sp,#8]
ffff00000000df68:	f94007e0 	ldr	x0, [sp,#8]
ffff00000000df6c:	79400c00 	ldrh	w0, [x0,#6]
ffff00000000df70:	910043ff 	add	sp, sp, #0x10
ffff00000000df74:	d65f03c0 	ret

ffff00000000df78 <use_compt_func>:
ffff00000000df78:	a9bb7bfd 	stp	x29, x30, [sp,#-80]!
ffff00000000df7c:	910003fd 	mov	x29, sp
ffff00000000df80:	f90017a0 	str	x0, [x29,#40]
ffff00000000df84:	f90013a1 	str	x1, [x29,#32]
ffff00000000df88:	b9001fa2 	str	w2, [x29,#28]
ffff00000000df8c:	f9000ba3 	str	x3, [x29,#16]
ffff00000000df90:	b9004fbf 	str	wzr, [x29,#76]
ffff00000000df94:	b9004bbf 	str	wzr, [x29,#72]
ffff00000000df98:	b90047bf 	str	wzr, [x29,#68]
ffff00000000df9c:	14000067 	b	ffff00000000e138 <use_compt_func+0x1c0>
ffff00000000dfa0:	b98047a1 	ldrsw	x1, [x29,#68]
ffff00000000dfa4:	d2800300 	mov	x0, #0x18                  	// #24
ffff00000000dfa8:	9b007c20 	mul	x0, x1, x0
ffff00000000dfac:	f94013a1 	ldr	x1, [x29,#32]
ffff00000000dfb0:	8b000020 	add	x0, x1, x0
ffff00000000dfb4:	79400c00 	ldrh	w0, [x0,#6]
ffff00000000dfb8:	7100041f 	cmp	w0, #0x1
ffff00000000dfbc:	54000b81 	b.ne	ffff00000000e12c <use_compt_func+0x1b4>
ffff00000000dfc0:	b98047a1 	ldrsw	x1, [x29,#68]
ffff00000000dfc4:	d2800300 	mov	x0, #0x18                  	// #24
ffff00000000dfc8:	9b007c20 	mul	x0, x1, x0
ffff00000000dfcc:	f94013a1 	ldr	x1, [x29,#32]
ffff00000000dfd0:	8b000020 	add	x0, x1, x0
ffff00000000dfd4:	f9400800 	ldr	x0, [x0,#16]
ffff00000000dfd8:	7100001f 	cmp	w0, #0x0
ffff00000000dfdc:	54000a80 	b.eq	ffff00000000e12c <use_compt_func+0x1b4>
ffff00000000dfe0:	b90043bf 	str	wzr, [x29,#64]
ffff00000000dfe4:	90000480 	adrp	x0, ffff00000009d000 <ksym+0x320>
ffff00000000dfe8:	911b8000 	add	x0, x0, #0x6e0
ffff00000000dfec:	f9404c01 	ldr	x1, [x0,#152]
ffff00000000dff0:	b98047a2 	ldrsw	x2, [x29,#68]
ffff00000000dff4:	d2800300 	mov	x0, #0x18                  	// #24
ffff00000000dff8:	9b007c40 	mul	x0, x2, x0
ffff00000000dffc:	f94013a2 	ldr	x2, [x29,#32]
ffff00000000e000:	8b000040 	add	x0, x2, x0
ffff00000000e004:	b9400000 	ldr	w0, [x0]
ffff00000000e008:	2a0003e0 	mov	w0, w0
ffff00000000e00c:	8b000020 	add	x0, x1, x0
ffff00000000e010:	f94017a1 	ldr	x1, [x29,#40]
ffff00000000e014:	8b000020 	add	x0, x1, x0
ffff00000000e018:	f9001fa0 	str	x0, [x29,#56]
ffff00000000e01c:	14000012 	b	ffff00000000e064 <use_compt_func+0xec>
ffff00000000e020:	b98043a0 	ldrsw	x0, [x29,#64]
ffff00000000e024:	f9401fa1 	ldr	x1, [x29,#56]
ffff00000000e028:	8b000020 	add	x0, x1, x0
ffff00000000e02c:	39400004 	ldrb	w4, [x0]
ffff00000000e030:	d0000460 	adrp	x0, ffff00000009c000 <task+0x18>
ffff00000000e034:	912e8002 	add	x2, x0, #0xba0
ffff00000000e038:	b98043a0 	ldrsw	x0, [x29,#64]
ffff00000000e03c:	b9804fa3 	ldrsw	x3, [x29,#76]
ffff00000000e040:	d2800281 	mov	x1, #0x14                  	// #20
ffff00000000e044:	9b017c61 	mul	x1, x3, x1
ffff00000000e048:	8b010041 	add	x1, x2, x1
ffff00000000e04c:	8b000020 	add	x0, x1, x0
ffff00000000e050:	2a0403e1 	mov	w1, w4
ffff00000000e054:	39000001 	strb	w1, [x0]
ffff00000000e058:	b94043a0 	ldr	w0, [x29,#64]
ffff00000000e05c:	11000400 	add	w0, w0, #0x1
ffff00000000e060:	b90043a0 	str	w0, [x29,#64]
ffff00000000e064:	b98043a0 	ldrsw	x0, [x29,#64]
ffff00000000e068:	f9401fa1 	ldr	x1, [x29,#56]
ffff00000000e06c:	8b000020 	add	x0, x1, x0
ffff00000000e070:	39400000 	ldrb	w0, [x0]
ffff00000000e074:	7100001f 	cmp	w0, #0x0
ffff00000000e078:	54fffd41 	b.ne	ffff00000000e020 <use_compt_func+0xa8>
ffff00000000e07c:	b98047a1 	ldrsw	x1, [x29,#68]
ffff00000000e080:	d2800300 	mov	x0, #0x18                  	// #24
ffff00000000e084:	9b007c20 	mul	x0, x1, x0
ffff00000000e088:	f94013a1 	ldr	x1, [x29,#32]
ffff00000000e08c:	8b000020 	add	x0, x1, x0
ffff00000000e090:	f9400800 	ldr	x0, [x0,#16]
ffff00000000e094:	2a0003e3 	mov	w3, w0
ffff00000000e098:	d0000460 	adrp	x0, ffff00000009c000 <task+0x18>
ffff00000000e09c:	912e8001 	add	x1, x0, #0xba0
ffff00000000e0a0:	b9804fa2 	ldrsw	x2, [x29,#76]
ffff00000000e0a4:	d2800280 	mov	x0, #0x14                  	// #20
ffff00000000e0a8:	9b007c40 	mul	x0, x2, x0
ffff00000000e0ac:	8b000020 	add	x0, x1, x0
ffff00000000e0b0:	91004000 	add	x0, x0, #0x10
ffff00000000e0b4:	b9000003 	str	w3, [x0]
ffff00000000e0b8:	b9804fa1 	ldrsw	x1, [x29,#76]
ffff00000000e0bc:	d2800280 	mov	x0, #0x14                  	// #20
ffff00000000e0c0:	9b007c21 	mul	x1, x1, x0
ffff00000000e0c4:	d0000460 	adrp	x0, ffff00000009c000 <task+0x18>
ffff00000000e0c8:	912e8000 	add	x0, x0, #0xba0
ffff00000000e0cc:	8b000020 	add	x0, x1, x0
ffff00000000e0d0:	aa0003e3 	mov	x3, x0
ffff00000000e0d4:	f9400ba0 	ldr	x0, [x29,#16]
ffff00000000e0d8:	d2800142 	mov	x2, #0xa                   	// #10
ffff00000000e0dc:	aa0003e1 	mov	x1, x0
ffff00000000e0e0:	aa0303e0 	mov	x0, x3
ffff00000000e0e4:	940009a3 	bl	ffff000000010770 <memcmp>
ffff00000000e0e8:	7100001f 	cmp	w0, #0x0
ffff00000000e0ec:	54000061 	b.ne	ffff00000000e0f8 <use_compt_func+0x180>
ffff00000000e0f0:	b9404ba0 	ldr	w0, [x29,#72]
ffff00000000e0f4:	1400001d 	b	ffff00000000e168 <use_compt_func+0x1f0>
ffff00000000e0f8:	b98047a1 	ldrsw	x1, [x29,#68]
ffff00000000e0fc:	d2800300 	mov	x0, #0x18                  	// #24
ffff00000000e100:	9b007c20 	mul	x0, x1, x0
ffff00000000e104:	f94013a1 	ldr	x1, [x29,#32]
ffff00000000e108:	8b000020 	add	x0, x1, x0
ffff00000000e10c:	f9400800 	ldr	x0, [x0,#16]
ffff00000000e110:	2a0003e1 	mov	w1, w0
ffff00000000e114:	b9404ba0 	ldr	w0, [x29,#72]
ffff00000000e118:	0b010000 	add	w0, w0, w1
ffff00000000e11c:	b9004ba0 	str	w0, [x29,#72]
ffff00000000e120:	b9404fa0 	ldr	w0, [x29,#76]
ffff00000000e124:	11000400 	add	w0, w0, #0x1
ffff00000000e128:	b9004fa0 	str	w0, [x29,#76]
ffff00000000e12c:	b94047a0 	ldr	w0, [x29,#68]
ffff00000000e130:	11000400 	add	w0, w0, #0x1
ffff00000000e134:	b90047a0 	str	w0, [x29,#68]
ffff00000000e138:	b9401fa0 	ldr	w0, [x29,#28]
ffff00000000e13c:	52955561 	mov	w1, #0xaaab                	// #43691
ffff00000000e140:	72a55541 	movk	w1, #0x2aaa, lsl #16
ffff00000000e144:	9b217c01 	smull	x1, w0, w1
ffff00000000e148:	d360fc21 	lsr	x1, x1, #32
ffff00000000e14c:	13027c21 	asr	w1, w1, #2
ffff00000000e150:	131f7c00 	asr	w0, w0, #31
ffff00000000e154:	4b000021 	sub	w1, w1, w0
ffff00000000e158:	b94047a0 	ldr	w0, [x29,#68]
ffff00000000e15c:	6b00003f 	cmp	w1, w0
ffff00000000e160:	54fff20c 	b.gt	ffff00000000dfa0 <use_compt_func+0x28>
ffff00000000e164:	12800000 	mov	w0, #0xffffffff            	// #-1
ffff00000000e168:	a8c57bfd 	ldp	x29, x30, [sp],#80
ffff00000000e16c:	d65f03c0 	ret

ffff00000000e170 <get_strname>:
ffff00000000e170:	d10043ff 	sub	sp, sp, #0x10
ffff00000000e174:	f90007e0 	str	x0, [sp,#8]
ffff00000000e178:	f94007e0 	ldr	x0, [sp,#8]
ffff00000000e17c:	b9400000 	ldr	w0, [x0]
ffff00000000e180:	910043ff 	add	sp, sp, #0x10
ffff00000000e184:	d65f03c0 	ret

ffff00000000e188 <relocate>:
ffff00000000e188:	a9b67bfd 	stp	x29, x30, [sp,#-160]!
ffff00000000e18c:	910003fd 	mov	x29, sp
ffff00000000e190:	f9001fa0 	str	x0, [x29,#56]
ffff00000000e194:	f9001ba1 	str	x1, [x29,#48]
ffff00000000e198:	f90017a2 	str	x2, [x29,#40]
ffff00000000e19c:	f90013a3 	str	x3, [x29,#32]
ffff00000000e1a0:	f9000fa4 	str	x4, [x29,#24]
ffff00000000e1a4:	f9000ba5 	str	x5, [x29,#16]
ffff00000000e1a8:	b9009fbf 	str	wzr, [x29,#156]
ffff00000000e1ac:	14000129 	b	ffff00000000e650 <relocate+0x4c8>
ffff00000000e1b0:	b9809fa1 	ldrsw	x1, [x29,#156]
ffff00000000e1b4:	d2800300 	mov	x0, #0x18                  	// #24
ffff00000000e1b8:	9b007c20 	mul	x0, x1, x0
ffff00000000e1bc:	f9400fa1 	ldr	x1, [x29,#24]
ffff00000000e1c0:	8b000020 	add	x0, x1, x0
ffff00000000e1c4:	f9400400 	ldr	x0, [x0,#8]
ffff00000000e1c8:	71044c1f 	cmp	w0, #0x113
ffff00000000e1cc:	540023c0 	b.eq	ffff00000000e644 <relocate+0x4bc>
ffff00000000e1d0:	b9809fa1 	ldrsw	x1, [x29,#156]
ffff00000000e1d4:	d2800300 	mov	x0, #0x18                  	// #24
ffff00000000e1d8:	9b007c20 	mul	x0, x1, x0
ffff00000000e1dc:	f9400fa1 	ldr	x1, [x29,#24]
ffff00000000e1e0:	8b000020 	add	x0, x1, x0
ffff00000000e1e4:	f9400400 	ldr	x0, [x0,#8]
ffff00000000e1e8:	7104541f 	cmp	w0, #0x115
ffff00000000e1ec:	54000e61 	b.ne	ffff00000000e3b8 <relocate+0x230>
ffff00000000e1f0:	f0000460 	adrp	x0, ffff00000009d000 <ksym+0x320>
ffff00000000e1f4:	911b8000 	add	x0, x0, #0x6e0
ffff00000000e1f8:	f9404001 	ldr	x1, [x0,#128]
ffff00000000e1fc:	b9809fa2 	ldrsw	x2, [x29,#156]
ffff00000000e200:	d2800300 	mov	x0, #0x18                  	// #24
ffff00000000e204:	9b007c40 	mul	x0, x2, x0
ffff00000000e208:	f9400fa2 	ldr	x2, [x29,#24]
ffff00000000e20c:	8b000040 	add	x0, x2, x0
ffff00000000e210:	f9400400 	ldr	x0, [x0,#8]
ffff00000000e214:	d360fc02 	lsr	x2, x0, #32
ffff00000000e218:	d2800300 	mov	x0, #0x18                  	// #24
ffff00000000e21c:	9b007c40 	mul	x0, x2, x0
ffff00000000e220:	8b000020 	add	x0, x1, x0
ffff00000000e224:	f94013a1 	ldr	x1, [x29,#32]
ffff00000000e228:	8b000020 	add	x0, x1, x0
ffff00000000e22c:	97ffff4d 	bl	ffff00000000df60 <get_ndx>
ffff00000000e230:	b9008fa0 	str	w0, [x29,#140]
ffff00000000e234:	b9808fa1 	ldrsw	x1, [x29,#140]
ffff00000000e238:	f94017a0 	ldr	x0, [x29,#40]
ffff00000000e23c:	9b007c21 	mul	x1, x1, x0
ffff00000000e240:	f9401ba0 	ldr	x0, [x29,#48]
ffff00000000e244:	8b000020 	add	x0, x1, x0
ffff00000000e248:	f94013a1 	ldr	x1, [x29,#32]
ffff00000000e24c:	8b000020 	add	x0, x1, x0
ffff00000000e250:	9400010b 	bl	ffff00000000e67c <find_sec_addr>
ffff00000000e254:	b9008ba0 	str	w0, [x29,#136]
ffff00000000e258:	b9809fa1 	ldrsw	x1, [x29,#156]
ffff00000000e25c:	d2800300 	mov	x0, #0x18                  	// #24
ffff00000000e260:	9b007c20 	mul	x0, x1, x0
ffff00000000e264:	f9400fa1 	ldr	x1, [x29,#24]
ffff00000000e268:	8b000020 	add	x0, x1, x0
ffff00000000e26c:	f9400000 	ldr	x0, [x0]
ffff00000000e270:	f9401fa1 	ldr	x1, [x29,#56]
ffff00000000e274:	8b000020 	add	x0, x1, x0
ffff00000000e278:	f90043a0 	str	x0, [x29,#128]
ffff00000000e27c:	b9408ba0 	ldr	w0, [x29,#136]
ffff00000000e280:	7100041f 	cmp	w0, #0x1
ffff00000000e284:	54000261 	b.ne	ffff00000000e2d0 <relocate+0x148>
ffff00000000e288:	f0000460 	adrp	x0, ffff00000009d000 <ksym+0x320>
ffff00000000e28c:	911b8000 	add	x0, x0, #0x6e0
ffff00000000e290:	b9401000 	ldr	w0, [x0,#16]
ffff00000000e294:	93407c01 	sxtw	x1, w0
ffff00000000e298:	b9809fa2 	ldrsw	x2, [x29,#156]
ffff00000000e29c:	d2800300 	mov	x0, #0x18                  	// #24
ffff00000000e2a0:	9b007c40 	mul	x0, x2, x0
ffff00000000e2a4:	f9400fa2 	ldr	x2, [x29,#24]
ffff00000000e2a8:	8b000040 	add	x0, x2, x0
ffff00000000e2ac:	f9400800 	ldr	x0, [x0,#16]
ffff00000000e2b0:	8b000020 	add	x0, x1, x0
ffff00000000e2b4:	531e7400 	lsl	w0, w0, #2
ffff00000000e2b8:	53185c01 	lsl	w1, w0, #8
ffff00000000e2bc:	52b22000 	mov	w0, #0x91000000            	// #-1862270976
ffff00000000e2c0:	0b000021 	add	w1, w1, w0
ffff00000000e2c4:	f94043a0 	ldr	x0, [x29,#128]
ffff00000000e2c8:	b9000001 	str	w1, [x0]
ffff00000000e2cc:	140000de 	b	ffff00000000e644 <relocate+0x4bc>
ffff00000000e2d0:	b9408ba0 	ldr	w0, [x29,#136]
ffff00000000e2d4:	7100081f 	cmp	w0, #0x2
ffff00000000e2d8:	540002e1 	b.ne	ffff00000000e334 <relocate+0x1ac>
ffff00000000e2dc:	f0000460 	adrp	x0, ffff00000009d000 <ksym+0x320>
ffff00000000e2e0:	911b8000 	add	x0, x0, #0x6e0
ffff00000000e2e4:	b9401001 	ldr	w1, [x0,#16]
ffff00000000e2e8:	f0000460 	adrp	x0, ffff00000009d000 <ksym+0x320>
ffff00000000e2ec:	911b8000 	add	x0, x0, #0x6e0
ffff00000000e2f0:	b9402800 	ldr	w0, [x0,#40]
ffff00000000e2f4:	0b000020 	add	w0, w1, w0
ffff00000000e2f8:	93407c01 	sxtw	x1, w0
ffff00000000e2fc:	b9809fa2 	ldrsw	x2, [x29,#156]
ffff00000000e300:	d2800300 	mov	x0, #0x18                  	// #24
ffff00000000e304:	9b007c40 	mul	x0, x2, x0
ffff00000000e308:	f9400fa2 	ldr	x2, [x29,#24]
ffff00000000e30c:	8b000040 	add	x0, x2, x0
ffff00000000e310:	f9400800 	ldr	x0, [x0,#16]
ffff00000000e314:	8b000020 	add	x0, x1, x0
ffff00000000e318:	531e7400 	lsl	w0, w0, #2
ffff00000000e31c:	53185c01 	lsl	w1, w0, #8
ffff00000000e320:	52b22000 	mov	w0, #0x91000000            	// #-1862270976
ffff00000000e324:	0b000021 	add	w1, w1, w0
ffff00000000e328:	f94043a0 	ldr	x0, [x29,#128]
ffff00000000e32c:	b9000001 	str	w1, [x0]
ffff00000000e330:	140000c5 	b	ffff00000000e644 <relocate+0x4bc>
ffff00000000e334:	b9408ba0 	ldr	w0, [x29,#136]
ffff00000000e338:	71000c1f 	cmp	w0, #0x3
ffff00000000e33c:	54000361 	b.ne	ffff00000000e3a8 <relocate+0x220>
ffff00000000e340:	f0000460 	adrp	x0, ffff00000009d000 <ksym+0x320>
ffff00000000e344:	911b8000 	add	x0, x0, #0x6e0
ffff00000000e348:	b9401001 	ldr	w1, [x0,#16]
ffff00000000e34c:	f0000460 	adrp	x0, ffff00000009d000 <ksym+0x320>
ffff00000000e350:	911b8000 	add	x0, x0, #0x6e0
ffff00000000e354:	b9402800 	ldr	w0, [x0,#40]
ffff00000000e358:	0b000021 	add	w1, w1, w0
ffff00000000e35c:	f0000460 	adrp	x0, ffff00000009d000 <ksym+0x320>
ffff00000000e360:	911b8000 	add	x0, x0, #0x6e0
ffff00000000e364:	b9404000 	ldr	w0, [x0,#64]
ffff00000000e368:	0b000020 	add	w0, w1, w0
ffff00000000e36c:	93407c01 	sxtw	x1, w0
ffff00000000e370:	b9809fa2 	ldrsw	x2, [x29,#156]
ffff00000000e374:	d2800300 	mov	x0, #0x18                  	// #24
ffff00000000e378:	9b007c40 	mul	x0, x2, x0
ffff00000000e37c:	f9400fa2 	ldr	x2, [x29,#24]
ffff00000000e380:	8b000040 	add	x0, x2, x0
ffff00000000e384:	f9400800 	ldr	x0, [x0,#16]
ffff00000000e388:	8b000020 	add	x0, x1, x0
ffff00000000e38c:	531e7400 	lsl	w0, w0, #2
ffff00000000e390:	53185c01 	lsl	w1, w0, #8
ffff00000000e394:	52b22000 	mov	w0, #0x91000000            	// #-1862270976
ffff00000000e398:	0b000021 	add	w1, w1, w0
ffff00000000e39c:	f94043a0 	ldr	x0, [x29,#128]
ffff00000000e3a0:	b9000001 	str	w1, [x0]
ffff00000000e3a4:	140000a8 	b	ffff00000000e644 <relocate+0x4bc>
ffff00000000e3a8:	90000020 	adrp	x0, ffff000000012000 <sys_call_table+0x1c8>
ffff00000000e3ac:	91250000 	add	x0, x0, #0x940
ffff00000000e3b0:	97ffdcd6 	bl	ffff000000005708 <tfp_printf>
ffff00000000e3b4:	140000a4 	b	ffff00000000e644 <relocate+0x4bc>
ffff00000000e3b8:	b9809fa1 	ldrsw	x1, [x29,#156]
ffff00000000e3bc:	d2800300 	mov	x0, #0x18                  	// #24
ffff00000000e3c0:	9b007c20 	mul	x0, x1, x0
ffff00000000e3c4:	f9400fa1 	ldr	x1, [x29,#24]
ffff00000000e3c8:	8b000020 	add	x0, x1, x0
ffff00000000e3cc:	f9400400 	ldr	x0, [x0,#8]
ffff00000000e3d0:	71046c1f 	cmp	w0, #0x11b
ffff00000000e3d4:	54001381 	b.ne	ffff00000000e644 <relocate+0x4bc>
ffff00000000e3d8:	f0000460 	adrp	x0, ffff00000009d000 <ksym+0x320>
ffff00000000e3dc:	911b8000 	add	x0, x0, #0x6e0
ffff00000000e3e0:	f9404001 	ldr	x1, [x0,#128]
ffff00000000e3e4:	b9809fa2 	ldrsw	x2, [x29,#156]
ffff00000000e3e8:	d2800300 	mov	x0, #0x18                  	// #24
ffff00000000e3ec:	9b007c40 	mul	x0, x2, x0
ffff00000000e3f0:	f9400fa2 	ldr	x2, [x29,#24]
ffff00000000e3f4:	8b000040 	add	x0, x2, x0
ffff00000000e3f8:	f9400400 	ldr	x0, [x0,#8]
ffff00000000e3fc:	d360fc02 	lsr	x2, x0, #32
ffff00000000e400:	d2800300 	mov	x0, #0x18                  	// #24
ffff00000000e404:	9b007c40 	mul	x0, x2, x0
ffff00000000e408:	8b000020 	add	x0, x1, x0
ffff00000000e40c:	f94013a1 	ldr	x1, [x29,#32]
ffff00000000e410:	8b000020 	add	x0, x1, x0
ffff00000000e414:	97fffed3 	bl	ffff00000000df60 <get_ndx>
ffff00000000e418:	b9007fa0 	str	w0, [x29,#124]
ffff00000000e41c:	b9407fa0 	ldr	w0, [x29,#124]
ffff00000000e420:	7100001f 	cmp	w0, #0x0
ffff00000000e424:	540010a1 	b.ne	ffff00000000e638 <relocate+0x4b0>
ffff00000000e428:	f0000460 	adrp	x0, ffff00000009d000 <ksym+0x320>
ffff00000000e42c:	911b8000 	add	x0, x0, #0x6e0
ffff00000000e430:	f9404001 	ldr	x1, [x0,#128]
ffff00000000e434:	b9809fa2 	ldrsw	x2, [x29,#156]
ffff00000000e438:	d2800300 	mov	x0, #0x18                  	// #24
ffff00000000e43c:	9b007c40 	mul	x0, x2, x0
ffff00000000e440:	f9400fa2 	ldr	x2, [x29,#24]
ffff00000000e444:	8b000040 	add	x0, x2, x0
ffff00000000e448:	f9400400 	ldr	x0, [x0,#8]
ffff00000000e44c:	d360fc02 	lsr	x2, x0, #32
ffff00000000e450:	d2800300 	mov	x0, #0x18                  	// #24
ffff00000000e454:	9b007c40 	mul	x0, x2, x0
ffff00000000e458:	8b000020 	add	x0, x1, x0
ffff00000000e45c:	f94013a1 	ldr	x1, [x29,#32]
ffff00000000e460:	8b000020 	add	x0, x1, x0
ffff00000000e464:	97ffff43 	bl	ffff00000000e170 <get_strname>
ffff00000000e468:	b9007ba0 	str	w0, [x29,#120]
ffff00000000e46c:	a9047fbf 	stp	xzr, xzr, [x29,#64]
ffff00000000e470:	f9002bbf 	str	xzr, [x29,#80]
ffff00000000e474:	b9005bbf 	str	wzr, [x29,#88]
ffff00000000e478:	7900bbbf 	strh	wzr, [x29,#92]
ffff00000000e47c:	b9009bbf 	str	wzr, [x29,#152]
ffff00000000e480:	b90097bf 	str	wzr, [x29,#148]
ffff00000000e484:	b90093bf 	str	wzr, [x29,#144]
ffff00000000e488:	f0000460 	adrp	x0, ffff00000009d000 <ksym+0x320>
ffff00000000e48c:	911b8000 	add	x0, x0, #0x6e0
ffff00000000e490:	f9404c01 	ldr	x1, [x0,#152]
ffff00000000e494:	b9807ba0 	ldrsw	x0, [x29,#120]
ffff00000000e498:	8b000020 	add	x0, x1, x0
ffff00000000e49c:	f94013a1 	ldr	x1, [x29,#32]
ffff00000000e4a0:	8b000020 	add	x0, x1, x0
ffff00000000e4a4:	f9003ba0 	str	x0, [x29,#112]
ffff00000000e4a8:	1400000d 	b	ffff00000000e4dc <relocate+0x354>
ffff00000000e4ac:	b9809ba0 	ldrsw	x0, [x29,#152]
ffff00000000e4b0:	f9403ba1 	ldr	x1, [x29,#112]
ffff00000000e4b4:	8b000020 	add	x0, x1, x0
ffff00000000e4b8:	39400002 	ldrb	w2, [x0]
ffff00000000e4bc:	b9809ba0 	ldrsw	x0, [x29,#152]
ffff00000000e4c0:	d13d83a1 	sub	x1, x29, #0xf60
ffff00000000e4c4:	8b000020 	add	x0, x1, x0
ffff00000000e4c8:	2a0203e1 	mov	w1, w2
ffff00000000e4cc:	393e8001 	strb	w1, [x0,#4000]
ffff00000000e4d0:	b9409ba0 	ldr	w0, [x29,#152]
ffff00000000e4d4:	11000400 	add	w0, w0, #0x1
ffff00000000e4d8:	b9009ba0 	str	w0, [x29,#152]
ffff00000000e4dc:	b9809ba0 	ldrsw	x0, [x29,#152]
ffff00000000e4e0:	f9403ba1 	ldr	x1, [x29,#112]
ffff00000000e4e4:	8b000020 	add	x0, x1, x0
ffff00000000e4e8:	39400000 	ldrb	w0, [x0]
ffff00000000e4ec:	7100001f 	cmp	w0, #0x0
ffff00000000e4f0:	54fffde1 	b.ne	ffff00000000e4ac <relocate+0x324>
ffff00000000e4f4:	14000017 	b	ffff00000000e550 <relocate+0x3c8>
ffff00000000e4f8:	b94097a0 	ldr	w0, [x29,#148]
ffff00000000e4fc:	11000401 	add	w1, w0, #0x1
ffff00000000e500:	b90097a1 	str	w1, [x29,#148]
ffff00000000e504:	93407c01 	sxtw	x1, w0
ffff00000000e508:	d2800500 	mov	x0, #0x28                  	// #40
ffff00000000e50c:	9b007c21 	mul	x1, x1, x0
ffff00000000e510:	d0000460 	adrp	x0, ffff00000009c000 <task+0x18>
ffff00000000e514:	91338000 	add	x0, x0, #0xce0
ffff00000000e518:	8b000020 	add	x0, x1, x0
ffff00000000e51c:	aa0003e3 	mov	x3, x0
ffff00000000e520:	910103a1 	add	x1, x29, #0x40
ffff00000000e524:	b9409ba0 	ldr	w0, [x29,#152]
ffff00000000e528:	51000400 	sub	w0, w0, #0x1
ffff00000000e52c:	93407c00 	sxtw	x0, w0
ffff00000000e530:	aa0003e2 	mov	x2, x0
ffff00000000e534:	aa0303e0 	mov	x0, x3
ffff00000000e538:	9400088e 	bl	ffff000000010770 <memcmp>
ffff00000000e53c:	7100001f 	cmp	w0, #0x0
ffff00000000e540:	54000081 	b.ne	ffff00000000e550 <relocate+0x3c8>
ffff00000000e544:	52800020 	mov	w0, #0x1                   	// #1
ffff00000000e548:	b90093a0 	str	w0, [x29,#144]
ffff00000000e54c:	1400000a 	b	ffff00000000e574 <relocate+0x3ec>
ffff00000000e550:	d0000460 	adrp	x0, ffff00000009c000 <task+0x18>
ffff00000000e554:	91338001 	add	x1, x0, #0xce0
ffff00000000e558:	b98097a2 	ldrsw	x2, [x29,#148]
ffff00000000e55c:	d2800500 	mov	x0, #0x28                  	// #40
ffff00000000e560:	9b007c40 	mul	x0, x2, x0
ffff00000000e564:	8b000020 	add	x0, x1, x0
ffff00000000e568:	39400000 	ldrb	w0, [x0]
ffff00000000e56c:	7100001f 	cmp	w0, #0x0
ffff00000000e570:	54fffc41 	b.ne	ffff00000000e4f8 <relocate+0x370>
ffff00000000e574:	b94093a0 	ldr	w0, [x29,#144]
ffff00000000e578:	7100041f 	cmp	w0, #0x1
ffff00000000e57c:	54000521 	b.ne	ffff00000000e620 <relocate+0x498>
ffff00000000e580:	f9401fa0 	ldr	x0, [x29,#56]
ffff00000000e584:	93407c01 	sxtw	x1, w0
ffff00000000e588:	b9809fa2 	ldrsw	x2, [x29,#156]
ffff00000000e58c:	d2800300 	mov	x0, #0x18                  	// #24
ffff00000000e590:	9b007c40 	mul	x0, x2, x0
ffff00000000e594:	f9400fa2 	ldr	x2, [x29,#24]
ffff00000000e598:	8b000040 	add	x0, x2, x0
ffff00000000e59c:	f9400000 	ldr	x0, [x0]
ffff00000000e5a0:	8b000021 	add	x1, x1, x0
ffff00000000e5a4:	b94097a0 	ldr	w0, [x29,#148]
ffff00000000e5a8:	51000403 	sub	w3, w0, #0x1
ffff00000000e5ac:	d0000460 	adrp	x0, ffff00000009c000 <task+0x18>
ffff00000000e5b0:	91338002 	add	x2, x0, #0xce0
ffff00000000e5b4:	93407c63 	sxtw	x3, w3
ffff00000000e5b8:	d2800500 	mov	x0, #0x28                  	// #40
ffff00000000e5bc:	9b007c60 	mul	x0, x3, x0
ffff00000000e5c0:	8b000040 	add	x0, x2, x0
ffff00000000e5c4:	91008000 	add	x0, x0, #0x20
ffff00000000e5c8:	f9400000 	ldr	x0, [x0]
ffff00000000e5cc:	cb000020 	sub	x0, x1, x0
ffff00000000e5d0:	d342fc00 	lsr	x0, x0, #2
ffff00000000e5d4:	2a0003e1 	mov	w1, w0
ffff00000000e5d8:	52a08000 	mov	w0, #0x4000000             	// #67108864
ffff00000000e5dc:	4b010000 	sub	w0, w0, w1
ffff00000000e5e0:	b9006fa0 	str	w0, [x29,#108]
ffff00000000e5e4:	b9809fa1 	ldrsw	x1, [x29,#156]
ffff00000000e5e8:	d2800300 	mov	x0, #0x18                  	// #24
ffff00000000e5ec:	9b007c20 	mul	x0, x1, x0
ffff00000000e5f0:	f9400fa1 	ldr	x1, [x29,#24]
ffff00000000e5f4:	8b000020 	add	x0, x1, x0
ffff00000000e5f8:	f9400000 	ldr	x0, [x0]
ffff00000000e5fc:	f9401fa1 	ldr	x1, [x29,#56]
ffff00000000e600:	8b000020 	add	x0, x1, x0
ffff00000000e604:	f90033a0 	str	x0, [x29,#96]
ffff00000000e608:	b9406fa1 	ldr	w1, [x29,#108]
ffff00000000e60c:	52b28000 	mov	w0, #0x94000000            	// #-1811939328
ffff00000000e610:	0b000021 	add	w1, w1, w0
ffff00000000e614:	f94033a0 	ldr	x0, [x29,#96]
ffff00000000e618:	b9000001 	str	w1, [x0]
ffff00000000e61c:	1400000a 	b	ffff00000000e644 <relocate+0x4bc>
ffff00000000e620:	910103a1 	add	x1, x29, #0x40
ffff00000000e624:	90000020 	adrp	x0, ffff000000012000 <sys_call_table+0x1c8>
ffff00000000e628:	91256000 	add	x0, x0, #0x958
ffff00000000e62c:	97ffdc37 	bl	ffff000000005708 <tfp_printf>
ffff00000000e630:	12800000 	mov	w0, #0xffffffff            	// #-1
ffff00000000e634:	14000010 	b	ffff00000000e674 <relocate+0x4ec>
ffff00000000e638:	90000020 	adrp	x0, ffff000000012000 <sys_call_table+0x1c8>
ffff00000000e63c:	91262000 	add	x0, x0, #0x988
ffff00000000e640:	97ffdc32 	bl	ffff000000005708 <tfp_printf>
ffff00000000e644:	b9409fa0 	ldr	w0, [x29,#156]
ffff00000000e648:	11000400 	add	w0, w0, #0x1
ffff00000000e64c:	b9009fa0 	str	w0, [x29,#156]
ffff00000000e650:	b9809fa1 	ldrsw	x1, [x29,#156]
ffff00000000e654:	f9400ba2 	ldr	x2, [x29,#16]
ffff00000000e658:	b201f3e0 	mov	x0, #0xaaaaaaaaaaaaaaaa    	// #-6148914691236517206
ffff00000000e65c:	f2955560 	movk	x0, #0xaaab
ffff00000000e660:	9bc07c40 	umulh	x0, x2, x0
ffff00000000e664:	d344fc00 	lsr	x0, x0, #4
ffff00000000e668:	eb00003f 	cmp	x1, x0
ffff00000000e66c:	54ffda23 	b.cc	ffff00000000e1b0 <relocate+0x28>
ffff00000000e670:	52800000 	mov	w0, #0x0                   	// #0
ffff00000000e674:	a8ca7bfd 	ldp	x29, x30, [sp],#160
ffff00000000e678:	d65f03c0 	ret

ffff00000000e67c <find_sec_addr>:
ffff00000000e67c:	d10043ff 	sub	sp, sp, #0x10
ffff00000000e680:	f90007e0 	str	x0, [sp,#8]
ffff00000000e684:	f0000460 	adrp	x0, ffff00000009d000 <ksym+0x320>
ffff00000000e688:	911b8000 	add	x0, x0, #0x6e0
ffff00000000e68c:	f9400001 	ldr	x1, [x0]
ffff00000000e690:	f94007e0 	ldr	x0, [sp,#8]
ffff00000000e694:	b9400000 	ldr	w0, [x0]
ffff00000000e698:	2a0003e0 	mov	w0, w0
ffff00000000e69c:	eb00003f 	cmp	x1, x0
ffff00000000e6a0:	540001c1 	b.ne	ffff00000000e6d8 <find_sec_addr+0x5c>
ffff00000000e6a4:	f94007e0 	ldr	x0, [sp,#8]
ffff00000000e6a8:	f9400c01 	ldr	x1, [x0,#24]
ffff00000000e6ac:	f0000460 	adrp	x0, ffff00000009d000 <ksym+0x320>
ffff00000000e6b0:	911b8000 	add	x0, x0, #0x6e0
ffff00000000e6b4:	f9000401 	str	x1, [x0,#8]
ffff00000000e6b8:	f94007e0 	ldr	x0, [sp,#8]
ffff00000000e6bc:	f9401000 	ldr	x0, [x0,#32]
ffff00000000e6c0:	2a0003e1 	mov	w1, w0
ffff00000000e6c4:	f0000460 	adrp	x0, ffff00000009d000 <ksym+0x320>
ffff00000000e6c8:	911b8000 	add	x0, x0, #0x6e0
ffff00000000e6cc:	b9001001 	str	w1, [x0,#16]
ffff00000000e6d0:	52800000 	mov	w0, #0x0                   	// #0
ffff00000000e6d4:	14000081 	b	ffff00000000e8d8 <find_sec_addr+0x25c>
ffff00000000e6d8:	f0000460 	adrp	x0, ffff00000009d000 <ksym+0x320>
ffff00000000e6dc:	911b8000 	add	x0, x0, #0x6e0
ffff00000000e6e0:	f9400c01 	ldr	x1, [x0,#24]
ffff00000000e6e4:	f94007e0 	ldr	x0, [sp,#8]
ffff00000000e6e8:	b9400000 	ldr	w0, [x0]
ffff00000000e6ec:	2a0003e0 	mov	w0, w0
ffff00000000e6f0:	eb00003f 	cmp	x1, x0
ffff00000000e6f4:	540001c1 	b.ne	ffff00000000e72c <find_sec_addr+0xb0>
ffff00000000e6f8:	f94007e0 	ldr	x0, [sp,#8]
ffff00000000e6fc:	f9400c01 	ldr	x1, [x0,#24]
ffff00000000e700:	f0000460 	adrp	x0, ffff00000009d000 <ksym+0x320>
ffff00000000e704:	911b8000 	add	x0, x0, #0x6e0
ffff00000000e708:	f9001001 	str	x1, [x0,#32]
ffff00000000e70c:	f94007e0 	ldr	x0, [sp,#8]
ffff00000000e710:	f9401000 	ldr	x0, [x0,#32]
ffff00000000e714:	2a0003e1 	mov	w1, w0
ffff00000000e718:	f0000460 	adrp	x0, ffff00000009d000 <ksym+0x320>
ffff00000000e71c:	911b8000 	add	x0, x0, #0x6e0
ffff00000000e720:	b9002801 	str	w1, [x0,#40]
ffff00000000e724:	52800020 	mov	w0, #0x1                   	// #1
ffff00000000e728:	1400006c 	b	ffff00000000e8d8 <find_sec_addr+0x25c>
ffff00000000e72c:	f0000460 	adrp	x0, ffff00000009d000 <ksym+0x320>
ffff00000000e730:	911b8000 	add	x0, x0, #0x6e0
ffff00000000e734:	f9401801 	ldr	x1, [x0,#48]
ffff00000000e738:	f94007e0 	ldr	x0, [sp,#8]
ffff00000000e73c:	b9400000 	ldr	w0, [x0]
ffff00000000e740:	2a0003e0 	mov	w0, w0
ffff00000000e744:	eb00003f 	cmp	x1, x0
ffff00000000e748:	540001c1 	b.ne	ffff00000000e780 <find_sec_addr+0x104>
ffff00000000e74c:	f94007e0 	ldr	x0, [sp,#8]
ffff00000000e750:	f9400c01 	ldr	x1, [x0,#24]
ffff00000000e754:	f0000460 	adrp	x0, ffff00000009d000 <ksym+0x320>
ffff00000000e758:	911b8000 	add	x0, x0, #0x6e0
ffff00000000e75c:	f9001c01 	str	x1, [x0,#56]
ffff00000000e760:	f94007e0 	ldr	x0, [sp,#8]
ffff00000000e764:	f9401000 	ldr	x0, [x0,#32]
ffff00000000e768:	2a0003e1 	mov	w1, w0
ffff00000000e76c:	f0000460 	adrp	x0, ffff00000009d000 <ksym+0x320>
ffff00000000e770:	911b8000 	add	x0, x0, #0x6e0
ffff00000000e774:	b9004001 	str	w1, [x0,#64]
ffff00000000e778:	52800040 	mov	w0, #0x2                   	// #2
ffff00000000e77c:	14000057 	b	ffff00000000e8d8 <find_sec_addr+0x25c>
ffff00000000e780:	f0000460 	adrp	x0, ffff00000009d000 <ksym+0x320>
ffff00000000e784:	911b8000 	add	x0, x0, #0x6e0
ffff00000000e788:	f9402401 	ldr	x1, [x0,#72]
ffff00000000e78c:	f94007e0 	ldr	x0, [sp,#8]
ffff00000000e790:	b9400000 	ldr	w0, [x0]
ffff00000000e794:	2a0003e0 	mov	w0, w0
ffff00000000e798:	eb00003f 	cmp	x1, x0
ffff00000000e79c:	540001c1 	b.ne	ffff00000000e7d4 <find_sec_addr+0x158>
ffff00000000e7a0:	f94007e0 	ldr	x0, [sp,#8]
ffff00000000e7a4:	f9400c01 	ldr	x1, [x0,#24]
ffff00000000e7a8:	f0000460 	adrp	x0, ffff00000009d000 <ksym+0x320>
ffff00000000e7ac:	911b8000 	add	x0, x0, #0x6e0
ffff00000000e7b0:	f9002801 	str	x1, [x0,#80]
ffff00000000e7b4:	f94007e0 	ldr	x0, [sp,#8]
ffff00000000e7b8:	f9401000 	ldr	x0, [x0,#32]
ffff00000000e7bc:	2a0003e1 	mov	w1, w0
ffff00000000e7c0:	f0000460 	adrp	x0, ffff00000009d000 <ksym+0x320>
ffff00000000e7c4:	911b8000 	add	x0, x0, #0x6e0
ffff00000000e7c8:	b9005801 	str	w1, [x0,#88]
ffff00000000e7cc:	52800060 	mov	w0, #0x3                   	// #3
ffff00000000e7d0:	14000042 	b	ffff00000000e8d8 <find_sec_addr+0x25c>
ffff00000000e7d4:	f0000460 	adrp	x0, ffff00000009d000 <ksym+0x320>
ffff00000000e7d8:	911b8000 	add	x0, x0, #0x6e0
ffff00000000e7dc:	f9403001 	ldr	x1, [x0,#96]
ffff00000000e7e0:	f94007e0 	ldr	x0, [sp,#8]
ffff00000000e7e4:	b9400000 	ldr	w0, [x0]
ffff00000000e7e8:	2a0003e0 	mov	w0, w0
ffff00000000e7ec:	eb00003f 	cmp	x1, x0
ffff00000000e7f0:	540001c1 	b.ne	ffff00000000e828 <find_sec_addr+0x1ac>
ffff00000000e7f4:	f94007e0 	ldr	x0, [sp,#8]
ffff00000000e7f8:	f9400c01 	ldr	x1, [x0,#24]
ffff00000000e7fc:	f0000460 	adrp	x0, ffff00000009d000 <ksym+0x320>
ffff00000000e800:	911b8000 	add	x0, x0, #0x6e0
ffff00000000e804:	f9003401 	str	x1, [x0,#104]
ffff00000000e808:	f94007e0 	ldr	x0, [sp,#8]
ffff00000000e80c:	f9401000 	ldr	x0, [x0,#32]
ffff00000000e810:	2a0003e1 	mov	w1, w0
ffff00000000e814:	f0000460 	adrp	x0, ffff00000009d000 <ksym+0x320>
ffff00000000e818:	911b8000 	add	x0, x0, #0x6e0
ffff00000000e81c:	b9007001 	str	w1, [x0,#112]
ffff00000000e820:	52800080 	mov	w0, #0x4                   	// #4
ffff00000000e824:	1400002d 	b	ffff00000000e8d8 <find_sec_addr+0x25c>
ffff00000000e828:	f0000460 	adrp	x0, ffff00000009d000 <ksym+0x320>
ffff00000000e82c:	911b8000 	add	x0, x0, #0x6e0
ffff00000000e830:	f9403c01 	ldr	x1, [x0,#120]
ffff00000000e834:	f94007e0 	ldr	x0, [sp,#8]
ffff00000000e838:	b9400000 	ldr	w0, [x0]
ffff00000000e83c:	2a0003e0 	mov	w0, w0
ffff00000000e840:	eb00003f 	cmp	x1, x0
ffff00000000e844:	540001c1 	b.ne	ffff00000000e87c <find_sec_addr+0x200>
ffff00000000e848:	f94007e0 	ldr	x0, [sp,#8]
ffff00000000e84c:	f9400c01 	ldr	x1, [x0,#24]
ffff00000000e850:	f0000460 	adrp	x0, ffff00000009d000 <ksym+0x320>
ffff00000000e854:	911b8000 	add	x0, x0, #0x6e0
ffff00000000e858:	f9004001 	str	x1, [x0,#128]
ffff00000000e85c:	f94007e0 	ldr	x0, [sp,#8]
ffff00000000e860:	f9401000 	ldr	x0, [x0,#32]
ffff00000000e864:	2a0003e1 	mov	w1, w0
ffff00000000e868:	f0000460 	adrp	x0, ffff00000009d000 <ksym+0x320>
ffff00000000e86c:	911b8000 	add	x0, x0, #0x6e0
ffff00000000e870:	b9008801 	str	w1, [x0,#136]
ffff00000000e874:	528000a0 	mov	w0, #0x5                   	// #5
ffff00000000e878:	14000018 	b	ffff00000000e8d8 <find_sec_addr+0x25c>
ffff00000000e87c:	f0000460 	adrp	x0, ffff00000009d000 <ksym+0x320>
ffff00000000e880:	911b8000 	add	x0, x0, #0x6e0
ffff00000000e884:	f9404801 	ldr	x1, [x0,#144]
ffff00000000e888:	f94007e0 	ldr	x0, [sp,#8]
ffff00000000e88c:	b9400000 	ldr	w0, [x0]
ffff00000000e890:	2a0003e0 	mov	w0, w0
ffff00000000e894:	eb00003f 	cmp	x1, x0
ffff00000000e898:	540001c1 	b.ne	ffff00000000e8d0 <find_sec_addr+0x254>
ffff00000000e89c:	f94007e0 	ldr	x0, [sp,#8]
ffff00000000e8a0:	f9400c01 	ldr	x1, [x0,#24]
ffff00000000e8a4:	f0000460 	adrp	x0, ffff00000009d000 <ksym+0x320>
ffff00000000e8a8:	911b8000 	add	x0, x0, #0x6e0
ffff00000000e8ac:	f9004c01 	str	x1, [x0,#152]
ffff00000000e8b0:	f94007e0 	ldr	x0, [sp,#8]
ffff00000000e8b4:	f9401000 	ldr	x0, [x0,#32]
ffff00000000e8b8:	2a0003e1 	mov	w1, w0
ffff00000000e8bc:	f0000460 	adrp	x0, ffff00000009d000 <ksym+0x320>
ffff00000000e8c0:	911b8000 	add	x0, x0, #0x6e0
ffff00000000e8c4:	b900a001 	str	w1, [x0,#160]
ffff00000000e8c8:	528000c0 	mov	w0, #0x6                   	// #6
ffff00000000e8cc:	14000003 	b	ffff00000000e8d8 <find_sec_addr+0x25c>
ffff00000000e8d0:	f94007e0 	ldr	x0, [sp,#8]
ffff00000000e8d4:	b9400000 	ldr	w0, [x0]
ffff00000000e8d8:	910043ff 	add	sp, sp, #0x10
ffff00000000e8dc:	d65f03c0 	ret

ffff00000000e8e0 <check_file_format>:
ffff00000000e8e0:	a9bc7bfd 	stp	x29, x30, [sp,#-64]!
ffff00000000e8e4:	910003fd 	mov	x29, sp
ffff00000000e8e8:	f9001fa0 	str	x0, [x29,#56]
ffff00000000e8ec:	f9001ba1 	str	x1, [x29,#48]
ffff00000000e8f0:	f90017a2 	str	x2, [x29,#40]
ffff00000000e8f4:	f90013a3 	str	x3, [x29,#32]
ffff00000000e8f8:	f9000fa4 	str	x4, [x29,#24]
ffff00000000e8fc:	f9401fa0 	ldr	x0, [x29,#56]
ffff00000000e900:	39400000 	ldrb	w0, [x0]
ffff00000000e904:	7101fc1f 	cmp	w0, #0x7f
ffff00000000e908:	540001a1 	b.ne	ffff00000000e93c <check_file_format+0x5c>
ffff00000000e90c:	f9401fa0 	ldr	x0, [x29,#56]
ffff00000000e910:	39400400 	ldrb	w0, [x0,#1]
ffff00000000e914:	7101141f 	cmp	w0, #0x45
ffff00000000e918:	54000121 	b.ne	ffff00000000e93c <check_file_format+0x5c>
ffff00000000e91c:	f9401fa0 	ldr	x0, [x29,#56]
ffff00000000e920:	39400800 	ldrb	w0, [x0,#2]
ffff00000000e924:	7101301f 	cmp	w0, #0x4c
ffff00000000e928:	540000a1 	b.ne	ffff00000000e93c <check_file_format+0x5c>
ffff00000000e92c:	f9401fa0 	ldr	x0, [x29,#56]
ffff00000000e930:	39400c00 	ldrb	w0, [x0,#3]
ffff00000000e934:	7101181f 	cmp	w0, #0x46
ffff00000000e938:	54000060 	b.eq	ffff00000000e944 <check_file_format+0x64>
ffff00000000e93c:	52800000 	mov	w0, #0x0                   	// #0
ffff00000000e940:	14000031 	b	ffff00000000ea04 <check_file_format+0x124>
ffff00000000e944:	f9401ba0 	ldr	x0, [x29,#48]
ffff00000000e948:	f900001f 	str	xzr, [x0]
ffff00000000e94c:	f9401fa0 	ldr	x0, [x29,#56]
ffff00000000e950:	79407800 	ldrh	w0, [x0,#60]
ffff00000000e954:	53003c01 	uxth	w1, w0
ffff00000000e958:	f94017a0 	ldr	x0, [x29,#40]
ffff00000000e95c:	f9000001 	str	x1, [x0]
ffff00000000e960:	f9401fa0 	ldr	x0, [x29,#56]
ffff00000000e964:	79407400 	ldrh	w0, [x0,#58]
ffff00000000e968:	53003c01 	uxth	w1, w0
ffff00000000e96c:	f94013a0 	ldr	x0, [x29,#32]
ffff00000000e970:	f9000001 	str	x1, [x0]
ffff00000000e974:	f9401fa0 	ldr	x0, [x29,#56]
ffff00000000e978:	79407c00 	ldrh	w0, [x0,#62]
ffff00000000e97c:	53003c01 	uxth	w1, w0
ffff00000000e980:	f9400fa0 	ldr	x0, [x29,#24]
ffff00000000e984:	f9000001 	str	x1, [x0]
ffff00000000e988:	f9401fa0 	ldr	x0, [x29,#56]
ffff00000000e98c:	f9401400 	ldr	x0, [x0,#40]
ffff00000000e990:	92400800 	and	x0, x0, #0x7
ffff00000000e994:	f100001f 	cmp	x0, #0x0
ffff00000000e998:	540000c1 	b.ne	ffff00000000e9b0 <check_file_format+0xd0>
ffff00000000e99c:	f9401fa0 	ldr	x0, [x29,#56]
ffff00000000e9a0:	f9401401 	ldr	x1, [x0,#40]
ffff00000000e9a4:	f9401ba0 	ldr	x0, [x29,#48]
ffff00000000e9a8:	f9000001 	str	x1, [x0]
ffff00000000e9ac:	14000007 	b	ffff00000000e9c8 <check_file_format+0xe8>
ffff00000000e9b0:	f9401fa0 	ldr	x0, [x29,#56]
ffff00000000e9b4:	f9401400 	ldr	x0, [x0,#40]
ffff00000000e9b8:	927df000 	and	x0, x0, #0xfffffffffffffff8
ffff00000000e9bc:	91002001 	add	x1, x0, #0x8
ffff00000000e9c0:	f9401ba0 	ldr	x0, [x29,#48]
ffff00000000e9c4:	f9000001 	str	x1, [x0]
ffff00000000e9c8:	f9401ba0 	ldr	x0, [x29,#48]
ffff00000000e9cc:	f9400001 	ldr	x1, [x0]
ffff00000000e9d0:	f9401fa0 	ldr	x0, [x29,#56]
ffff00000000e9d4:	8b000021 	add	x1, x1, x0
ffff00000000e9d8:	f9401fa0 	ldr	x0, [x29,#56]
ffff00000000e9dc:	79407400 	ldrh	w0, [x0,#58]
ffff00000000e9e0:	2a0003e2 	mov	w2, w0
ffff00000000e9e4:	f9401fa0 	ldr	x0, [x29,#56]
ffff00000000e9e8:	79407c00 	ldrh	w0, [x0,#62]
ffff00000000e9ec:	1b007c40 	mul	w0, w2, w0
ffff00000000e9f0:	93407c00 	sxtw	x0, w0
ffff00000000e9f4:	8b000020 	add	x0, x1, x0
ffff00000000e9f8:	f9401fa1 	ldr	x1, [x29,#56]
ffff00000000e9fc:	94000004 	bl	ffff00000000ea0c <string_table>
ffff00000000ea00:	52800020 	mov	w0, #0x1                   	// #1
ffff00000000ea04:	a8c47bfd 	ldp	x29, x30, [sp],#64
ffff00000000ea08:	d65f03c0 	ret

ffff00000000ea0c <string_table>:
ffff00000000ea0c:	a9bd7bfd 	stp	x29, x30, [sp,#-48]!
ffff00000000ea10:	910003fd 	mov	x29, sp
ffff00000000ea14:	f9000fa0 	str	x0, [x29,#24]
ffff00000000ea18:	f9000ba1 	str	x1, [x29,#16]
ffff00000000ea1c:	f9400fa0 	ldr	x0, [x29,#24]
ffff00000000ea20:	f9401000 	ldr	x0, [x0,#32]
ffff00000000ea24:	f90017a0 	str	x0, [x29,#40]
ffff00000000ea28:	f9400fa0 	ldr	x0, [x29,#24]
ffff00000000ea2c:	f9400c01 	ldr	x1, [x0,#24]
ffff00000000ea30:	f9400ba0 	ldr	x0, [x29,#16]
ffff00000000ea34:	8b000020 	add	x0, x1, x0
ffff00000000ea38:	f94017a1 	ldr	x1, [x29,#40]
ffff00000000ea3c:	94000004 	bl	ffff00000000ea4c <get_string>
ffff00000000ea40:	d503201f 	nop
ffff00000000ea44:	a8c37bfd 	ldp	x29, x30, [sp],#48
ffff00000000ea48:	d65f03c0 	ret

ffff00000000ea4c <get_string>:
ffff00000000ea4c:	d10083ff 	sub	sp, sp, #0x20
ffff00000000ea50:	f90007e0 	str	x0, [sp,#8]
ffff00000000ea54:	f90003e1 	str	x1, [sp]
ffff00000000ea58:	f9000fff 	str	xzr, [sp,#24]
ffff00000000ea5c:	14000138 	b	ffff00000000ef3c <get_string+0x4f0>
ffff00000000ea60:	f94007e1 	ldr	x1, [sp,#8]
ffff00000000ea64:	f9400fe0 	ldr	x0, [sp,#24]
ffff00000000ea68:	8b000020 	add	x0, x1, x0
ffff00000000ea6c:	39400000 	ldrb	w0, [x0]
ffff00000000ea70:	39005fe0 	strb	w0, [sp,#23]
ffff00000000ea74:	39405fe0 	ldrb	w0, [sp,#23]
ffff00000000ea78:	7100b81f 	cmp	w0, #0x2e
ffff00000000ea7c:	540025a1 	b.ne	ffff00000000ef30 <get_string+0x4e4>
ffff00000000ea80:	f9400fe0 	ldr	x0, [sp,#24]
ffff00000000ea84:	91000400 	add	x0, x0, #0x1
ffff00000000ea88:	f94007e1 	ldr	x1, [sp,#8]
ffff00000000ea8c:	8b000020 	add	x0, x1, x0
ffff00000000ea90:	39400000 	ldrb	w0, [x0]
ffff00000000ea94:	7101d01f 	cmp	w0, #0x74
ffff00000000ea98:	54000361 	b.ne	ffff00000000eb04 <get_string+0xb8>
ffff00000000ea9c:	f9400fe0 	ldr	x0, [sp,#24]
ffff00000000eaa0:	91000800 	add	x0, x0, #0x2
ffff00000000eaa4:	f94007e1 	ldr	x1, [sp,#8]
ffff00000000eaa8:	8b000020 	add	x0, x1, x0
ffff00000000eaac:	39400000 	ldrb	w0, [x0]
ffff00000000eab0:	7101941f 	cmp	w0, #0x65
ffff00000000eab4:	54000281 	b.ne	ffff00000000eb04 <get_string+0xb8>
ffff00000000eab8:	f9400fe0 	ldr	x0, [sp,#24]
ffff00000000eabc:	91000c00 	add	x0, x0, #0x3
ffff00000000eac0:	f94007e1 	ldr	x1, [sp,#8]
ffff00000000eac4:	8b000020 	add	x0, x1, x0
ffff00000000eac8:	39400000 	ldrb	w0, [x0]
ffff00000000eacc:	7101e01f 	cmp	w0, #0x78
ffff00000000ead0:	540001a1 	b.ne	ffff00000000eb04 <get_string+0xb8>
ffff00000000ead4:	f9400fe0 	ldr	x0, [sp,#24]
ffff00000000ead8:	91001000 	add	x0, x0, #0x4
ffff00000000eadc:	f94007e1 	ldr	x1, [sp,#8]
ffff00000000eae0:	8b000020 	add	x0, x1, x0
ffff00000000eae4:	39400000 	ldrb	w0, [x0]
ffff00000000eae8:	7101d01f 	cmp	w0, #0x74
ffff00000000eaec:	540000c1 	b.ne	ffff00000000eb04 <get_string+0xb8>
ffff00000000eaf0:	f0000460 	adrp	x0, ffff00000009d000 <ksym+0x320>
ffff00000000eaf4:	911b8000 	add	x0, x0, #0x6e0
ffff00000000eaf8:	f9400fe1 	ldr	x1, [sp,#24]
ffff00000000eafc:	f9000001 	str	x1, [x0]
ffff00000000eb00:	1400010c 	b	ffff00000000ef30 <get_string+0x4e4>
ffff00000000eb04:	f9400fe0 	ldr	x0, [sp,#24]
ffff00000000eb08:	91000400 	add	x0, x0, #0x1
ffff00000000eb0c:	f94007e1 	ldr	x1, [sp,#8]
ffff00000000eb10:	8b000020 	add	x0, x1, x0
ffff00000000eb14:	39400000 	ldrb	w0, [x0]
ffff00000000eb18:	7101c81f 	cmp	w0, #0x72
ffff00000000eb1c:	54000521 	b.ne	ffff00000000ebc0 <get_string+0x174>
ffff00000000eb20:	f9400fe0 	ldr	x0, [sp,#24]
ffff00000000eb24:	91000800 	add	x0, x0, #0x2
ffff00000000eb28:	f94007e1 	ldr	x1, [sp,#8]
ffff00000000eb2c:	8b000020 	add	x0, x1, x0
ffff00000000eb30:	39400000 	ldrb	w0, [x0]
ffff00000000eb34:	7101bc1f 	cmp	w0, #0x6f
ffff00000000eb38:	54000441 	b.ne	ffff00000000ebc0 <get_string+0x174>
ffff00000000eb3c:	f9400fe0 	ldr	x0, [sp,#24]
ffff00000000eb40:	91000c00 	add	x0, x0, #0x3
ffff00000000eb44:	f94007e1 	ldr	x1, [sp,#8]
ffff00000000eb48:	8b000020 	add	x0, x1, x0
ffff00000000eb4c:	39400000 	ldrb	w0, [x0]
ffff00000000eb50:	7101901f 	cmp	w0, #0x64
ffff00000000eb54:	54000361 	b.ne	ffff00000000ebc0 <get_string+0x174>
ffff00000000eb58:	f9400fe0 	ldr	x0, [sp,#24]
ffff00000000eb5c:	91001000 	add	x0, x0, #0x4
ffff00000000eb60:	f94007e1 	ldr	x1, [sp,#8]
ffff00000000eb64:	8b000020 	add	x0, x1, x0
ffff00000000eb68:	39400000 	ldrb	w0, [x0]
ffff00000000eb6c:	7101841f 	cmp	w0, #0x61
ffff00000000eb70:	54000281 	b.ne	ffff00000000ebc0 <get_string+0x174>
ffff00000000eb74:	f9400fe0 	ldr	x0, [sp,#24]
ffff00000000eb78:	91001400 	add	x0, x0, #0x5
ffff00000000eb7c:	f94007e1 	ldr	x1, [sp,#8]
ffff00000000eb80:	8b000020 	add	x0, x1, x0
ffff00000000eb84:	39400000 	ldrb	w0, [x0]
ffff00000000eb88:	7101d01f 	cmp	w0, #0x74
ffff00000000eb8c:	540001a1 	b.ne	ffff00000000ebc0 <get_string+0x174>
ffff00000000eb90:	f9400fe0 	ldr	x0, [sp,#24]
ffff00000000eb94:	91001800 	add	x0, x0, #0x6
ffff00000000eb98:	f94007e1 	ldr	x1, [sp,#8]
ffff00000000eb9c:	8b000020 	add	x0, x1, x0
ffff00000000eba0:	39400000 	ldrb	w0, [x0]
ffff00000000eba4:	7101841f 	cmp	w0, #0x61
ffff00000000eba8:	540000c1 	b.ne	ffff00000000ebc0 <get_string+0x174>
ffff00000000ebac:	f0000460 	adrp	x0, ffff00000009d000 <ksym+0x320>
ffff00000000ebb0:	911b8000 	add	x0, x0, #0x6e0
ffff00000000ebb4:	f9400fe1 	ldr	x1, [sp,#24]
ffff00000000ebb8:	f9000c01 	str	x1, [x0,#24]
ffff00000000ebbc:	140000dd 	b	ffff00000000ef30 <get_string+0x4e4>
ffff00000000ebc0:	f9400fe0 	ldr	x0, [sp,#24]
ffff00000000ebc4:	91000400 	add	x0, x0, #0x1
ffff00000000ebc8:	f94007e1 	ldr	x1, [sp,#8]
ffff00000000ebcc:	8b000020 	add	x0, x1, x0
ffff00000000ebd0:	39400000 	ldrb	w0, [x0]
ffff00000000ebd4:	7101901f 	cmp	w0, #0x64
ffff00000000ebd8:	54000361 	b.ne	ffff00000000ec44 <get_string+0x1f8>
ffff00000000ebdc:	f9400fe0 	ldr	x0, [sp,#24]
ffff00000000ebe0:	91000800 	add	x0, x0, #0x2
ffff00000000ebe4:	f94007e1 	ldr	x1, [sp,#8]
ffff00000000ebe8:	8b000020 	add	x0, x1, x0
ffff00000000ebec:	39400000 	ldrb	w0, [x0]
ffff00000000ebf0:	7101841f 	cmp	w0, #0x61
ffff00000000ebf4:	54000281 	b.ne	ffff00000000ec44 <get_string+0x1f8>
ffff00000000ebf8:	f9400fe0 	ldr	x0, [sp,#24]
ffff00000000ebfc:	91000c00 	add	x0, x0, #0x3
ffff00000000ec00:	f94007e1 	ldr	x1, [sp,#8]
ffff00000000ec04:	8b000020 	add	x0, x1, x0
ffff00000000ec08:	39400000 	ldrb	w0, [x0]
ffff00000000ec0c:	7101d01f 	cmp	w0, #0x74
ffff00000000ec10:	540001a1 	b.ne	ffff00000000ec44 <get_string+0x1f8>
ffff00000000ec14:	f9400fe0 	ldr	x0, [sp,#24]
ffff00000000ec18:	91001000 	add	x0, x0, #0x4
ffff00000000ec1c:	f94007e1 	ldr	x1, [sp,#8]
ffff00000000ec20:	8b000020 	add	x0, x1, x0
ffff00000000ec24:	39400000 	ldrb	w0, [x0]
ffff00000000ec28:	7101841f 	cmp	w0, #0x61
ffff00000000ec2c:	540000c1 	b.ne	ffff00000000ec44 <get_string+0x1f8>
ffff00000000ec30:	f0000460 	adrp	x0, ffff00000009d000 <ksym+0x320>
ffff00000000ec34:	911b8000 	add	x0, x0, #0x6e0
ffff00000000ec38:	f9400fe1 	ldr	x1, [sp,#24]
ffff00000000ec3c:	f9001801 	str	x1, [x0,#48]
ffff00000000ec40:	140000bc 	b	ffff00000000ef30 <get_string+0x4e4>
ffff00000000ec44:	f9400fe0 	ldr	x0, [sp,#24]
ffff00000000ec48:	91000400 	add	x0, x0, #0x1
ffff00000000ec4c:	f94007e1 	ldr	x1, [sp,#8]
ffff00000000ec50:	8b000020 	add	x0, x1, x0
ffff00000000ec54:	39400000 	ldrb	w0, [x0]
ffff00000000ec58:	7101881f 	cmp	w0, #0x62
ffff00000000ec5c:	54000281 	b.ne	ffff00000000ecac <get_string+0x260>
ffff00000000ec60:	f9400fe0 	ldr	x0, [sp,#24]
ffff00000000ec64:	91000800 	add	x0, x0, #0x2
ffff00000000ec68:	f94007e1 	ldr	x1, [sp,#8]
ffff00000000ec6c:	8b000020 	add	x0, x1, x0
ffff00000000ec70:	39400000 	ldrb	w0, [x0]
ffff00000000ec74:	7101cc1f 	cmp	w0, #0x73
ffff00000000ec78:	540001a1 	b.ne	ffff00000000ecac <get_string+0x260>
ffff00000000ec7c:	f9400fe0 	ldr	x0, [sp,#24]
ffff00000000ec80:	91000c00 	add	x0, x0, #0x3
ffff00000000ec84:	f94007e1 	ldr	x1, [sp,#8]
ffff00000000ec88:	8b000020 	add	x0, x1, x0
ffff00000000ec8c:	39400000 	ldrb	w0, [x0]
ffff00000000ec90:	7101cc1f 	cmp	w0, #0x73
ffff00000000ec94:	540000c1 	b.ne	ffff00000000ecac <get_string+0x260>
ffff00000000ec98:	f0000460 	adrp	x0, ffff00000009d000 <ksym+0x320>
ffff00000000ec9c:	911b8000 	add	x0, x0, #0x6e0
ffff00000000eca0:	f9400fe1 	ldr	x1, [sp,#24]
ffff00000000eca4:	f9002401 	str	x1, [x0,#72]
ffff00000000eca8:	140000a2 	b	ffff00000000ef30 <get_string+0x4e4>
ffff00000000ecac:	f9400fe0 	ldr	x0, [sp,#24]
ffff00000000ecb0:	91000400 	add	x0, x0, #0x1
ffff00000000ecb4:	f94007e1 	ldr	x1, [sp,#8]
ffff00000000ecb8:	8b000020 	add	x0, x1, x0
ffff00000000ecbc:	39400000 	ldrb	w0, [x0]
ffff00000000ecc0:	7101c81f 	cmp	w0, #0x72
ffff00000000ecc4:	540007c1 	b.ne	ffff00000000edbc <get_string+0x370>
ffff00000000ecc8:	f9400fe0 	ldr	x0, [sp,#24]
ffff00000000eccc:	91000800 	add	x0, x0, #0x2
ffff00000000ecd0:	f94007e1 	ldr	x1, [sp,#8]
ffff00000000ecd4:	8b000020 	add	x0, x1, x0
ffff00000000ecd8:	39400000 	ldrb	w0, [x0]
ffff00000000ecdc:	7101941f 	cmp	w0, #0x65
ffff00000000ece0:	540006e1 	b.ne	ffff00000000edbc <get_string+0x370>
ffff00000000ece4:	f9400fe0 	ldr	x0, [sp,#24]
ffff00000000ece8:	91000c00 	add	x0, x0, #0x3
ffff00000000ecec:	f94007e1 	ldr	x1, [sp,#8]
ffff00000000ecf0:	8b000020 	add	x0, x1, x0
ffff00000000ecf4:	39400000 	ldrb	w0, [x0]
ffff00000000ecf8:	7101b01f 	cmp	w0, #0x6c
ffff00000000ecfc:	54000601 	b.ne	ffff00000000edbc <get_string+0x370>
ffff00000000ed00:	f9400fe0 	ldr	x0, [sp,#24]
ffff00000000ed04:	91001000 	add	x0, x0, #0x4
ffff00000000ed08:	f94007e1 	ldr	x1, [sp,#8]
ffff00000000ed0c:	8b000020 	add	x0, x1, x0
ffff00000000ed10:	39400000 	ldrb	w0, [x0]
ffff00000000ed14:	7101841f 	cmp	w0, #0x61
ffff00000000ed18:	54000521 	b.ne	ffff00000000edbc <get_string+0x370>
ffff00000000ed1c:	f9400fe0 	ldr	x0, [sp,#24]
ffff00000000ed20:	91001400 	add	x0, x0, #0x5
ffff00000000ed24:	f94007e1 	ldr	x1, [sp,#8]
ffff00000000ed28:	8b000020 	add	x0, x1, x0
ffff00000000ed2c:	39400000 	ldrb	w0, [x0]
ffff00000000ed30:	7100b81f 	cmp	w0, #0x2e
ffff00000000ed34:	54000441 	b.ne	ffff00000000edbc <get_string+0x370>
ffff00000000ed38:	f9400fe0 	ldr	x0, [sp,#24]
ffff00000000ed3c:	91001800 	add	x0, x0, #0x6
ffff00000000ed40:	f94007e1 	ldr	x1, [sp,#8]
ffff00000000ed44:	8b000020 	add	x0, x1, x0
ffff00000000ed48:	39400000 	ldrb	w0, [x0]
ffff00000000ed4c:	7101d01f 	cmp	w0, #0x74
ffff00000000ed50:	54000361 	b.ne	ffff00000000edbc <get_string+0x370>
ffff00000000ed54:	f9400fe0 	ldr	x0, [sp,#24]
ffff00000000ed58:	91001c00 	add	x0, x0, #0x7
ffff00000000ed5c:	f94007e1 	ldr	x1, [sp,#8]
ffff00000000ed60:	8b000020 	add	x0, x1, x0
ffff00000000ed64:	39400000 	ldrb	w0, [x0]
ffff00000000ed68:	7101941f 	cmp	w0, #0x65
ffff00000000ed6c:	54000281 	b.ne	ffff00000000edbc <get_string+0x370>
ffff00000000ed70:	f9400fe0 	ldr	x0, [sp,#24]
ffff00000000ed74:	91002000 	add	x0, x0, #0x8
ffff00000000ed78:	f94007e1 	ldr	x1, [sp,#8]
ffff00000000ed7c:	8b000020 	add	x0, x1, x0
ffff00000000ed80:	39400000 	ldrb	w0, [x0]
ffff00000000ed84:	7101e01f 	cmp	w0, #0x78
ffff00000000ed88:	540001a1 	b.ne	ffff00000000edbc <get_string+0x370>
ffff00000000ed8c:	f9400fe0 	ldr	x0, [sp,#24]
ffff00000000ed90:	91002400 	add	x0, x0, #0x9
ffff00000000ed94:	f94007e1 	ldr	x1, [sp,#8]
ffff00000000ed98:	8b000020 	add	x0, x1, x0
ffff00000000ed9c:	39400000 	ldrb	w0, [x0]
ffff00000000eda0:	7101d01f 	cmp	w0, #0x74
ffff00000000eda4:	540000c1 	b.ne	ffff00000000edbc <get_string+0x370>
ffff00000000eda8:	f0000460 	adrp	x0, ffff00000009d000 <ksym+0x320>
ffff00000000edac:	911b8000 	add	x0, x0, #0x6e0
ffff00000000edb0:	f9400fe1 	ldr	x1, [sp,#24]
ffff00000000edb4:	f9003001 	str	x1, [x0,#96]
ffff00000000edb8:	1400005e 	b	ffff00000000ef30 <get_string+0x4e4>
ffff00000000edbc:	f9400fe0 	ldr	x0, [sp,#24]
ffff00000000edc0:	91000400 	add	x0, x0, #0x1
ffff00000000edc4:	f94007e1 	ldr	x1, [sp,#8]
ffff00000000edc8:	8b000020 	add	x0, x1, x0
ffff00000000edcc:	39400000 	ldrb	w0, [x0]
ffff00000000edd0:	7101cc1f 	cmp	w0, #0x73
ffff00000000edd4:	54000521 	b.ne	ffff00000000ee78 <get_string+0x42c>
ffff00000000edd8:	f9400fe0 	ldr	x0, [sp,#24]
ffff00000000eddc:	91000800 	add	x0, x0, #0x2
ffff00000000ede0:	f94007e1 	ldr	x1, [sp,#8]
ffff00000000ede4:	8b000020 	add	x0, x1, x0
ffff00000000ede8:	39400000 	ldrb	w0, [x0]
ffff00000000edec:	7101e41f 	cmp	w0, #0x79
ffff00000000edf0:	54000441 	b.ne	ffff00000000ee78 <get_string+0x42c>
ffff00000000edf4:	f9400fe0 	ldr	x0, [sp,#24]
ffff00000000edf8:	91000c00 	add	x0, x0, #0x3
ffff00000000edfc:	f94007e1 	ldr	x1, [sp,#8]
ffff00000000ee00:	8b000020 	add	x0, x1, x0
ffff00000000ee04:	39400000 	ldrb	w0, [x0]
ffff00000000ee08:	7101b41f 	cmp	w0, #0x6d
ffff00000000ee0c:	54000361 	b.ne	ffff00000000ee78 <get_string+0x42c>
ffff00000000ee10:	f9400fe0 	ldr	x0, [sp,#24]
ffff00000000ee14:	91001000 	add	x0, x0, #0x4
ffff00000000ee18:	f94007e1 	ldr	x1, [sp,#8]
ffff00000000ee1c:	8b000020 	add	x0, x1, x0
ffff00000000ee20:	39400000 	ldrb	w0, [x0]
ffff00000000ee24:	7101d01f 	cmp	w0, #0x74
ffff00000000ee28:	54000281 	b.ne	ffff00000000ee78 <get_string+0x42c>
ffff00000000ee2c:	f9400fe0 	ldr	x0, [sp,#24]
ffff00000000ee30:	91001400 	add	x0, x0, #0x5
ffff00000000ee34:	f94007e1 	ldr	x1, [sp,#8]
ffff00000000ee38:	8b000020 	add	x0, x1, x0
ffff00000000ee3c:	39400000 	ldrb	w0, [x0]
ffff00000000ee40:	7101841f 	cmp	w0, #0x61
ffff00000000ee44:	540001a1 	b.ne	ffff00000000ee78 <get_string+0x42c>
ffff00000000ee48:	f9400fe0 	ldr	x0, [sp,#24]
ffff00000000ee4c:	91001800 	add	x0, x0, #0x6
ffff00000000ee50:	f94007e1 	ldr	x1, [sp,#8]
ffff00000000ee54:	8b000020 	add	x0, x1, x0
ffff00000000ee58:	39400000 	ldrb	w0, [x0]
ffff00000000ee5c:	7101881f 	cmp	w0, #0x62
ffff00000000ee60:	540000c1 	b.ne	ffff00000000ee78 <get_string+0x42c>
ffff00000000ee64:	f0000460 	adrp	x0, ffff00000009d000 <ksym+0x320>
ffff00000000ee68:	911b8000 	add	x0, x0, #0x6e0
ffff00000000ee6c:	f9400fe1 	ldr	x1, [sp,#24]
ffff00000000ee70:	f9003c01 	str	x1, [x0,#120]
ffff00000000ee74:	1400002f 	b	ffff00000000ef30 <get_string+0x4e4>
ffff00000000ee78:	f9400fe0 	ldr	x0, [sp,#24]
ffff00000000ee7c:	91000400 	add	x0, x0, #0x1
ffff00000000ee80:	f94007e1 	ldr	x1, [sp,#8]
ffff00000000ee84:	8b000020 	add	x0, x1, x0
ffff00000000ee88:	39400000 	ldrb	w0, [x0]
ffff00000000ee8c:	7101cc1f 	cmp	w0, #0x73
ffff00000000ee90:	54000501 	b.ne	ffff00000000ef30 <get_string+0x4e4>
ffff00000000ee94:	f9400fe0 	ldr	x0, [sp,#24]
ffff00000000ee98:	91000800 	add	x0, x0, #0x2
ffff00000000ee9c:	f94007e1 	ldr	x1, [sp,#8]
ffff00000000eea0:	8b000020 	add	x0, x1, x0
ffff00000000eea4:	39400000 	ldrb	w0, [x0]
ffff00000000eea8:	7101d01f 	cmp	w0, #0x74
ffff00000000eeac:	54000421 	b.ne	ffff00000000ef30 <get_string+0x4e4>
ffff00000000eeb0:	f9400fe0 	ldr	x0, [sp,#24]
ffff00000000eeb4:	91000c00 	add	x0, x0, #0x3
ffff00000000eeb8:	f94007e1 	ldr	x1, [sp,#8]
ffff00000000eebc:	8b000020 	add	x0, x1, x0
ffff00000000eec0:	39400000 	ldrb	w0, [x0]
ffff00000000eec4:	7101c81f 	cmp	w0, #0x72
ffff00000000eec8:	54000341 	b.ne	ffff00000000ef30 <get_string+0x4e4>
ffff00000000eecc:	f9400fe0 	ldr	x0, [sp,#24]
ffff00000000eed0:	91001000 	add	x0, x0, #0x4
ffff00000000eed4:	f94007e1 	ldr	x1, [sp,#8]
ffff00000000eed8:	8b000020 	add	x0, x1, x0
ffff00000000eedc:	39400000 	ldrb	w0, [x0]
ffff00000000eee0:	7101d01f 	cmp	w0, #0x74
ffff00000000eee4:	54000261 	b.ne	ffff00000000ef30 <get_string+0x4e4>
ffff00000000eee8:	f9400fe0 	ldr	x0, [sp,#24]
ffff00000000eeec:	91001400 	add	x0, x0, #0x5
ffff00000000eef0:	f94007e1 	ldr	x1, [sp,#8]
ffff00000000eef4:	8b000020 	add	x0, x1, x0
ffff00000000eef8:	39400000 	ldrb	w0, [x0]
ffff00000000eefc:	7101841f 	cmp	w0, #0x61
ffff00000000ef00:	54000181 	b.ne	ffff00000000ef30 <get_string+0x4e4>
ffff00000000ef04:	f9400fe0 	ldr	x0, [sp,#24]
ffff00000000ef08:	91001800 	add	x0, x0, #0x6
ffff00000000ef0c:	f94007e1 	ldr	x1, [sp,#8]
ffff00000000ef10:	8b000020 	add	x0, x1, x0
ffff00000000ef14:	39400000 	ldrb	w0, [x0]
ffff00000000ef18:	7101881f 	cmp	w0, #0x62
ffff00000000ef1c:	540000a1 	b.ne	ffff00000000ef30 <get_string+0x4e4>
ffff00000000ef20:	f0000460 	adrp	x0, ffff00000009d000 <ksym+0x320>
ffff00000000ef24:	911b8000 	add	x0, x0, #0x6e0
ffff00000000ef28:	f9400fe1 	ldr	x1, [sp,#24]
ffff00000000ef2c:	f9004801 	str	x1, [x0,#144]
ffff00000000ef30:	f9400fe0 	ldr	x0, [sp,#24]
ffff00000000ef34:	91000400 	add	x0, x0, #0x1
ffff00000000ef38:	f9000fe0 	str	x0, [sp,#24]
ffff00000000ef3c:	f9400fe1 	ldr	x1, [sp,#24]
ffff00000000ef40:	f94003e0 	ldr	x0, [sp]
ffff00000000ef44:	eb00003f 	cmp	x1, x0
ffff00000000ef48:	54ffd8c3 	b.cc	ffff00000000ea60 <get_string+0x14>
ffff00000000ef4c:	d503201f 	nop
ffff00000000ef50:	910083ff 	add	sp, sp, #0x20
ffff00000000ef54:	d65f03c0 	ret

ffff00000000ef58 <ls_compt>:
ffff00000000ef58:	a9be7bfd 	stp	x29, x30, [sp,#-32]!
ffff00000000ef5c:	910003fd 	mov	x29, sp
ffff00000000ef60:	90000020 	adrp	x0, ffff000000012000 <sys_call_table+0x1c8>
ffff00000000ef64:	911b4000 	add	x0, x0, #0x6d0
ffff00000000ef68:	97ffd9e8 	bl	ffff000000005708 <tfp_printf>
ffff00000000ef6c:	b9001fbf 	str	wzr, [x29,#28]
ffff00000000ef70:	1400000d 	b	ffff00000000efa4 <ls_compt+0x4c>
ffff00000000ef74:	b9801fa1 	ldrsw	x1, [x29,#28]
ffff00000000ef78:	d2800500 	mov	x0, #0x28                  	// #40
ffff00000000ef7c:	9b007c21 	mul	x1, x1, x0
ffff00000000ef80:	d0000460 	adrp	x0, ffff00000009c000 <task+0x18>
ffff00000000ef84:	91338000 	add	x0, x0, #0xce0
ffff00000000ef88:	8b000021 	add	x1, x1, x0
ffff00000000ef8c:	90000020 	adrp	x0, ffff000000012000 <sys_call_table+0x1c8>
ffff00000000ef90:	91266000 	add	x0, x0, #0x998
ffff00000000ef94:	97ffd9dd 	bl	ffff000000005708 <tfp_printf>
ffff00000000ef98:	b9401fa0 	ldr	w0, [x29,#28]
ffff00000000ef9c:	11000400 	add	w0, w0, #0x1
ffff00000000efa0:	b9001fa0 	str	w0, [x29,#28]
ffff00000000efa4:	b9401fa0 	ldr	w0, [x29,#28]
ffff00000000efa8:	7100fc1f 	cmp	w0, #0x3f
ffff00000000efac:	5400014c 	b.gt	ffff00000000efd4 <ls_compt+0x7c>
ffff00000000efb0:	d0000460 	adrp	x0, ffff00000009c000 <task+0x18>
ffff00000000efb4:	91338001 	add	x1, x0, #0xce0
ffff00000000efb8:	b9801fa2 	ldrsw	x2, [x29,#28]
ffff00000000efbc:	d2800500 	mov	x0, #0x28                  	// #40
ffff00000000efc0:	9b007c40 	mul	x0, x2, x0
ffff00000000efc4:	8b000020 	add	x0, x1, x0
ffff00000000efc8:	39400000 	ldrb	w0, [x0]
ffff00000000efcc:	7100001f 	cmp	w0, #0x0
ffff00000000efd0:	54fffd21 	b.ne	ffff00000000ef74 <ls_compt+0x1c>
ffff00000000efd4:	d503201f 	nop
ffff00000000efd8:	a8c27bfd 	ldp	x29, x30, [sp],#32
ffff00000000efdc:	d65f03c0 	ret

ffff00000000efe0 <read_ksymbol>:
ffff00000000efe0:	a9bc7bfd 	stp	x29, x30, [sp,#-64]!
ffff00000000efe4:	910003fd 	mov	x29, sp
ffff00000000efe8:	b9002fbf 	str	wzr, [x29,#44]
ffff00000000efec:	b9003fbf 	str	wzr, [x29,#60]
ffff00000000eff0:	14000075 	b	ffff00000000f1c4 <read_ksymbol+0x1e4>
ffff00000000eff4:	b9803fa1 	ldrsw	x1, [x29,#60]
ffff00000000eff8:	d2800380 	mov	x0, #0x1c                  	// #28
ffff00000000effc:	9b007c21 	mul	x1, x1, x0
ffff00000000f000:	90000460 	adrp	x0, ffff00000009b000 <thread_id_table+0x75d0>
ffff00000000f004:	912ec000 	add	x0, x0, #0xbb0
ffff00000000f008:	8b000022 	add	x2, x1, x0
ffff00000000f00c:	f0000000 	adrp	x0, ffff000000012000 <sys_call_table+0x1c8>
ffff00000000f010:	91268000 	add	x0, x0, #0x9a0
ffff00000000f014:	aa0003e1 	mov	x1, x0
ffff00000000f018:	aa0203e0 	mov	x0, x2
ffff00000000f01c:	97ffda26 	bl	ffff0000000058b4 <strcmp>
ffff00000000f020:	7100001f 	cmp	w0, #0x0
ffff00000000f024:	54000ca1 	b.ne	ffff00000000f1b8 <read_ksymbol+0x1d8>
ffff00000000f028:	90000460 	adrp	x0, ffff00000009b000 <thread_id_table+0x75d0>
ffff00000000f02c:	912ec001 	add	x1, x0, #0xbb0
ffff00000000f030:	b9803fa2 	ldrsw	x2, [x29,#60]
ffff00000000f034:	d2800380 	mov	x0, #0x1c                  	// #28
ffff00000000f038:	9b007c40 	mul	x0, x2, x0
ffff00000000f03c:	8b000020 	add	x0, x1, x0
ffff00000000f040:	91006000 	add	x0, x0, #0x18
ffff00000000f044:	79400000 	ldrh	w0, [x0]
ffff00000000f048:	53103c00 	lsl	w0, w0, #16
ffff00000000f04c:	90000461 	adrp	x1, ffff00000009b000 <thread_id_table+0x75d0>
ffff00000000f050:	912ec022 	add	x2, x1, #0xbb0
ffff00000000f054:	b9803fa3 	ldrsw	x3, [x29,#60]
ffff00000000f058:	d2800381 	mov	x1, #0x1c                  	// #28
ffff00000000f05c:	9b017c61 	mul	x1, x3, x1
ffff00000000f060:	8b010041 	add	x1, x2, x1
ffff00000000f064:	91006821 	add	x1, x1, #0x1a
ffff00000000f068:	79400021 	ldrh	w1, [x1]
ffff00000000f06c:	2a010000 	orr	w0, w0, w1
ffff00000000f070:	b9002fa0 	str	w0, [x29,#44]
ffff00000000f074:	b9402fa0 	ldr	w0, [x29,#44]
ffff00000000f078:	7100001f 	cmp	w0, #0x0
ffff00000000f07c:	54000940 	b.eq	ffff00000000f1a4 <read_ksymbol+0x1c4>
ffff00000000f080:	b9402fa1 	ldr	w1, [x29,#44]
ffff00000000f084:	90000460 	adrp	x0, ffff00000009b000 <thread_id_table+0x75d0>
ffff00000000f088:	91298000 	add	x0, x0, #0xa60
ffff00000000f08c:	aa0003e2 	mov	x2, x0
ffff00000000f090:	d2800000 	mov	x0, #0x0                   	// #0
ffff00000000f094:	97ffcc3a 	bl	ffff00000000217c <fat32_readfile>
ffff00000000f098:	f90013a0 	str	x0, [x29,#32]
ffff00000000f09c:	b9003bbf 	str	wzr, [x29,#56]
ffff00000000f0a0:	b90037bf 	str	wzr, [x29,#52]
ffff00000000f0a4:	b90033bf 	str	wzr, [x29,#48]
ffff00000000f0a8:	f94013a0 	ldr	x0, [x29,#32]
ffff00000000f0ac:	2a0003e1 	mov	w1, w0
ffff00000000f0b0:	f0000480 	adrp	x0, ffff0000000a2000 <_end>
ffff00000000f0b4:	91000000 	add	x0, x0, #0x0
ffff00000000f0b8:	4b000020 	sub	w0, w1, w0
ffff00000000f0bc:	2a0003e1 	mov	w1, w0
ffff00000000f0c0:	f0000480 	adrp	x0, ffff0000000a2000 <_end>
ffff00000000f0c4:	91000000 	add	x0, x0, #0x0
ffff00000000f0c8:	8b000020 	add	x0, x1, x0
ffff00000000f0cc:	f9000fa0 	str	x0, [x29,#24]
ffff00000000f0d0:	1400002d 	b	ffff00000000f184 <read_ksymbol+0x1a4>
ffff00000000f0d4:	b94033a0 	ldr	w0, [x29,#48]
ffff00000000f0d8:	f9400fa1 	ldr	x1, [x29,#24]
ffff00000000f0dc:	8b000020 	add	x0, x1, x0
ffff00000000f0e0:	39400000 	ldrb	w0, [x0]
ffff00000000f0e4:	7100281f 	cmp	w0, #0xa
ffff00000000f0e8:	54000260 	b.eq	ffff00000000f134 <read_ksymbol+0x154>
ffff00000000f0ec:	b94037a0 	ldr	w0, [x29,#52]
ffff00000000f0f0:	11000401 	add	w1, w0, #0x1
ffff00000000f0f4:	b90037a1 	str	w1, [x29,#52]
ffff00000000f0f8:	b94033a1 	ldr	w1, [x29,#48]
ffff00000000f0fc:	f9400fa2 	ldr	x2, [x29,#24]
ffff00000000f100:	8b010041 	add	x1, x2, x1
ffff00000000f104:	39400024 	ldrb	w4, [x1]
ffff00000000f108:	b0000461 	adrp	x1, ffff00000009c000 <task+0x18>
ffff00000000f10c:	91338022 	add	x2, x1, #0xce0
ffff00000000f110:	2a0003e0 	mov	w0, w0
ffff00000000f114:	b9403ba3 	ldr	w3, [x29,#56]
ffff00000000f118:	d2800501 	mov	x1, #0x28                  	// #40
ffff00000000f11c:	9b017c61 	mul	x1, x3, x1
ffff00000000f120:	8b010041 	add	x1, x2, x1
ffff00000000f124:	8b000020 	add	x0, x1, x0
ffff00000000f128:	2a0403e1 	mov	w1, w4
ffff00000000f12c:	39000001 	strb	w1, [x0]
ffff00000000f130:	14000012 	b	ffff00000000f178 <read_ksymbol+0x198>
ffff00000000f134:	d0000000 	adrp	x0, ffff000000011000 <irq_invalid_el1t+0x14>
ffff00000000f138:	9138e000 	add	x0, x0, #0xe38
ffff00000000f13c:	b9403ba1 	ldr	w1, [x29,#56]
ffff00000000f140:	f8617800 	ldr	x0, [x0,x1,lsl #3]
ffff00000000f144:	aa0003e3 	mov	x3, x0
ffff00000000f148:	b0000460 	adrp	x0, ffff00000009c000 <task+0x18>
ffff00000000f14c:	91338001 	add	x1, x0, #0xce0
ffff00000000f150:	b9403ba2 	ldr	w2, [x29,#56]
ffff00000000f154:	d2800500 	mov	x0, #0x28                  	// #40
ffff00000000f158:	9b007c40 	mul	x0, x2, x0
ffff00000000f15c:	8b000020 	add	x0, x1, x0
ffff00000000f160:	91008000 	add	x0, x0, #0x20
ffff00000000f164:	f9000003 	str	x3, [x0]
ffff00000000f168:	b9403ba0 	ldr	w0, [x29,#56]
ffff00000000f16c:	11000400 	add	w0, w0, #0x1
ffff00000000f170:	b9003ba0 	str	w0, [x29,#56]
ffff00000000f174:	b90037bf 	str	wzr, [x29,#52]
ffff00000000f178:	b94033a0 	ldr	w0, [x29,#48]
ffff00000000f17c:	11000400 	add	w0, w0, #0x1
ffff00000000f180:	b90033a0 	str	w0, [x29,#48]
ffff00000000f184:	b94033a0 	ldr	w0, [x29,#48]
ffff00000000f188:	f9400fa1 	ldr	x1, [x29,#24]
ffff00000000f18c:	8b000020 	add	x0, x1, x0
ffff00000000f190:	39400000 	ldrb	w0, [x0]
ffff00000000f194:	7100001f 	cmp	w0, #0x0
ffff00000000f198:	54fff9e1 	b.ne	ffff00000000f0d4 <read_ksymbol+0xf4>
ffff00000000f19c:	52800000 	mov	w0, #0x0                   	// #0
ffff00000000f1a0:	14000016 	b	ffff00000000f1f8 <read_ksymbol+0x218>
ffff00000000f1a4:	f0000000 	adrp	x0, ffff000000012000 <sys_call_table+0x1c8>
ffff00000000f1a8:	9126c000 	add	x0, x0, #0x9b0
ffff00000000f1ac:	97ffd957 	bl	ffff000000005708 <tfp_printf>
ffff00000000f1b0:	52800020 	mov	w0, #0x1                   	// #1
ffff00000000f1b4:	14000011 	b	ffff00000000f1f8 <read_ksymbol+0x218>
ffff00000000f1b8:	b9403fa0 	ldr	w0, [x29,#60]
ffff00000000f1bc:	11000400 	add	w0, w0, #0x1
ffff00000000f1c0:	b9003fa0 	str	w0, [x29,#60]
ffff00000000f1c4:	90000460 	adrp	x0, ffff00000009b000 <thread_id_table+0x75d0>
ffff00000000f1c8:	912ec001 	add	x1, x0, #0xbb0
ffff00000000f1cc:	b9803fa2 	ldrsw	x2, [x29,#60]
ffff00000000f1d0:	d2800380 	mov	x0, #0x1c                  	// #28
ffff00000000f1d4:	9b007c40 	mul	x0, x2, x0
ffff00000000f1d8:	8b000020 	add	x0, x1, x0
ffff00000000f1dc:	39400000 	ldrb	w0, [x0]
ffff00000000f1e0:	7100001f 	cmp	w0, #0x0
ffff00000000f1e4:	54fff081 	b.ne	ffff00000000eff4 <read_ksymbol+0x14>
ffff00000000f1e8:	f0000000 	adrp	x0, ffff000000012000 <sys_call_table+0x1c8>
ffff00000000f1ec:	91274000 	add	x0, x0, #0x9d0
ffff00000000f1f0:	97ffd946 	bl	ffff000000005708 <tfp_printf>
ffff00000000f1f4:	14000001 	b	ffff00000000f1f8 <read_ksymbol+0x218>
ffff00000000f1f8:	a8c47bfd 	ldp	x29, x30, [sp],#64
ffff00000000f1fc:	d65f03c0 	ret

ffff00000000f200 <data_dump>:
ffff00000000f200:	a9bb7bfd 	stp	x29, x30, [sp,#-80]!
ffff00000000f204:	910003fd 	mov	x29, sp
ffff00000000f208:	f9000fa0 	str	x0, [x29,#24]
ffff00000000f20c:	b90017a1 	str	w1, [x29,#20]
ffff00000000f210:	f9400fa0 	ldr	x0, [x29,#24]
ffff00000000f214:	f90027a0 	str	x0, [x29,#72]
ffff00000000f218:	14000067 	b	ffff00000000f3b4 <data_dump+0x1b4>
ffff00000000f21c:	f94027a0 	ldr	x0, [x29,#72]
ffff00000000f220:	97fff062 	bl	ffff00000000b3a8 <uart_hex>
ffff00000000f224:	f0000000 	adrp	x0, ffff000000012000 <sys_call_table+0x1c8>
ffff00000000f228:	9127c000 	add	x0, x0, #0x9f0
ffff00000000f22c:	97fff07f 	bl	ffff00000000b428 <uart_puts>
ffff00000000f230:	f90023bf 	str	xzr, [x29,#64]
ffff00000000f234:	14000036 	b	ffff00000000f30c <data_dump+0x10c>
ffff00000000f238:	f94027a1 	ldr	x1, [x29,#72]
ffff00000000f23c:	f94023a0 	ldr	x0, [x29,#64]
ffff00000000f240:	8b000020 	add	x0, x1, x0
ffff00000000f244:	39400000 	ldrb	w0, [x0]
ffff00000000f248:	3900dfa0 	strb	w0, [x29,#55]
ffff00000000f24c:	3940dfa0 	ldrb	w0, [x29,#55]
ffff00000000f250:	f90017a0 	str	x0, [x29,#40]
ffff00000000f254:	f94017a0 	ldr	x0, [x29,#40]
ffff00000000f258:	d344fc00 	lsr	x0, x0, #4
ffff00000000f25c:	f90017a0 	str	x0, [x29,#40]
ffff00000000f260:	f94017a0 	ldr	x0, [x29,#40]
ffff00000000f264:	92400c00 	and	x0, x0, #0xf
ffff00000000f268:	f90017a0 	str	x0, [x29,#40]
ffff00000000f26c:	f94017a0 	ldr	x0, [x29,#40]
ffff00000000f270:	f100241f 	cmp	x0, #0x9
ffff00000000f274:	54000069 	b.ls	ffff00000000f280 <data_dump+0x80>
ffff00000000f278:	d28006e0 	mov	x0, #0x37                  	// #55
ffff00000000f27c:	14000002 	b	ffff00000000f284 <data_dump+0x84>
ffff00000000f280:	d2800600 	mov	x0, #0x30                  	// #48
ffff00000000f284:	f94017a1 	ldr	x1, [x29,#40]
ffff00000000f288:	8b000020 	add	x0, x1, x0
ffff00000000f28c:	f90017a0 	str	x0, [x29,#40]
ffff00000000f290:	f94017a0 	ldr	x0, [x29,#40]
ffff00000000f294:	53001c00 	uxtb	w0, w0
ffff00000000f298:	97ffefb6 	bl	ffff00000000b170 <uart_send>
ffff00000000f29c:	3940dfa0 	ldrb	w0, [x29,#55]
ffff00000000f2a0:	f90017a0 	str	x0, [x29,#40]
ffff00000000f2a4:	f94017a0 	ldr	x0, [x29,#40]
ffff00000000f2a8:	92400c00 	and	x0, x0, #0xf
ffff00000000f2ac:	f90017a0 	str	x0, [x29,#40]
ffff00000000f2b0:	f94017a0 	ldr	x0, [x29,#40]
ffff00000000f2b4:	f100241f 	cmp	x0, #0x9
ffff00000000f2b8:	54000069 	b.ls	ffff00000000f2c4 <data_dump+0xc4>
ffff00000000f2bc:	d28006e0 	mov	x0, #0x37                  	// #55
ffff00000000f2c0:	14000002 	b	ffff00000000f2c8 <data_dump+0xc8>
ffff00000000f2c4:	d2800600 	mov	x0, #0x30                  	// #48
ffff00000000f2c8:	f94017a1 	ldr	x1, [x29,#40]
ffff00000000f2cc:	8b000020 	add	x0, x1, x0
ffff00000000f2d0:	f90017a0 	str	x0, [x29,#40]
ffff00000000f2d4:	f94017a0 	ldr	x0, [x29,#40]
ffff00000000f2d8:	53001c00 	uxtb	w0, w0
ffff00000000f2dc:	97ffefa5 	bl	ffff00000000b170 <uart_send>
ffff00000000f2e0:	52800400 	mov	w0, #0x20                  	// #32
ffff00000000f2e4:	97ffefa3 	bl	ffff00000000b170 <uart_send>
ffff00000000f2e8:	f94023a0 	ldr	x0, [x29,#64]
ffff00000000f2ec:	92400400 	and	x0, x0, #0x3
ffff00000000f2f0:	f1000c1f 	cmp	x0, #0x3
ffff00000000f2f4:	54000061 	b.ne	ffff00000000f300 <data_dump+0x100>
ffff00000000f2f8:	52800400 	mov	w0, #0x20                  	// #32
ffff00000000f2fc:	97ffef9d 	bl	ffff00000000b170 <uart_send>
ffff00000000f300:	f94023a0 	ldr	x0, [x29,#64]
ffff00000000f304:	91000400 	add	x0, x0, #0x1
ffff00000000f308:	f90023a0 	str	x0, [x29,#64]
ffff00000000f30c:	f94023a0 	ldr	x0, [x29,#64]
ffff00000000f310:	f1003c1f 	cmp	x0, #0xf
ffff00000000f314:	54fff929 	b.ls	ffff00000000f238 <data_dump+0x38>
ffff00000000f318:	f90023bf 	str	xzr, [x29,#64]
ffff00000000f31c:	14000013 	b	ffff00000000f368 <data_dump+0x168>
ffff00000000f320:	f94027a1 	ldr	x1, [x29,#72]
ffff00000000f324:	f94023a0 	ldr	x0, [x29,#64]
ffff00000000f328:	8b000020 	add	x0, x1, x0
ffff00000000f32c:	39400000 	ldrb	w0, [x0]
ffff00000000f330:	3900dfa0 	strb	w0, [x29,#55]
ffff00000000f334:	3940dfa0 	ldrb	w0, [x29,#55]
ffff00000000f338:	71007c1f 	cmp	w0, #0x1f
ffff00000000f33c:	540000c9 	b.ls	ffff00000000f354 <data_dump+0x154>
ffff00000000f340:	3940dfa0 	ldrb	w0, [x29,#55]
ffff00000000f344:	7101f81f 	cmp	w0, #0x7e
ffff00000000f348:	54000068 	b.hi	ffff00000000f354 <data_dump+0x154>
ffff00000000f34c:	3940dfa0 	ldrb	w0, [x29,#55]
ffff00000000f350:	14000002 	b	ffff00000000f358 <data_dump+0x158>
ffff00000000f354:	528005c0 	mov	w0, #0x2e                  	// #46
ffff00000000f358:	97ffef86 	bl	ffff00000000b170 <uart_send>
ffff00000000f35c:	f94023a0 	ldr	x0, [x29,#64]
ffff00000000f360:	91000400 	add	x0, x0, #0x1
ffff00000000f364:	f90023a0 	str	x0, [x29,#64]
ffff00000000f368:	f94023a0 	ldr	x0, [x29,#64]
ffff00000000f36c:	f1003c1f 	cmp	x0, #0xf
ffff00000000f370:	54fffd89 	b.ls	ffff00000000f320 <data_dump+0x120>
ffff00000000f374:	528001a0 	mov	w0, #0xd                   	// #13
ffff00000000f378:	97ffef7e 	bl	ffff00000000b170 <uart_send>
ffff00000000f37c:	52800140 	mov	w0, #0xa                   	// #10
ffff00000000f380:	97ffef7c 	bl	ffff00000000b170 <uart_send>
ffff00000000f384:	f9401fa0 	ldr	x0, [x29,#56]
ffff00000000f388:	f108001f 	cmp	x0, #0x200
ffff00000000f38c:	540000e1 	b.ne	ffff00000000f3a8 <data_dump+0x1a8>
ffff00000000f390:	f9001fbf 	str	xzr, [x29,#56]
ffff00000000f394:	d503201f 	nop
ffff00000000f398:	97ffef8b 	bl	ffff00000000b1c4 <uart_recv>
ffff00000000f39c:	53001c00 	uxtb	w0, w0
ffff00000000f3a0:	7100001f 	cmp	w0, #0x0
ffff00000000f3a4:	54ffffa0 	b.eq	ffff00000000f398 <data_dump+0x198>
ffff00000000f3a8:	f94027a0 	ldr	x0, [x29,#72]
ffff00000000f3ac:	91004000 	add	x0, x0, #0x10
ffff00000000f3b0:	f90027a0 	str	x0, [x29,#72]
ffff00000000f3b4:	b98017a1 	ldrsw	x1, [x29,#20]
ffff00000000f3b8:	f9400fa0 	ldr	x0, [x29,#24]
ffff00000000f3bc:	8b000021 	add	x1, x1, x0
ffff00000000f3c0:	f94027a0 	ldr	x0, [x29,#72]
ffff00000000f3c4:	eb00003f 	cmp	x1, x0
ffff00000000f3c8:	54fff2a8 	b.hi	ffff00000000f21c <data_dump+0x1c>
ffff00000000f3cc:	d503201f 	nop
ffff00000000f3d0:	a8c57bfd 	ldp	x29, x30, [sp],#80
ffff00000000f3d4:	d65f03c0 	ret

ffff00000000f3d8 <dump>:
ffff00000000f3d8:	a9bc7bfd 	stp	x29, x30, [sp,#-64]!
ffff00000000f3dc:	910003fd 	mov	x29, sp
ffff00000000f3e0:	f9000fa0 	str	x0, [x29,#24]
ffff00000000f3e4:	f9001bbf 	str	xzr, [x29,#48]
ffff00000000f3e8:	b9003fbf 	str	wzr, [x29,#60]
ffff00000000f3ec:	14000078 	b	ffff00000000f5cc <dump+0x1f4>
ffff00000000f3f0:	b9803fa1 	ldrsw	x1, [x29,#60]
ffff00000000f3f4:	d2800380 	mov	x0, #0x1c                  	// #28
ffff00000000f3f8:	9b007c21 	mul	x1, x1, x0
ffff00000000f3fc:	90000460 	adrp	x0, ffff00000009b000 <thread_id_table+0x75d0>
ffff00000000f400:	912ec000 	add	x0, x0, #0xbb0
ffff00000000f404:	8b000020 	add	x0, x1, x0
ffff00000000f408:	aa0003e3 	mov	x3, x0
ffff00000000f40c:	f9400fa0 	ldr	x0, [x29,#24]
ffff00000000f410:	d2800102 	mov	x2, #0x8                   	// #8
ffff00000000f414:	aa0003e1 	mov	x1, x0
ffff00000000f418:	aa0303e0 	mov	x0, x3
ffff00000000f41c:	940004d5 	bl	ffff000000010770 <memcmp>
ffff00000000f420:	7100001f 	cmp	w0, #0x0
ffff00000000f424:	54000ce1 	b.ne	ffff00000000f5c0 <dump+0x1e8>
ffff00000000f428:	90000460 	adrp	x0, ffff00000009b000 <thread_id_table+0x75d0>
ffff00000000f42c:	912ec001 	add	x1, x0, #0xbb0
ffff00000000f430:	b9803fa2 	ldrsw	x2, [x29,#60]
ffff00000000f434:	d2800380 	mov	x0, #0x1c                  	// #28
ffff00000000f438:	9b007c40 	mul	x0, x2, x0
ffff00000000f43c:	8b000020 	add	x0, x1, x0
ffff00000000f440:	91006000 	add	x0, x0, #0x18
ffff00000000f444:	79400000 	ldrh	w0, [x0]
ffff00000000f448:	53103c00 	lsl	w0, w0, #16
ffff00000000f44c:	90000461 	adrp	x1, ffff00000009b000 <thread_id_table+0x75d0>
ffff00000000f450:	912ec022 	add	x2, x1, #0xbb0
ffff00000000f454:	b9803fa3 	ldrsw	x3, [x29,#60]
ffff00000000f458:	d2800381 	mov	x1, #0x1c                  	// #28
ffff00000000f45c:	9b017c61 	mul	x1, x3, x1
ffff00000000f460:	8b010041 	add	x1, x2, x1
ffff00000000f464:	91006821 	add	x1, x1, #0x1a
ffff00000000f468:	79400021 	ldrh	w1, [x1]
ffff00000000f46c:	2a010000 	orr	w0, w0, w1
ffff00000000f470:	b9002fa0 	str	w0, [x29,#44]
ffff00000000f474:	b9402fa0 	ldr	w0, [x29,#44]
ffff00000000f478:	7100001f 	cmp	w0, #0x0
ffff00000000f47c:	54000980 	b.eq	ffff00000000f5ac <dump+0x1d4>
ffff00000000f480:	f0000000 	adrp	x0, ffff000000012000 <sys_call_table+0x1c8>
ffff00000000f484:	9127e000 	add	x0, x0, #0x9f8
ffff00000000f488:	97ffd8a0 	bl	ffff000000005708 <tfp_printf>
ffff00000000f48c:	90000020 	adrp	x0, ffff000000013000 <sdCommandTable+0x110>
ffff00000000f490:	910b0000 	add	x0, x0, #0x2c0
ffff00000000f494:	b9400002 	ldr	w2, [x0]
ffff00000000f498:	90000460 	adrp	x0, ffff00000009b000 <thread_id_table+0x75d0>
ffff00000000f49c:	91298001 	add	x1, x0, #0xa60
ffff00000000f4a0:	93407c42 	sxtw	x2, w2
ffff00000000f4a4:	d2800a80 	mov	x0, #0x54                  	// #84
ffff00000000f4a8:	9b007c40 	mul	x0, x2, x0
ffff00000000f4ac:	8b000020 	add	x0, x1, x0
ffff00000000f4b0:	91002000 	add	x0, x0, #0x8
ffff00000000f4b4:	b9400000 	ldr	w0, [x0]
ffff00000000f4b8:	97ffccd7 	bl	ffff000000002814 <fs_type_support>
ffff00000000f4bc:	f90013a0 	str	x0, [x29,#32]
ffff00000000f4c0:	f94013a0 	ldr	x0, [x29,#32]
ffff00000000f4c4:	f100001f 	cmp	x0, #0x0
ffff00000000f4c8:	54000520 	b.eq	ffff00000000f56c <dump+0x194>
ffff00000000f4cc:	f94013a0 	ldr	x0, [x29,#32]
ffff00000000f4d0:	b9400c00 	ldr	w0, [x0,#12]
ffff00000000f4d4:	b0ffff81 	adrp	x1, ffff000000000000 <_start>
ffff00000000f4d8:	91000021 	add	x1, x1, #0x0
ffff00000000f4dc:	4b010000 	sub	w0, w0, w1
ffff00000000f4e0:	2a0003e1 	mov	w1, w0
ffff00000000f4e4:	b0ffff80 	adrp	x0, ffff000000000000 <_start>
ffff00000000f4e8:	91000000 	add	x0, x0, #0x0
ffff00000000f4ec:	8b000023 	add	x3, x1, x0
ffff00000000f4f0:	90000020 	adrp	x0, ffff000000013000 <sdCommandTable+0x110>
ffff00000000f4f4:	910b0000 	add	x0, x0, #0x2c0
ffff00000000f4f8:	b9400000 	ldr	w0, [x0]
ffff00000000f4fc:	93407c01 	sxtw	x1, w0
ffff00000000f500:	d2800a80 	mov	x0, #0x54                  	// #84
ffff00000000f504:	9b007c21 	mul	x1, x1, x0
ffff00000000f508:	90000460 	adrp	x0, ffff00000009b000 <thread_id_table+0x75d0>
ffff00000000f50c:	91298000 	add	x0, x0, #0xa60
ffff00000000f510:	8b000020 	add	x0, x1, x0
ffff00000000f514:	aa0003e2 	mov	x2, x0
ffff00000000f518:	b9402fa1 	ldr	w1, [x29,#44]
ffff00000000f51c:	aa0303e0 	mov	x0, x3
ffff00000000f520:	9400092f 	bl	ffff0000000119dc <bl_init>
ffff00000000f524:	93407c00 	sxtw	x0, w0
ffff00000000f528:	f9001ba0 	str	x0, [x29,#48]
ffff00000000f52c:	f9401ba1 	ldr	x1, [x29,#48]
ffff00000000f530:	b0ffff80 	adrp	x0, ffff000000000000 <_start>
ffff00000000f534:	91000000 	add	x0, x0, #0x0
ffff00000000f538:	8b000023 	add	x3, x1, x0
ffff00000000f53c:	90000460 	adrp	x0, ffff00000009b000 <thread_id_table+0x75d0>
ffff00000000f540:	912ec001 	add	x1, x0, #0xbb0
ffff00000000f544:	b9803fa2 	ldrsw	x2, [x29,#60]
ffff00000000f548:	d2800380 	mov	x0, #0x1c                  	// #28
ffff00000000f54c:	9b007c40 	mul	x0, x2, x0
ffff00000000f550:	8b000020 	add	x0, x1, x0
ffff00000000f554:	91005000 	add	x0, x0, #0x14
ffff00000000f558:	b9400000 	ldr	w0, [x0]
ffff00000000f55c:	2a0003e1 	mov	w1, w0
ffff00000000f560:	aa0303e0 	mov	x0, x3
ffff00000000f564:	97ffff27 	bl	ffff00000000f200 <data_dump>
ffff00000000f568:	14000014 	b	ffff00000000f5b8 <dump+0x1e0>
ffff00000000f56c:	90000020 	adrp	x0, ffff000000013000 <sdCommandTable+0x110>
ffff00000000f570:	910b0000 	add	x0, x0, #0x2c0
ffff00000000f574:	b9400002 	ldr	w2, [x0]
ffff00000000f578:	90000460 	adrp	x0, ffff00000009b000 <thread_id_table+0x75d0>
ffff00000000f57c:	91298001 	add	x1, x0, #0xa60
ffff00000000f580:	93407c42 	sxtw	x2, w2
ffff00000000f584:	d2800a80 	mov	x0, #0x54                  	// #84
ffff00000000f588:	9b007c40 	mul	x0, x2, x0
ffff00000000f58c:	8b000020 	add	x0, x1, x0
ffff00000000f590:	91002000 	add	x0, x0, #0x8
ffff00000000f594:	b9400001 	ldr	w1, [x0]
ffff00000000f598:	f0000000 	adrp	x0, ffff000000012000 <sys_call_table+0x1c8>
ffff00000000f59c:	91280000 	add	x0, x0, #0xa00
ffff00000000f5a0:	97ffd85a 	bl	ffff000000005708 <tfp_printf>
ffff00000000f5a4:	52800000 	mov	w0, #0x0                   	// #0
ffff00000000f5a8:	14000016 	b	ffff00000000f600 <dump+0x228>
ffff00000000f5ac:	f0000000 	adrp	x0, ffff000000012000 <sys_call_table+0x1c8>
ffff00000000f5b0:	9128a000 	add	x0, x0, #0xa28
ffff00000000f5b4:	97ffd855 	bl	ffff000000005708 <tfp_printf>
ffff00000000f5b8:	52800000 	mov	w0, #0x0                   	// #0
ffff00000000f5bc:	14000011 	b	ffff00000000f600 <dump+0x228>
ffff00000000f5c0:	b9403fa0 	ldr	w0, [x29,#60]
ffff00000000f5c4:	11000400 	add	w0, w0, #0x1
ffff00000000f5c8:	b9003fa0 	str	w0, [x29,#60]
ffff00000000f5cc:	90000460 	adrp	x0, ffff00000009b000 <thread_id_table+0x75d0>
ffff00000000f5d0:	912ec001 	add	x1, x0, #0xbb0
ffff00000000f5d4:	b9803fa2 	ldrsw	x2, [x29,#60]
ffff00000000f5d8:	d2800380 	mov	x0, #0x1c                  	// #28
ffff00000000f5dc:	9b007c40 	mul	x0, x2, x0
ffff00000000f5e0:	8b000020 	add	x0, x1, x0
ffff00000000f5e4:	39400000 	ldrb	w0, [x0]
ffff00000000f5e8:	7100001f 	cmp	w0, #0x0
ffff00000000f5ec:	54fff021 	b.ne	ffff00000000f3f0 <dump+0x18>
ffff00000000f5f0:	f0000000 	adrp	x0, ffff000000012000 <sys_call_table+0x1c8>
ffff00000000f5f4:	9128a000 	add	x0, x0, #0xa28
ffff00000000f5f8:	97ffd844 	bl	ffff000000005708 <tfp_printf>
ffff00000000f5fc:	14000001 	b	ffff00000000f600 <dump+0x228>
ffff00000000f600:	a8c47bfd 	ldp	x29, x30, [sp],#64
ffff00000000f604:	d65f03c0 	ret

ffff00000000f608 <list>:
ffff00000000f608:	a9be7bfd 	stp	x29, x30, [sp,#-32]!
ffff00000000f60c:	910003fd 	mov	x29, sp
ffff00000000f610:	f0000000 	adrp	x0, ffff000000012000 <sys_call_table+0x1c8>
ffff00000000f614:	9128e000 	add	x0, x0, #0xa38
ffff00000000f618:	97ffef84 	bl	ffff00000000b428 <uart_puts>
ffff00000000f61c:	90000020 	adrp	x0, ffff000000013000 <sdCommandTable+0x110>
ffff00000000f620:	910b0000 	add	x0, x0, #0x2c0
ffff00000000f624:	b9400000 	ldr	w0, [x0]
ffff00000000f628:	3100041f 	cmn	w0, #0x1
ffff00000000f62c:	540013a1 	b.ne	ffff00000000f8a0 <list+0x298>
ffff00000000f630:	b9001fbf 	str	wzr, [x29,#28]
ffff00000000f634:	14000097 	b	ffff00000000f890 <list+0x288>
ffff00000000f638:	90000460 	adrp	x0, ffff00000009b000 <thread_id_table+0x75d0>
ffff00000000f63c:	912ec001 	add	x1, x0, #0xbb0
ffff00000000f640:	b9801fa2 	ldrsw	x2, [x29,#28]
ffff00000000f644:	d2800380 	mov	x0, #0x1c                  	// #28
ffff00000000f648:	9b007c40 	mul	x0, x2, x0
ffff00000000f64c:	8b000020 	add	x0, x1, x0
ffff00000000f650:	39400000 	ldrb	w0, [x0]
ffff00000000f654:	7100001f 	cmp	w0, #0x0
ffff00000000f658:	54001160 	b.eq	ffff00000000f884 <list+0x27c>
ffff00000000f65c:	90000460 	adrp	x0, ffff00000009b000 <thread_id_table+0x75d0>
ffff00000000f660:	912ec001 	add	x1, x0, #0xbb0
ffff00000000f664:	b9801fa2 	ldrsw	x2, [x29,#28]
ffff00000000f668:	d2800380 	mov	x0, #0x1c                  	// #28
ffff00000000f66c:	9b007c40 	mul	x0, x2, x0
ffff00000000f670:	8b000020 	add	x0, x1, x0
ffff00000000f674:	91002c00 	add	x0, x0, #0xb
ffff00000000f678:	39400000 	ldrb	w0, [x0]
ffff00000000f67c:	12000000 	and	w0, w0, #0x1
ffff00000000f680:	7100001f 	cmp	w0, #0x0
ffff00000000f684:	54000060 	b.eq	ffff00000000f690 <list+0x88>
ffff00000000f688:	52800a40 	mov	w0, #0x52                  	// #82
ffff00000000f68c:	14000002 	b	ffff00000000f694 <list+0x8c>
ffff00000000f690:	528005c0 	mov	w0, #0x2e                  	// #46
ffff00000000f694:	97ffeeb7 	bl	ffff00000000b170 <uart_send>
ffff00000000f698:	90000460 	adrp	x0, ffff00000009b000 <thread_id_table+0x75d0>
ffff00000000f69c:	912ec001 	add	x1, x0, #0xbb0
ffff00000000f6a0:	b9801fa2 	ldrsw	x2, [x29,#28]
ffff00000000f6a4:	d2800380 	mov	x0, #0x1c                  	// #28
ffff00000000f6a8:	9b007c40 	mul	x0, x2, x0
ffff00000000f6ac:	8b000020 	add	x0, x1, x0
ffff00000000f6b0:	91002c00 	add	x0, x0, #0xb
ffff00000000f6b4:	39400000 	ldrb	w0, [x0]
ffff00000000f6b8:	121f0000 	and	w0, w0, #0x2
ffff00000000f6bc:	7100001f 	cmp	w0, #0x0
ffff00000000f6c0:	54000060 	b.eq	ffff00000000f6cc <list+0xc4>
ffff00000000f6c4:	52800900 	mov	w0, #0x48                  	// #72
ffff00000000f6c8:	14000002 	b	ffff00000000f6d0 <list+0xc8>
ffff00000000f6cc:	528005c0 	mov	w0, #0x2e                  	// #46
ffff00000000f6d0:	97ffeea8 	bl	ffff00000000b170 <uart_send>
ffff00000000f6d4:	90000460 	adrp	x0, ffff00000009b000 <thread_id_table+0x75d0>
ffff00000000f6d8:	912ec001 	add	x1, x0, #0xbb0
ffff00000000f6dc:	b9801fa2 	ldrsw	x2, [x29,#28]
ffff00000000f6e0:	d2800380 	mov	x0, #0x1c                  	// #28
ffff00000000f6e4:	9b007c40 	mul	x0, x2, x0
ffff00000000f6e8:	8b000020 	add	x0, x1, x0
ffff00000000f6ec:	91002c00 	add	x0, x0, #0xb
ffff00000000f6f0:	39400000 	ldrb	w0, [x0]
ffff00000000f6f4:	121e0000 	and	w0, w0, #0x4
ffff00000000f6f8:	7100001f 	cmp	w0, #0x0
ffff00000000f6fc:	54000060 	b.eq	ffff00000000f708 <list+0x100>
ffff00000000f700:	52800a60 	mov	w0, #0x53                  	// #83
ffff00000000f704:	14000002 	b	ffff00000000f70c <list+0x104>
ffff00000000f708:	528005c0 	mov	w0, #0x2e                  	// #46
ffff00000000f70c:	97ffee99 	bl	ffff00000000b170 <uart_send>
ffff00000000f710:	90000460 	adrp	x0, ffff00000009b000 <thread_id_table+0x75d0>
ffff00000000f714:	912ec001 	add	x1, x0, #0xbb0
ffff00000000f718:	b9801fa2 	ldrsw	x2, [x29,#28]
ffff00000000f71c:	d2800380 	mov	x0, #0x1c                  	// #28
ffff00000000f720:	9b007c40 	mul	x0, x2, x0
ffff00000000f724:	8b000020 	add	x0, x1, x0
ffff00000000f728:	91002c00 	add	x0, x0, #0xb
ffff00000000f72c:	39400000 	ldrb	w0, [x0]
ffff00000000f730:	121d0000 	and	w0, w0, #0x8
ffff00000000f734:	7100001f 	cmp	w0, #0x0
ffff00000000f738:	54000060 	b.eq	ffff00000000f744 <list+0x13c>
ffff00000000f73c:	52800980 	mov	w0, #0x4c                  	// #76
ffff00000000f740:	14000002 	b	ffff00000000f748 <list+0x140>
ffff00000000f744:	528005c0 	mov	w0, #0x2e                  	// #46
ffff00000000f748:	97ffee8a 	bl	ffff00000000b170 <uart_send>
ffff00000000f74c:	90000460 	adrp	x0, ffff00000009b000 <thread_id_table+0x75d0>
ffff00000000f750:	912ec001 	add	x1, x0, #0xbb0
ffff00000000f754:	b9801fa2 	ldrsw	x2, [x29,#28]
ffff00000000f758:	d2800380 	mov	x0, #0x1c                  	// #28
ffff00000000f75c:	9b007c40 	mul	x0, x2, x0
ffff00000000f760:	8b000020 	add	x0, x1, x0
ffff00000000f764:	91002c00 	add	x0, x0, #0xb
ffff00000000f768:	39400000 	ldrb	w0, [x0]
ffff00000000f76c:	121c0000 	and	w0, w0, #0x10
ffff00000000f770:	7100001f 	cmp	w0, #0x0
ffff00000000f774:	54000060 	b.eq	ffff00000000f780 <list+0x178>
ffff00000000f778:	52800880 	mov	w0, #0x44                  	// #68
ffff00000000f77c:	14000002 	b	ffff00000000f784 <list+0x17c>
ffff00000000f780:	528005c0 	mov	w0, #0x2e                  	// #46
ffff00000000f784:	97ffee7b 	bl	ffff00000000b170 <uart_send>
ffff00000000f788:	90000460 	adrp	x0, ffff00000009b000 <thread_id_table+0x75d0>
ffff00000000f78c:	912ec001 	add	x1, x0, #0xbb0
ffff00000000f790:	b9801fa2 	ldrsw	x2, [x29,#28]
ffff00000000f794:	d2800380 	mov	x0, #0x1c                  	// #28
ffff00000000f798:	9b007c40 	mul	x0, x2, x0
ffff00000000f79c:	8b000020 	add	x0, x1, x0
ffff00000000f7a0:	91002c00 	add	x0, x0, #0xb
ffff00000000f7a4:	39400000 	ldrb	w0, [x0]
ffff00000000f7a8:	121b0000 	and	w0, w0, #0x20
ffff00000000f7ac:	7100001f 	cmp	w0, #0x0
ffff00000000f7b0:	54000060 	b.eq	ffff00000000f7bc <list+0x1b4>
ffff00000000f7b4:	52800820 	mov	w0, #0x41                  	// #65
ffff00000000f7b8:	14000002 	b	ffff00000000f7c0 <list+0x1b8>
ffff00000000f7bc:	528005c0 	mov	w0, #0x2e                  	// #46
ffff00000000f7c0:	97ffee6c 	bl	ffff00000000b170 <uart_send>
ffff00000000f7c4:	52800400 	mov	w0, #0x20                  	// #32
ffff00000000f7c8:	97ffee6a 	bl	ffff00000000b170 <uart_send>
ffff00000000f7cc:	90000460 	adrp	x0, ffff00000009b000 <thread_id_table+0x75d0>
ffff00000000f7d0:	912ec001 	add	x1, x0, #0xbb0
ffff00000000f7d4:	b9801fa2 	ldrsw	x2, [x29,#28]
ffff00000000f7d8:	d2800380 	mov	x0, #0x1c                  	// #28
ffff00000000f7dc:	9b007c40 	mul	x0, x2, x0
ffff00000000f7e0:	8b000020 	add	x0, x1, x0
ffff00000000f7e4:	91005000 	add	x0, x0, #0x14
ffff00000000f7e8:	b9400000 	ldr	w0, [x0]
ffff00000000f7ec:	2a0003e0 	mov	w0, w0
ffff00000000f7f0:	97ffeeee 	bl	ffff00000000b3a8 <uart_hex>
ffff00000000f7f4:	52800400 	mov	w0, #0x20                  	// #32
ffff00000000f7f8:	97ffee5e 	bl	ffff00000000b170 <uart_send>
ffff00000000f7fc:	90000460 	adrp	x0, ffff00000009b000 <thread_id_table+0x75d0>
ffff00000000f800:	912ec001 	add	x1, x0, #0xbb0
ffff00000000f804:	b9801fa2 	ldrsw	x2, [x29,#28]
ffff00000000f808:	d2800380 	mov	x0, #0x1c                  	// #28
ffff00000000f80c:	9b007c40 	mul	x0, x2, x0
ffff00000000f810:	8b000020 	add	x0, x1, x0
ffff00000000f814:	91006000 	add	x0, x0, #0x18
ffff00000000f818:	79400000 	ldrh	w0, [x0]
ffff00000000f81c:	53103c00 	lsl	w0, w0, #16
ffff00000000f820:	90000461 	adrp	x1, ffff00000009b000 <thread_id_table+0x75d0>
ffff00000000f824:	912ec022 	add	x2, x1, #0xbb0
ffff00000000f828:	b9801fa3 	ldrsw	x3, [x29,#28]
ffff00000000f82c:	d2800381 	mov	x1, #0x1c                  	// #28
ffff00000000f830:	9b017c61 	mul	x1, x3, x1
ffff00000000f834:	8b010041 	add	x1, x2, x1
ffff00000000f838:	91006821 	add	x1, x1, #0x1a
ffff00000000f83c:	79400021 	ldrh	w1, [x1]
ffff00000000f840:	2a010000 	orr	w0, w0, w1
ffff00000000f844:	2a0003e0 	mov	w0, w0
ffff00000000f848:	97ffeed8 	bl	ffff00000000b3a8 <uart_hex>
ffff00000000f84c:	52800400 	mov	w0, #0x20                  	// #32
ffff00000000f850:	97ffee48 	bl	ffff00000000b170 <uart_send>
ffff00000000f854:	b9801fa1 	ldrsw	x1, [x29,#28]
ffff00000000f858:	d2800380 	mov	x0, #0x1c                  	// #28
ffff00000000f85c:	9b007c21 	mul	x1, x1, x0
ffff00000000f860:	90000460 	adrp	x0, ffff00000009b000 <thread_id_table+0x75d0>
ffff00000000f864:	912ec000 	add	x0, x0, #0xbb0
ffff00000000f868:	8b000020 	add	x0, x1, x0
ffff00000000f86c:	97ffeeef 	bl	ffff00000000b428 <uart_puts>
ffff00000000f870:	52800400 	mov	w0, #0x20                  	// #32
ffff00000000f874:	97ffee3f 	bl	ffff00000000b170 <uart_send>
ffff00000000f878:	f0000000 	adrp	x0, ffff000000012000 <sys_call_table+0x1c8>
ffff00000000f87c:	91296000 	add	x0, x0, #0xa58
ffff00000000f880:	97ffeeea 	bl	ffff00000000b428 <uart_puts>
ffff00000000f884:	b9401fa0 	ldr	w0, [x29,#28]
ffff00000000f888:	11000400 	add	w0, w0, #0x1
ffff00000000f88c:	b9001fa0 	str	w0, [x29,#28]
ffff00000000f890:	b9401fa0 	ldr	w0, [x29,#28]
ffff00000000f894:	71000c1f 	cmp	w0, #0x3
ffff00000000f898:	54ffed0d 	b.le	ffff00000000f638 <list+0x30>
ffff00000000f89c:	14000099 	b	ffff00000000fb00 <list+0x4f8>
ffff00000000f8a0:	b9001bbf 	str	wzr, [x29,#24]
ffff00000000f8a4:	1400008e 	b	ffff00000000fadc <list+0x4d4>
ffff00000000f8a8:	90000460 	adrp	x0, ffff00000009b000 <thread_id_table+0x75d0>
ffff00000000f8ac:	912ec001 	add	x1, x0, #0xbb0
ffff00000000f8b0:	b9801ba2 	ldrsw	x2, [x29,#24]
ffff00000000f8b4:	d2800380 	mov	x0, #0x1c                  	// #28
ffff00000000f8b8:	9b007c40 	mul	x0, x2, x0
ffff00000000f8bc:	8b000020 	add	x0, x1, x0
ffff00000000f8c0:	91002c00 	add	x0, x0, #0xb
ffff00000000f8c4:	39400000 	ldrb	w0, [x0]
ffff00000000f8c8:	12000000 	and	w0, w0, #0x1
ffff00000000f8cc:	7100001f 	cmp	w0, #0x0
ffff00000000f8d0:	54000060 	b.eq	ffff00000000f8dc <list+0x2d4>
ffff00000000f8d4:	52800a40 	mov	w0, #0x52                  	// #82
ffff00000000f8d8:	14000002 	b	ffff00000000f8e0 <list+0x2d8>
ffff00000000f8dc:	528005c0 	mov	w0, #0x2e                  	// #46
ffff00000000f8e0:	97ffee24 	bl	ffff00000000b170 <uart_send>
ffff00000000f8e4:	90000460 	adrp	x0, ffff00000009b000 <thread_id_table+0x75d0>
ffff00000000f8e8:	912ec001 	add	x1, x0, #0xbb0
ffff00000000f8ec:	b9801ba2 	ldrsw	x2, [x29,#24]
ffff00000000f8f0:	d2800380 	mov	x0, #0x1c                  	// #28
ffff00000000f8f4:	9b007c40 	mul	x0, x2, x0
ffff00000000f8f8:	8b000020 	add	x0, x1, x0
ffff00000000f8fc:	91002c00 	add	x0, x0, #0xb
ffff00000000f900:	39400000 	ldrb	w0, [x0]
ffff00000000f904:	121f0000 	and	w0, w0, #0x2
ffff00000000f908:	7100001f 	cmp	w0, #0x0
ffff00000000f90c:	54000060 	b.eq	ffff00000000f918 <list+0x310>
ffff00000000f910:	52800900 	mov	w0, #0x48                  	// #72
ffff00000000f914:	14000002 	b	ffff00000000f91c <list+0x314>
ffff00000000f918:	528005c0 	mov	w0, #0x2e                  	// #46
ffff00000000f91c:	97ffee15 	bl	ffff00000000b170 <uart_send>
ffff00000000f920:	90000460 	adrp	x0, ffff00000009b000 <thread_id_table+0x75d0>
ffff00000000f924:	912ec001 	add	x1, x0, #0xbb0
ffff00000000f928:	b9801ba2 	ldrsw	x2, [x29,#24]
ffff00000000f92c:	d2800380 	mov	x0, #0x1c                  	// #28
ffff00000000f930:	9b007c40 	mul	x0, x2, x0
ffff00000000f934:	8b000020 	add	x0, x1, x0
ffff00000000f938:	91002c00 	add	x0, x0, #0xb
ffff00000000f93c:	39400000 	ldrb	w0, [x0]
ffff00000000f940:	121e0000 	and	w0, w0, #0x4
ffff00000000f944:	7100001f 	cmp	w0, #0x0
ffff00000000f948:	54000060 	b.eq	ffff00000000f954 <list+0x34c>
ffff00000000f94c:	52800a60 	mov	w0, #0x53                  	// #83
ffff00000000f950:	14000002 	b	ffff00000000f958 <list+0x350>
ffff00000000f954:	528005c0 	mov	w0, #0x2e                  	// #46
ffff00000000f958:	97ffee06 	bl	ffff00000000b170 <uart_send>
ffff00000000f95c:	90000460 	adrp	x0, ffff00000009b000 <thread_id_table+0x75d0>
ffff00000000f960:	912ec001 	add	x1, x0, #0xbb0
ffff00000000f964:	b9801ba2 	ldrsw	x2, [x29,#24]
ffff00000000f968:	d2800380 	mov	x0, #0x1c                  	// #28
ffff00000000f96c:	9b007c40 	mul	x0, x2, x0
ffff00000000f970:	8b000020 	add	x0, x1, x0
ffff00000000f974:	91002c00 	add	x0, x0, #0xb
ffff00000000f978:	39400000 	ldrb	w0, [x0]
ffff00000000f97c:	121d0000 	and	w0, w0, #0x8
ffff00000000f980:	7100001f 	cmp	w0, #0x0
ffff00000000f984:	54000060 	b.eq	ffff00000000f990 <list+0x388>
ffff00000000f988:	52800980 	mov	w0, #0x4c                  	// #76
ffff00000000f98c:	14000002 	b	ffff00000000f994 <list+0x38c>
ffff00000000f990:	528005c0 	mov	w0, #0x2e                  	// #46
ffff00000000f994:	97ffedf7 	bl	ffff00000000b170 <uart_send>
ffff00000000f998:	90000460 	adrp	x0, ffff00000009b000 <thread_id_table+0x75d0>
ffff00000000f99c:	912ec001 	add	x1, x0, #0xbb0
ffff00000000f9a0:	b9801ba2 	ldrsw	x2, [x29,#24]
ffff00000000f9a4:	d2800380 	mov	x0, #0x1c                  	// #28
ffff00000000f9a8:	9b007c40 	mul	x0, x2, x0
ffff00000000f9ac:	8b000020 	add	x0, x1, x0
ffff00000000f9b0:	91002c00 	add	x0, x0, #0xb
ffff00000000f9b4:	39400000 	ldrb	w0, [x0]
ffff00000000f9b8:	121c0000 	and	w0, w0, #0x10
ffff00000000f9bc:	7100001f 	cmp	w0, #0x0
ffff00000000f9c0:	54000060 	b.eq	ffff00000000f9cc <list+0x3c4>
ffff00000000f9c4:	52800880 	mov	w0, #0x44                  	// #68
ffff00000000f9c8:	14000002 	b	ffff00000000f9d0 <list+0x3c8>
ffff00000000f9cc:	528005c0 	mov	w0, #0x2e                  	// #46
ffff00000000f9d0:	97ffede8 	bl	ffff00000000b170 <uart_send>
ffff00000000f9d4:	90000460 	adrp	x0, ffff00000009b000 <thread_id_table+0x75d0>
ffff00000000f9d8:	912ec001 	add	x1, x0, #0xbb0
ffff00000000f9dc:	b9801ba2 	ldrsw	x2, [x29,#24]
ffff00000000f9e0:	d2800380 	mov	x0, #0x1c                  	// #28
ffff00000000f9e4:	9b007c40 	mul	x0, x2, x0
ffff00000000f9e8:	8b000020 	add	x0, x1, x0
ffff00000000f9ec:	91002c00 	add	x0, x0, #0xb
ffff00000000f9f0:	39400000 	ldrb	w0, [x0]
ffff00000000f9f4:	121b0000 	and	w0, w0, #0x20
ffff00000000f9f8:	7100001f 	cmp	w0, #0x0
ffff00000000f9fc:	54000060 	b.eq	ffff00000000fa08 <list+0x400>
ffff00000000fa00:	52800820 	mov	w0, #0x41                  	// #65
ffff00000000fa04:	14000002 	b	ffff00000000fa0c <list+0x404>
ffff00000000fa08:	528005c0 	mov	w0, #0x2e                  	// #46
ffff00000000fa0c:	97ffedd9 	bl	ffff00000000b170 <uart_send>
ffff00000000fa10:	52800400 	mov	w0, #0x20                  	// #32
ffff00000000fa14:	97ffedd7 	bl	ffff00000000b170 <uart_send>
ffff00000000fa18:	90000460 	adrp	x0, ffff00000009b000 <thread_id_table+0x75d0>
ffff00000000fa1c:	912ec001 	add	x1, x0, #0xbb0
ffff00000000fa20:	b9801ba2 	ldrsw	x2, [x29,#24]
ffff00000000fa24:	d2800380 	mov	x0, #0x1c                  	// #28
ffff00000000fa28:	9b007c40 	mul	x0, x2, x0
ffff00000000fa2c:	8b000020 	add	x0, x1, x0
ffff00000000fa30:	91005000 	add	x0, x0, #0x14
ffff00000000fa34:	b9400000 	ldr	w0, [x0]
ffff00000000fa38:	2a0003e0 	mov	w0, w0
ffff00000000fa3c:	97ffee5b 	bl	ffff00000000b3a8 <uart_hex>
ffff00000000fa40:	52800400 	mov	w0, #0x20                  	// #32
ffff00000000fa44:	97ffedcb 	bl	ffff00000000b170 <uart_send>
ffff00000000fa48:	90000460 	adrp	x0, ffff00000009b000 <thread_id_table+0x75d0>
ffff00000000fa4c:	912ec001 	add	x1, x0, #0xbb0
ffff00000000fa50:	b9801ba2 	ldrsw	x2, [x29,#24]
ffff00000000fa54:	d2800380 	mov	x0, #0x1c                  	// #28
ffff00000000fa58:	9b007c40 	mul	x0, x2, x0
ffff00000000fa5c:	8b000020 	add	x0, x1, x0
ffff00000000fa60:	91006000 	add	x0, x0, #0x18
ffff00000000fa64:	79400000 	ldrh	w0, [x0]
ffff00000000fa68:	53103c00 	lsl	w0, w0, #16
ffff00000000fa6c:	90000461 	adrp	x1, ffff00000009b000 <thread_id_table+0x75d0>
ffff00000000fa70:	912ec022 	add	x2, x1, #0xbb0
ffff00000000fa74:	b9801ba3 	ldrsw	x3, [x29,#24]
ffff00000000fa78:	d2800381 	mov	x1, #0x1c                  	// #28
ffff00000000fa7c:	9b017c61 	mul	x1, x3, x1
ffff00000000fa80:	8b010041 	add	x1, x2, x1
ffff00000000fa84:	91006821 	add	x1, x1, #0x1a
ffff00000000fa88:	79400021 	ldrh	w1, [x1]
ffff00000000fa8c:	2a010000 	orr	w0, w0, w1
ffff00000000fa90:	2a0003e0 	mov	w0, w0
ffff00000000fa94:	97ffee45 	bl	ffff00000000b3a8 <uart_hex>
ffff00000000fa98:	52800400 	mov	w0, #0x20                  	// #32
ffff00000000fa9c:	97ffedb5 	bl	ffff00000000b170 <uart_send>
ffff00000000faa0:	b9801ba1 	ldrsw	x1, [x29,#24]
ffff00000000faa4:	d2800380 	mov	x0, #0x1c                  	// #28
ffff00000000faa8:	9b007c21 	mul	x1, x1, x0
ffff00000000faac:	90000460 	adrp	x0, ffff00000009b000 <thread_id_table+0x75d0>
ffff00000000fab0:	912ec000 	add	x0, x0, #0xbb0
ffff00000000fab4:	8b000020 	add	x0, x1, x0
ffff00000000fab8:	97ffee5c 	bl	ffff00000000b428 <uart_puts>
ffff00000000fabc:	52800400 	mov	w0, #0x20                  	// #32
ffff00000000fac0:	97ffedac 	bl	ffff00000000b170 <uart_send>
ffff00000000fac4:	f0000000 	adrp	x0, ffff000000012000 <sys_call_table+0x1c8>
ffff00000000fac8:	91296000 	add	x0, x0, #0xa58
ffff00000000facc:	97ffee57 	bl	ffff00000000b428 <uart_puts>
ffff00000000fad0:	b9401ba0 	ldr	w0, [x29,#24]
ffff00000000fad4:	11000400 	add	w0, w0, #0x1
ffff00000000fad8:	b9001ba0 	str	w0, [x29,#24]
ffff00000000fadc:	90000460 	adrp	x0, ffff00000009b000 <thread_id_table+0x75d0>
ffff00000000fae0:	912ec001 	add	x1, x0, #0xbb0
ffff00000000fae4:	b9801ba2 	ldrsw	x2, [x29,#24]
ffff00000000fae8:	d2800380 	mov	x0, #0x1c                  	// #28
ffff00000000faec:	9b007c40 	mul	x0, x2, x0
ffff00000000faf0:	8b000020 	add	x0, x1, x0
ffff00000000faf4:	39400000 	ldrb	w0, [x0]
ffff00000000faf8:	7100001f 	cmp	w0, #0x0
ffff00000000fafc:	54ffed61 	b.ne	ffff00000000f8a8 <list+0x2a0>
ffff00000000fb00:	d503201f 	nop
ffff00000000fb04:	a8c27bfd 	ldp	x29, x30, [sp],#32
ffff00000000fb08:	d65f03c0 	ret

ffff00000000fb0c <run_file>:
ffff00000000fb0c:	a9bc7bfd 	stp	x29, x30, [sp,#-64]!
ffff00000000fb10:	910003fd 	mov	x29, sp
ffff00000000fb14:	f9000fa0 	str	x0, [x29,#24]
ffff00000000fb18:	b9003bbf 	str	wzr, [x29,#56]
ffff00000000fb1c:	f9001bbf 	str	xzr, [x29,#48]
ffff00000000fb20:	b9003fbf 	str	wzr, [x29,#60]
ffff00000000fb24:	1400008c 	b	ffff00000000fd54 <run_file+0x248>
ffff00000000fb28:	b9803fa1 	ldrsw	x1, [x29,#60]
ffff00000000fb2c:	d2800380 	mov	x0, #0x1c                  	// #28
ffff00000000fb30:	9b007c21 	mul	x1, x1, x0
ffff00000000fb34:	90000460 	adrp	x0, ffff00000009b000 <thread_id_table+0x75d0>
ffff00000000fb38:	912ec000 	add	x0, x0, #0xbb0
ffff00000000fb3c:	8b000020 	add	x0, x1, x0
ffff00000000fb40:	52800102 	mov	w2, #0x8                   	// #8
ffff00000000fb44:	f9400fa1 	ldr	x1, [x29,#24]
ffff00000000fb48:	9400030a 	bl	ffff000000010770 <memcmp>
ffff00000000fb4c:	7100001f 	cmp	w0, #0x0
ffff00000000fb50:	54000fc1 	b.ne	ffff00000000fd48 <run_file+0x23c>
ffff00000000fb54:	90000460 	adrp	x0, ffff00000009b000 <thread_id_table+0x75d0>
ffff00000000fb58:	912ec001 	add	x1, x0, #0xbb0
ffff00000000fb5c:	b9803fa2 	ldrsw	x2, [x29,#60]
ffff00000000fb60:	d2800380 	mov	x0, #0x1c                  	// #28
ffff00000000fb64:	9b007c40 	mul	x0, x2, x0
ffff00000000fb68:	8b000020 	add	x0, x1, x0
ffff00000000fb6c:	91006000 	add	x0, x0, #0x18
ffff00000000fb70:	79400000 	ldrh	w0, [x0]
ffff00000000fb74:	53103c00 	lsl	w0, w0, #16
ffff00000000fb78:	90000461 	adrp	x1, ffff00000009b000 <thread_id_table+0x75d0>
ffff00000000fb7c:	912ec022 	add	x2, x1, #0xbb0
ffff00000000fb80:	b9803fa3 	ldrsw	x3, [x29,#60]
ffff00000000fb84:	d2800381 	mov	x1, #0x1c                  	// #28
ffff00000000fb88:	9b017c61 	mul	x1, x3, x1
ffff00000000fb8c:	8b010041 	add	x1, x2, x1
ffff00000000fb90:	91006821 	add	x1, x1, #0x1a
ffff00000000fb94:	79400021 	ldrh	w1, [x1]
ffff00000000fb98:	2a010000 	orr	w0, w0, w1
ffff00000000fb9c:	b9003ba0 	str	w0, [x29,#56]
ffff00000000fba0:	b9403ba0 	ldr	w0, [x29,#56]
ffff00000000fba4:	7100001f 	cmp	w0, #0x0
ffff00000000fba8:	54000c60 	b.eq	ffff00000000fd34 <run_file+0x228>
ffff00000000fbac:	f0000000 	adrp	x0, ffff000000012000 <sys_call_table+0x1c8>
ffff00000000fbb0:	91298000 	add	x0, x0, #0xa60
ffff00000000fbb4:	97ffd6d5 	bl	ffff000000005708 <tfp_printf>
ffff00000000fbb8:	90000020 	adrp	x0, ffff000000013000 <sdCommandTable+0x110>
ffff00000000fbbc:	910b0000 	add	x0, x0, #0x2c0
ffff00000000fbc0:	b9400002 	ldr	w2, [x0]
ffff00000000fbc4:	90000460 	adrp	x0, ffff00000009b000 <thread_id_table+0x75d0>
ffff00000000fbc8:	91298001 	add	x1, x0, #0xa60
ffff00000000fbcc:	93407c42 	sxtw	x2, w2
ffff00000000fbd0:	d2800a80 	mov	x0, #0x54                  	// #84
ffff00000000fbd4:	9b007c40 	mul	x0, x2, x0
ffff00000000fbd8:	8b000020 	add	x0, x1, x0
ffff00000000fbdc:	91002000 	add	x0, x0, #0x8
ffff00000000fbe0:	b9400000 	ldr	w0, [x0]
ffff00000000fbe4:	7100301f 	cmp	w0, #0xc
ffff00000000fbe8:	54000861 	b.ne	ffff00000000fcf4 <run_file+0x1e8>
ffff00000000fbec:	b9403ba3 	ldr	w3, [x29,#56]
ffff00000000fbf0:	90000020 	adrp	x0, ffff000000013000 <sdCommandTable+0x110>
ffff00000000fbf4:	910b0000 	add	x0, x0, #0x2c0
ffff00000000fbf8:	b9400000 	ldr	w0, [x0]
ffff00000000fbfc:	93407c01 	sxtw	x1, w0
ffff00000000fc00:	d2800a80 	mov	x0, #0x54                  	// #84
ffff00000000fc04:	9b007c21 	mul	x1, x1, x0
ffff00000000fc08:	90000460 	adrp	x0, ffff00000009b000 <thread_id_table+0x75d0>
ffff00000000fc0c:	91298000 	add	x0, x0, #0xa60
ffff00000000fc10:	8b000020 	add	x0, x1, x0
ffff00000000fc14:	aa0003e2 	mov	x2, x0
ffff00000000fc18:	2a0303e1 	mov	w1, w3
ffff00000000fc1c:	d2800000 	mov	x0, #0x0                   	// #0
ffff00000000fc20:	97ffc957 	bl	ffff00000000217c <fat32_readfile>
ffff00000000fc24:	f9001ba0 	str	x0, [x29,#48]
ffff00000000fc28:	d503201f 	nop
ffff00000000fc2c:	90000460 	adrp	x0, ffff00000009b000 <thread_id_table+0x75d0>
ffff00000000fc30:	912ec001 	add	x1, x0, #0xbb0
ffff00000000fc34:	b9803fa2 	ldrsw	x2, [x29,#60]
ffff00000000fc38:	d2800380 	mov	x0, #0x1c                  	// #28
ffff00000000fc3c:	9b007c40 	mul	x0, x2, x0
ffff00000000fc40:	8b000020 	add	x0, x1, x0
ffff00000000fc44:	91005000 	add	x0, x0, #0x14
ffff00000000fc48:	b9400000 	ldr	w0, [x0]
ffff00000000fc4c:	2a0003e0 	mov	w0, w0
ffff00000000fc50:	f90017a0 	str	x0, [x29,#40]
ffff00000000fc54:	f9401ba3 	ldr	x3, [x29,#48]
ffff00000000fc58:	90000420 	adrp	x0, ffff000000093000 <intFileIORecord+0xed0>
ffff00000000fc5c:	91288000 	add	x0, x0, #0xa20
ffff00000000fc60:	b9400000 	ldr	w0, [x0]
ffff00000000fc64:	2a0003e1 	mov	w1, w0
ffff00000000fc68:	d0000460 	adrp	x0, ffff00000009d000 <ksym+0x320>
ffff00000000fc6c:	911e4000 	add	x0, x0, #0x790
ffff00000000fc70:	8b000020 	add	x0, x1, x0
ffff00000000fc74:	f94017a2 	ldr	x2, [x29,#40]
ffff00000000fc78:	aa0003e1 	mov	x1, x0
ffff00000000fc7c:	aa0303e0 	mov	x0, x3
ffff00000000fc80:	940002b7 	bl	ffff00000001075c <memcpy>
ffff00000000fc84:	d0ffffa0 	adrp	x0, ffff000000005000 <ui2a+0x104>
ffff00000000fc88:	913d3004 	add	x4, x0, #0xf4c
ffff00000000fc8c:	90000420 	adrp	x0, ffff000000093000 <intFileIORecord+0xed0>
ffff00000000fc90:	91288000 	add	x0, x0, #0xa20
ffff00000000fc94:	b9400000 	ldr	w0, [x0]
ffff00000000fc98:	2a0003e1 	mov	w1, w0
ffff00000000fc9c:	d0000460 	adrp	x0, ffff00000009d000 <ksym+0x320>
ffff00000000fca0:	911e4000 	add	x0, x0, #0x790
ffff00000000fca4:	8b000020 	add	x0, x1, x0
ffff00000000fca8:	f94017a3 	ldr	x3, [x29,#40]
ffff00000000fcac:	aa0003e2 	mov	x2, x0
ffff00000000fcb0:	aa0403e1 	mov	x1, x4
ffff00000000fcb4:	52800020 	mov	w0, #0x1                   	// #1
ffff00000000fcb8:	94000036 	bl	ffff00000000fd90 <copy_process>
ffff00000000fcbc:	f94017a0 	ldr	x0, [x29,#40]
ffff00000000fcc0:	2a0003e1 	mov	w1, w0
ffff00000000fcc4:	90000420 	adrp	x0, ffff000000093000 <intFileIORecord+0xed0>
ffff00000000fcc8:	91288000 	add	x0, x0, #0xa20
ffff00000000fccc:	b9400000 	ldr	w0, [x0]
ffff00000000fcd0:	0b000021 	add	w1, w1, w0
ffff00000000fcd4:	90000420 	adrp	x0, ffff000000093000 <intFileIORecord+0xed0>
ffff00000000fcd8:	91288000 	add	x0, x0, #0xa20
ffff00000000fcdc:	b9000001 	str	w1, [x0]
ffff00000000fce0:	f0000000 	adrp	x0, ffff000000012000 <sys_call_table+0x1c8>
ffff00000000fce4:	912a4000 	add	x0, x0, #0xa90
ffff00000000fce8:	97ffd688 	bl	ffff000000005708 <tfp_printf>
ffff00000000fcec:	52800020 	mov	w0, #0x1                   	// #1
ffff00000000fcf0:	14000026 	b	ffff00000000fd88 <run_file+0x27c>
ffff00000000fcf4:	90000020 	adrp	x0, ffff000000013000 <sdCommandTable+0x110>
ffff00000000fcf8:	910b0000 	add	x0, x0, #0x2c0
ffff00000000fcfc:	b9400002 	ldr	w2, [x0]
ffff00000000fd00:	90000460 	adrp	x0, ffff00000009b000 <thread_id_table+0x75d0>
ffff00000000fd04:	91298001 	add	x1, x0, #0xa60
ffff00000000fd08:	93407c42 	sxtw	x2, w2
ffff00000000fd0c:	d2800a80 	mov	x0, #0x54                  	// #84
ffff00000000fd10:	9b007c40 	mul	x0, x2, x0
ffff00000000fd14:	8b000020 	add	x0, x1, x0
ffff00000000fd18:	91002000 	add	x0, x0, #0x8
ffff00000000fd1c:	b9400001 	ldr	w1, [x0]
ffff00000000fd20:	f0000000 	adrp	x0, ffff000000012000 <sys_call_table+0x1c8>
ffff00000000fd24:	9129a000 	add	x0, x0, #0xa68
ffff00000000fd28:	97ffd678 	bl	ffff000000005708 <tfp_printf>
ffff00000000fd2c:	52800000 	mov	w0, #0x0                   	// #0
ffff00000000fd30:	14000016 	b	ffff00000000fd88 <run_file+0x27c>
ffff00000000fd34:	f0000000 	adrp	x0, ffff000000012000 <sys_call_table+0x1c8>
ffff00000000fd38:	912ae000 	add	x0, x0, #0xab8
ffff00000000fd3c:	97ffd673 	bl	ffff000000005708 <tfp_printf>
ffff00000000fd40:	52800000 	mov	w0, #0x0                   	// #0
ffff00000000fd44:	14000011 	b	ffff00000000fd88 <run_file+0x27c>
ffff00000000fd48:	b9403fa0 	ldr	w0, [x29,#60]
ffff00000000fd4c:	11000400 	add	w0, w0, #0x1
ffff00000000fd50:	b9003fa0 	str	w0, [x29,#60]
ffff00000000fd54:	90000460 	adrp	x0, ffff00000009b000 <thread_id_table+0x75d0>
ffff00000000fd58:	912ec001 	add	x1, x0, #0xbb0
ffff00000000fd5c:	b9803fa2 	ldrsw	x2, [x29,#60]
ffff00000000fd60:	d2800380 	mov	x0, #0x1c                  	// #28
ffff00000000fd64:	9b007c40 	mul	x0, x2, x0
ffff00000000fd68:	8b000020 	add	x0, x1, x0
ffff00000000fd6c:	39400000 	ldrb	w0, [x0]
ffff00000000fd70:	7100001f 	cmp	w0, #0x0
ffff00000000fd74:	54ffeda1 	b.ne	ffff00000000fb28 <run_file+0x1c>
ffff00000000fd78:	f0000000 	adrp	x0, ffff000000012000 <sys_call_table+0x1c8>
ffff00000000fd7c:	912ae000 	add	x0, x0, #0xab8
ffff00000000fd80:	97ffd662 	bl	ffff000000005708 <tfp_printf>
ffff00000000fd84:	52800000 	mov	w0, #0x0                   	// #0
ffff00000000fd88:	a8c47bfd 	ldp	x29, x30, [sp],#64
ffff00000000fd8c:	d65f03c0 	ret

ffff00000000fd90 <copy_process>:
ffff00000000fd90:	a9b77bfd 	stp	x29, x30, [sp,#-144]!
ffff00000000fd94:	910003fd 	mov	x29, sp
ffff00000000fd98:	f90017a0 	str	x0, [x29,#40]
ffff00000000fd9c:	f90013a1 	str	x1, [x29,#32]
ffff00000000fda0:	f9000fa2 	str	x2, [x29,#24]
ffff00000000fda4:	f9000ba3 	str	x3, [x29,#16]
ffff00000000fda8:	97ffcc7e 	bl	ffff000000002fa0 <preempt_disable>
ffff00000000fdac:	52820000 	mov	w0, #0x1000                	// #4096
ffff00000000fdb0:	97ffd047 	bl	ffff000000003ecc <allocate_kernel_page>
ffff00000000fdb4:	a90407a0 	stp	x0, x1, [x29,#64]
ffff00000000fdb8:	52820000 	mov	w0, #0x1000                	// #4096
ffff00000000fdbc:	97ffd044 	bl	ffff000000003ecc <allocate_kernel_page>
ffff00000000fdc0:	a90307a0 	stp	x0, x1, [x29,#48]
ffff00000000fdc4:	f94023a0 	ldr	x0, [x29,#64]
ffff00000000fdc8:	f90047a0 	str	x0, [x29,#136]
ffff00000000fdcc:	f9401ba0 	ldr	x0, [x29,#48]
ffff00000000fdd0:	f90043a0 	str	x0, [x29,#128]
ffff00000000fdd4:	f94047a0 	ldr	x0, [x29,#136]
ffff00000000fdd8:	f9003fa0 	str	x0, [x29,#120]
ffff00000000fddc:	f94043a0 	ldr	x0, [x29,#128]
ffff00000000fde0:	f9003ba0 	str	x0, [x29,#112]
ffff00000000fde4:	f9403fa0 	ldr	x0, [x29,#120]
ffff00000000fde8:	9400010f 	bl	ffff000000010224 <task_pt_regs>
ffff00000000fdec:	f90037a0 	str	x0, [x29,#104]
ffff00000000fdf0:	f9403fa0 	ldr	x0, [x29,#120]
ffff00000000fdf4:	f100001f 	cmp	x0, #0x0
ffff00000000fdf8:	54000061 	b.ne	ffff00000000fe04 <copy_process+0x74>
ffff00000000fdfc:	12800000 	mov	w0, #0xffffffff            	// #-1
ffff00000000fe00:	140000d9 	b	ffff000000010164 <copy_process+0x3d4>
ffff00000000fe04:	f94017a0 	ldr	x0, [x29,#40]
ffff00000000fe08:	f100001f 	cmp	x0, #0x0
ffff00000000fe0c:	54000080 	b.eq	ffff00000000fe1c <copy_process+0x8c>
ffff00000000fe10:	f94017a0 	ldr	x0, [x29,#40]
ffff00000000fe14:	f100041f 	cmp	x0, #0x1
ffff00000000fe18:	54000161 	b.ne	ffff00000000fe44 <copy_process+0xb4>
ffff00000000fe1c:	f9403fa0 	ldr	x0, [x29,#120]
ffff00000000fe20:	f94013a1 	ldr	x1, [x29,#32]
ffff00000000fe24:	f9000001 	str	x1, [x0]
ffff00000000fe28:	f9403fa0 	ldr	x0, [x29,#120]
ffff00000000fe2c:	f9400fa1 	ldr	x1, [x29,#24]
ffff00000000fe30:	f9000401 	str	x1, [x0,#8]
ffff00000000fe34:	f9403fa0 	ldr	x0, [x29,#120]
ffff00000000fe38:	f9400ba1 	ldr	x1, [x29,#16]
ffff00000000fe3c:	f9000801 	str	x1, [x0,#16]
ffff00000000fe40:	14000016 	b	ffff00000000fe98 <copy_process+0x108>
ffff00000000fe44:	f94017a0 	ldr	x0, [x29,#40]
ffff00000000fe48:	f100081f 	cmp	x0, #0x2
ffff00000000fe4c:	54000261 	b.ne	ffff00000000fe98 <copy_process+0x108>
ffff00000000fe50:	f0000000 	adrp	x0, ffff000000012000 <sys_call_table+0x1c8>
ffff00000000fe54:	913b0000 	add	x0, x0, #0xec0
ffff00000000fe58:	f9400000 	ldr	x0, [x0]
ffff00000000fe5c:	f9400000 	ldr	x0, [x0]
ffff00000000fe60:	940000f1 	bl	ffff000000010224 <task_pt_regs>
ffff00000000fe64:	f90033a0 	str	x0, [x29,#96]
ffff00000000fe68:	f94033a1 	ldr	x1, [x29,#96]
ffff00000000fe6c:	f94037a0 	ldr	x0, [x29,#104]
ffff00000000fe70:	aa0103e3 	mov	x3, x1
ffff00000000fe74:	aa0003e1 	mov	x1, x0
ffff00000000fe78:	d2802200 	mov	x0, #0x110                 	// #272
ffff00000000fe7c:	aa0003e2 	mov	x2, x0
ffff00000000fe80:	aa0303e0 	mov	x0, x3
ffff00000000fe84:	94000236 	bl	ffff00000001075c <memcpy>
ffff00000000fe88:	f94037a0 	ldr	x0, [x29,#104]
ffff00000000fe8c:	f900001f 	str	xzr, [x0]
ffff00000000fe90:	f9403fa0 	ldr	x0, [x29,#120]
ffff00000000fe94:	97ffd1b9 	bl	ffff000000004578 <copy_virt_memory>
ffff00000000fe98:	f9403fa0 	ldr	x0, [x29,#120]
ffff00000000fe9c:	f94017a1 	ldr	x1, [x29,#40]
ffff00000000fea0:	f9004401 	str	x1, [x0,#136]
ffff00000000fea4:	f0000000 	adrp	x0, ffff000000012000 <sys_call_table+0x1c8>
ffff00000000fea8:	913b0000 	add	x0, x0, #0xec0
ffff00000000feac:	f9400000 	ldr	x0, [x0]
ffff00000000feb0:	f9400c00 	ldr	x0, [x0,#24]
ffff00000000feb4:	f9400001 	ldr	x1, [x0]
ffff00000000feb8:	f9403fa0 	ldr	x0, [x29,#120]
ffff00000000febc:	f9003c01 	str	x1, [x0,#120]
ffff00000000fec0:	f9403fa0 	ldr	x0, [x29,#120]
ffff00000000fec4:	f900341f 	str	xzr, [x0,#104]
ffff00000000fec8:	f9403fa0 	ldr	x0, [x29,#120]
ffff00000000fecc:	f9403c01 	ldr	x1, [x0,#120]
ffff00000000fed0:	f9403fa0 	ldr	x0, [x29,#120]
ffff00000000fed4:	f9003801 	str	x1, [x0,#112]
ffff00000000fed8:	f9403fa0 	ldr	x0, [x29,#120]
ffff00000000fedc:	d2800021 	mov	x1, #0x1                   	// #1
ffff00000000fee0:	f9004001 	str	x1, [x0,#128]
ffff00000000fee4:	d0000000 	adrp	x0, ffff000000011000 <irq_invalid_el1t+0x14>
ffff00000000fee8:	91231001 	add	x1, x0, #0x8c4
ffff00000000feec:	f9403fa0 	ldr	x0, [x29,#120]
ffff00000000fef0:	f9003001 	str	x1, [x0,#96]
ffff00000000fef4:	f94037a1 	ldr	x1, [x29,#104]
ffff00000000fef8:	f9403fa0 	ldr	x0, [x29,#120]
ffff00000000fefc:	f9002c01 	str	x1, [x0,#88]
ffff00000000ff00:	90000020 	adrp	x0, ffff000000013000 <sdCommandTable+0x110>
ffff00000000ff04:	9117c000 	add	x0, x0, #0x5f0
ffff00000000ff08:	b9400000 	ldr	w0, [x0]
ffff00000000ff0c:	11000402 	add	w2, w0, #0x1
ffff00000000ff10:	90000021 	adrp	x1, ffff000000013000 <sdCommandTable+0x110>
ffff00000000ff14:	9117c021 	add	x1, x1, #0x5f0
ffff00000000ff18:	b9000022 	str	w2, [x1]
ffff00000000ff1c:	b9005fa0 	str	w0, [x29,#92]
ffff00000000ff20:	f9403fa1 	ldr	x1, [x29,#120]
ffff00000000ff24:	f9403ba0 	ldr	x0, [x29,#112]
ffff00000000ff28:	f9000001 	str	x1, [x0]
ffff00000000ff2c:	f9403fa0 	ldr	x0, [x29,#120]
ffff00000000ff30:	9101a001 	add	x1, x0, #0x68
ffff00000000ff34:	f9403ba0 	ldr	x0, [x29,#112]
ffff00000000ff38:	f9000401 	str	x1, [x0,#8]
ffff00000000ff3c:	f9403fa0 	ldr	x0, [x29,#120]
ffff00000000ff40:	9101c001 	add	x1, x0, #0x70
ffff00000000ff44:	f9403ba0 	ldr	x0, [x29,#112]
ffff00000000ff48:	f9000801 	str	x1, [x0,#16]
ffff00000000ff4c:	f9403fa0 	ldr	x0, [x29,#120]
ffff00000000ff50:	9101e001 	add	x1, x0, #0x78
ffff00000000ff54:	f9403ba0 	ldr	x0, [x29,#112]
ffff00000000ff58:	f9000c01 	str	x1, [x0,#24]
ffff00000000ff5c:	f9403fa0 	ldr	x0, [x29,#120]
ffff00000000ff60:	91020001 	add	x1, x0, #0x80
ffff00000000ff64:	f9403ba0 	ldr	x0, [x29,#112]
ffff00000000ff68:	f9001001 	str	x1, [x0,#32]
ffff00000000ff6c:	f9403fa0 	ldr	x0, [x29,#120]
ffff00000000ff70:	91022001 	add	x1, x0, #0x88
ffff00000000ff74:	f9403ba0 	ldr	x0, [x29,#112]
ffff00000000ff78:	f9001401 	str	x1, [x0,#40]
ffff00000000ff7c:	f9403fa0 	ldr	x0, [x29,#120]
ffff00000000ff80:	91024001 	add	x1, x0, #0x90
ffff00000000ff84:	f9403ba0 	ldr	x0, [x29,#112]
ffff00000000ff88:	f9001801 	str	x1, [x0,#48]
ffff00000000ff8c:	f9403ba0 	ldr	x0, [x29,#112]
ffff00000000ff90:	b9405fa1 	ldr	w1, [x29,#92]
ffff00000000ff94:	b9003801 	str	w1, [x0,#56]
ffff00000000ff98:	f9403ba0 	ldr	x0, [x29,#112]
ffff00000000ff9c:	f9403ba1 	ldr	x1, [x29,#112]
ffff00000000ffa0:	f9004401 	str	x1, [x0,#136]
ffff00000000ffa4:	14000010 	b	ffff00000000ffe4 <copy_process+0x254>
ffff00000000ffa8:	90000420 	adrp	x0, ffff000000093000 <intFileIORecord+0xed0>
ffff00000000ffac:	9128a000 	add	x0, x0, #0xa28
ffff00000000ffb0:	b9400000 	ldr	w0, [x0]
ffff00000000ffb4:	11000401 	add	w1, w0, #0x1
ffff00000000ffb8:	90000420 	adrp	x0, ffff000000093000 <intFileIORecord+0xed0>
ffff00000000ffbc:	9128a000 	add	x0, x0, #0xa28
ffff00000000ffc0:	b9000001 	str	w1, [x0]
ffff00000000ffc4:	90000420 	adrp	x0, ffff000000093000 <intFileIORecord+0xed0>
ffff00000000ffc8:	9128a000 	add	x0, x0, #0xa28
ffff00000000ffcc:	b9400000 	ldr	w0, [x0]
ffff00000000ffd0:	7140041f 	cmp	w0, #0x1, lsl #12
ffff00000000ffd4:	54000081 	b.ne	ffff00000000ffe4 <copy_process+0x254>
ffff00000000ffd8:	90000420 	adrp	x0, ffff000000093000 <intFileIORecord+0xed0>
ffff00000000ffdc:	9128a000 	add	x0, x0, #0xa28
ffff00000000ffe0:	b900001f 	str	wzr, [x0]
ffff00000000ffe4:	90000420 	adrp	x0, ffff000000093000 <intFileIORecord+0xed0>
ffff00000000ffe8:	9128a000 	add	x0, x0, #0xa28
ffff00000000ffec:	b9400001 	ldr	w1, [x0]
ffff00000000fff0:	90000420 	adrp	x0, ffff000000093000 <intFileIORecord+0xed0>
ffff00000000fff4:	9128c000 	add	x0, x0, #0xa30
ffff00000000fff8:	93407c21 	sxtw	x1, w1
ffff00000000fffc:	f8617800 	ldr	x0, [x0,x1,lsl #3]
ffff000000010000:	f100001f 	cmp	x0, #0x0
ffff000000010004:	54fffd21 	b.ne	ffff00000000ffa8 <copy_process+0x218>
ffff000000010008:	f0000400 	adrp	x0, ffff000000093000 <intFileIORecord+0xed0>
ffff00000001000c:	9128a000 	add	x0, x0, #0xa28
ffff000000010010:	b9400001 	ldr	w1, [x0]
ffff000000010014:	f9403ba0 	ldr	x0, [x29,#112]
ffff000000010018:	b9003c01 	str	w1, [x0,#60]
ffff00000001001c:	f0000400 	adrp	x0, ffff000000093000 <intFileIORecord+0xed0>
ffff000000010020:	9128a000 	add	x0, x0, #0xa28
ffff000000010024:	b9400001 	ldr	w1, [x0]
ffff000000010028:	f0000400 	adrp	x0, ffff000000093000 <intFileIORecord+0xed0>
ffff00000001002c:	9128c000 	add	x0, x0, #0xa30
ffff000000010030:	93407c21 	sxtw	x1, w1
ffff000000010034:	f9403ba2 	ldr	x2, [x29,#112]
ffff000000010038:	f8217802 	str	x2, [x0,x1,lsl #3]
ffff00000001003c:	f94017a0 	ldr	x0, [x29,#40]
ffff000000010040:	f100001f 	cmp	x0, #0x0
ffff000000010044:	540003e1 	b.ne	ffff0000000100c0 <copy_process+0x330>
ffff000000010048:	d0000000 	adrp	x0, ffff000000012000 <sys_call_table+0x1c8>
ffff00000001004c:	913b6000 	add	x0, x0, #0xed8
ffff000000010050:	f9400000 	ldr	x0, [x0]
ffff000000010054:	f9002ba0 	str	x0, [x29,#80]
ffff000000010058:	f9402ba0 	ldr	x0, [x29,#80]
ffff00000001005c:	f9404000 	ldr	x0, [x0,#128]
ffff000000010060:	f100001f 	cmp	x0, #0x0
ffff000000010064:	54000200 	b.eq	ffff0000000100a4 <copy_process+0x314>
ffff000000010068:	f9402ba0 	ldr	x0, [x29,#80]
ffff00000001006c:	f9404001 	ldr	x1, [x0,#128]
ffff000000010070:	f9403ba0 	ldr	x0, [x29,#112]
ffff000000010074:	f9004001 	str	x1, [x0,#128]
ffff000000010078:	f9403ba0 	ldr	x0, [x29,#112]
ffff00000001007c:	f9402ba1 	ldr	x1, [x29,#80]
ffff000000010080:	f9003c01 	str	x1, [x0,#120]
ffff000000010084:	f9402ba0 	ldr	x0, [x29,#80]
ffff000000010088:	f9404000 	ldr	x0, [x0,#128]
ffff00000001008c:	f9403ba1 	ldr	x1, [x29,#112]
ffff000000010090:	f9003c01 	str	x1, [x0,#120]
ffff000000010094:	f9402ba0 	ldr	x0, [x29,#80]
ffff000000010098:	f9403ba1 	ldr	x1, [x29,#112]
ffff00000001009c:	f9004001 	str	x1, [x0,#128]
ffff0000000100a0:	1400002f 	b	ffff00000001015c <copy_process+0x3cc>
ffff0000000100a4:	f9402ba0 	ldr	x0, [x29,#80]
ffff0000000100a8:	f9403ba1 	ldr	x1, [x29,#112]
ffff0000000100ac:	f9004001 	str	x1, [x0,#128]
ffff0000000100b0:	f9403ba0 	ldr	x0, [x29,#112]
ffff0000000100b4:	f9402ba1 	ldr	x1, [x29,#80]
ffff0000000100b8:	f9003c01 	str	x1, [x0,#120]
ffff0000000100bc:	14000028 	b	ffff00000001015c <copy_process+0x3cc>
ffff0000000100c0:	f94017a0 	ldr	x0, [x29,#40]
ffff0000000100c4:	f100041f 	cmp	x0, #0x1
ffff0000000100c8:	54000080 	b.eq	ffff0000000100d8 <copy_process+0x348>
ffff0000000100cc:	f94017a0 	ldr	x0, [x29,#40]
ffff0000000100d0:	f100081f 	cmp	x0, #0x2
ffff0000000100d4:	540003e1 	b.ne	ffff000000010150 <copy_process+0x3c0>
ffff0000000100d8:	d0000000 	adrp	x0, ffff000000012000 <sys_call_table+0x1c8>
ffff0000000100dc:	913b6000 	add	x0, x0, #0xed8
ffff0000000100e0:	f9400400 	ldr	x0, [x0,#8]
ffff0000000100e4:	f9002ba0 	str	x0, [x29,#80]
ffff0000000100e8:	f9402ba0 	ldr	x0, [x29,#80]
ffff0000000100ec:	f9404000 	ldr	x0, [x0,#128]
ffff0000000100f0:	f100001f 	cmp	x0, #0x0
ffff0000000100f4:	54000200 	b.eq	ffff000000010134 <copy_process+0x3a4>
ffff0000000100f8:	f9402ba0 	ldr	x0, [x29,#80]
ffff0000000100fc:	f9404001 	ldr	x1, [x0,#128]
ffff000000010100:	f9403ba0 	ldr	x0, [x29,#112]
ffff000000010104:	f9004001 	str	x1, [x0,#128]
ffff000000010108:	f9403ba0 	ldr	x0, [x29,#112]
ffff00000001010c:	f9402ba1 	ldr	x1, [x29,#80]
ffff000000010110:	f9003c01 	str	x1, [x0,#120]
ffff000000010114:	f9402ba0 	ldr	x0, [x29,#80]
ffff000000010118:	f9404000 	ldr	x0, [x0,#128]
ffff00000001011c:	f9403ba1 	ldr	x1, [x29,#112]
ffff000000010120:	f9003c01 	str	x1, [x0,#120]
ffff000000010124:	f9402ba0 	ldr	x0, [x29,#80]
ffff000000010128:	f9403ba1 	ldr	x1, [x29,#112]
ffff00000001012c:	f9004001 	str	x1, [x0,#128]
ffff000000010130:	1400000b 	b	ffff00000001015c <copy_process+0x3cc>
ffff000000010134:	f9402ba0 	ldr	x0, [x29,#80]
ffff000000010138:	f9403ba1 	ldr	x1, [x29,#112]
ffff00000001013c:	f9004001 	str	x1, [x0,#128]
ffff000000010140:	f9403ba0 	ldr	x0, [x29,#112]
ffff000000010144:	f9402ba1 	ldr	x1, [x29,#80]
ffff000000010148:	f9003c01 	str	x1, [x0,#120]
ffff00000001014c:	14000004 	b	ffff00000001015c <copy_process+0x3cc>
ffff000000010150:	d0000000 	adrp	x0, ffff000000012000 <sys_call_table+0x1c8>
ffff000000010154:	912b2000 	add	x0, x0, #0xac8
ffff000000010158:	97ffd56c 	bl	ffff000000005708 <tfp_printf>
ffff00000001015c:	97ffcb9e 	bl	ffff000000002fd4 <preempt_enable>
ffff000000010160:	b9405fa0 	ldr	w0, [x29,#92]
ffff000000010164:	a8c97bfd 	ldp	x29, x30, [sp],#144
ffff000000010168:	d65f03c0 	ret

ffff00000001016c <move_to_user_mode>:
ffff00000001016c:	a9bb7bfd 	stp	x29, x30, [sp,#-80]!
ffff000000010170:	910003fd 	mov	x29, sp
ffff000000010174:	f90017a0 	str	x0, [x29,#40]
ffff000000010178:	f90013a1 	str	x1, [x29,#32]
ffff00000001017c:	f9000fa2 	str	x2, [x29,#24]
ffff000000010180:	d0000000 	adrp	x0, ffff000000012000 <sys_call_table+0x1c8>
ffff000000010184:	913b0000 	add	x0, x0, #0xec0
ffff000000010188:	f9400000 	ldr	x0, [x0]
ffff00000001018c:	f9400000 	ldr	x0, [x0]
ffff000000010190:	94000025 	bl	ffff000000010224 <task_pt_regs>
ffff000000010194:	f90027a0 	str	x0, [x29,#72]
ffff000000010198:	f94027a0 	ldr	x0, [x29,#72]
ffff00000001019c:	f900841f 	str	xzr, [x0,#264]
ffff0000000101a0:	f94027a0 	ldr	x0, [x29,#72]
ffff0000000101a4:	f9400fa1 	ldr	x1, [x29,#24]
ffff0000000101a8:	f9008001 	str	x1, [x0,#256]
ffff0000000101ac:	f94027a0 	ldr	x0, [x29,#72]
ffff0000000101b0:	d2820001 	mov	x1, #0x1000                	// #4096
ffff0000000101b4:	f9007c01 	str	x1, [x0,#248]
ffff0000000101b8:	d0000000 	adrp	x0, ffff000000012000 <sys_call_table+0x1c8>
ffff0000000101bc:	913b0000 	add	x0, x0, #0xec0
ffff0000000101c0:	f9400000 	ldr	x0, [x0]
ffff0000000101c4:	f9400000 	ldr	x0, [x0]
ffff0000000101c8:	d2800001 	mov	x1, #0x0                   	// #0
ffff0000000101cc:	97ffcf9b 	bl	ffff000000004038 <allocate_user_page>
ffff0000000101d0:	f90023a0 	str	x0, [x29,#64]
ffff0000000101d4:	f94023a0 	ldr	x0, [x29,#64]
ffff0000000101d8:	f100001f 	cmp	x0, #0x0
ffff0000000101dc:	54000061 	b.ne	ffff0000000101e8 <move_to_user_mode+0x7c>
ffff0000000101e0:	92800000 	mov	x0, #0xffffffffffffffff    	// #-1
ffff0000000101e4:	1400000e 	b	ffff00000001021c <move_to_user_mode+0xb0>
ffff0000000101e8:	f94013a2 	ldr	x2, [x29,#32]
ffff0000000101ec:	f94023a1 	ldr	x1, [x29,#64]
ffff0000000101f0:	f94017a0 	ldr	x0, [x29,#40]
ffff0000000101f4:	9400015a 	bl	ffff00000001075c <memcpy>
ffff0000000101f8:	d0000000 	adrp	x0, ffff000000012000 <sys_call_table+0x1c8>
ffff0000000101fc:	913b0000 	add	x0, x0, #0xec0
ffff000000010200:	f9400000 	ldr	x0, [x0]
ffff000000010204:	f9400000 	ldr	x0, [x0]
ffff000000010208:	f9001fa0 	str	x0, [x29,#56]
ffff00000001020c:	f9401fa0 	ldr	x0, [x29,#56]
ffff000000010210:	f9404800 	ldr	x0, [x0,#144]
ffff000000010214:	940005d3 	bl	ffff000000011960 <set_pgd>
ffff000000010218:	f94023a0 	ldr	x0, [x29,#64]
ffff00000001021c:	a8c57bfd 	ldp	x29, x30, [sp],#80
ffff000000010220:	d65f03c0 	ret

ffff000000010224 <task_pt_regs>:
ffff000000010224:	d10083ff 	sub	sp, sp, #0x20
ffff000000010228:	f90007e0 	str	x0, [sp,#8]
ffff00000001022c:	f94007e0 	ldr	x0, [sp,#8]
ffff000000010230:	913bc000 	add	x0, x0, #0xef0
ffff000000010234:	f9000fe0 	str	x0, [sp,#24]
ffff000000010238:	f9400fe0 	ldr	x0, [sp,#24]
ffff00000001023c:	910083ff 	add	sp, sp, #0x20
ffff000000010240:	d65f03c0 	ret

ffff000000010244 <cd>:
ffff000000010244:	a9bb7bfd 	stp	x29, x30, [sp,#-80]!
ffff000000010248:	910003fd 	mov	x29, sp
ffff00000001024c:	f9000fa0 	str	x0, [x29,#24]
ffff000000010250:	52800080 	mov	w0, #0x4                   	// #4
ffff000000010254:	b9004fa0 	str	w0, [x29,#76]
ffff000000010258:	b9004bbf 	str	wzr, [x29,#72]
ffff00000001025c:	f0000000 	adrp	x0, ffff000000013000 <sdCommandTable+0x110>
ffff000000010260:	910b0000 	add	x0, x0, #0x2c0
ffff000000010264:	b9400000 	ldr	w0, [x0]
ffff000000010268:	3100041f 	cmn	w0, #0x1
ffff00000001026c:	54000a81 	b.ne	ffff0000000103bc <cd+0x178>
ffff000000010270:	b90047bf 	str	wzr, [x29,#68]
ffff000000010274:	1400004d 	b	ffff0000000103a8 <cd+0x164>
ffff000000010278:	b98047a1 	ldrsw	x1, [x29,#68]
ffff00000001027c:	d2800160 	mov	x0, #0xb                   	// #11
ffff000000010280:	9b007c21 	mul	x1, x1, x0
ffff000000010284:	f0000440 	adrp	x0, ffff00000009b000 <thread_id_table+0x75d0>
ffff000000010288:	9128c000 	add	x0, x0, #0xa30
ffff00000001028c:	8b000020 	add	x0, x1, x0
ffff000000010290:	aa0003e1 	mov	x1, x0
ffff000000010294:	f9400fa0 	ldr	x0, [x29,#24]
ffff000000010298:	97ffd587 	bl	ffff0000000058b4 <strcmp>
ffff00000001029c:	7100001f 	cmp	w0, #0x0
ffff0000000102a0:	540007e1 	b.ne	ffff00000001039c <cd+0x158>
ffff0000000102a4:	f0000440 	adrp	x0, ffff00000009b000 <thread_id_table+0x75d0>
ffff0000000102a8:	91298001 	add	x1, x0, #0xa60
ffff0000000102ac:	b98047a2 	ldrsw	x2, [x29,#68]
ffff0000000102b0:	d2800a80 	mov	x0, #0x54                  	// #84
ffff0000000102b4:	9b007c40 	mul	x0, x2, x0
ffff0000000102b8:	8b000020 	add	x0, x1, x0
ffff0000000102bc:	91002000 	add	x0, x0, #0x8
ffff0000000102c0:	b9400000 	ldr	w0, [x0]
ffff0000000102c4:	97ffc954 	bl	ffff000000002814 <fs_type_support>
ffff0000000102c8:	f9001fa0 	str	x0, [x29,#56]
ffff0000000102cc:	f9401fa0 	ldr	x0, [x29,#56]
ffff0000000102d0:	f100001f 	cmp	x0, #0x0
ffff0000000102d4:	54000600 	b.eq	ffff000000010394 <cd+0x150>
ffff0000000102d8:	b98047a1 	ldrsw	x1, [x29,#68]
ffff0000000102dc:	d2800a80 	mov	x0, #0x54                  	// #84
ffff0000000102e0:	9b007c21 	mul	x1, x1, x0
ffff0000000102e4:	f0000440 	adrp	x0, ffff00000009b000 <thread_id_table+0x75d0>
ffff0000000102e8:	91298000 	add	x0, x0, #0xa60
ffff0000000102ec:	8b000020 	add	x0, x1, x0
ffff0000000102f0:	f9001ba0 	str	x0, [x29,#48]
ffff0000000102f4:	90ffff80 	adrp	x0, ffff000000000000 <_start>
ffff0000000102f8:	91000001 	add	x1, x0, #0x0
ffff0000000102fc:	f9401fa0 	ldr	x0, [x29,#56]
ffff000000010300:	b9400400 	ldr	w0, [x0,#4]
ffff000000010304:	90ffff82 	adrp	x2, ffff000000000000 <_start>
ffff000000010308:	91000042 	add	x2, x2, #0x0
ffff00000001030c:	4b020000 	sub	w0, w0, w2
ffff000000010310:	2a0003e0 	mov	w0, w0
ffff000000010314:	8b000020 	add	x0, x1, x0
ffff000000010318:	f9401ba1 	ldr	x1, [x29,#48]
ffff00000001031c:	940005b0 	bl	ffff0000000119dc <bl_init>
ffff000000010320:	97ffca76 	bl	ffff000000002cf8 <build_root>
ffff000000010324:	97ffca7d 	bl	ffff000000002d18 <search_file>
ffff000000010328:	1400000f 	b	ffff000000010364 <cd+0x120>
ffff00000001032c:	b9404fa1 	ldr	w1, [x29,#76]
ffff000000010330:	b9404ba0 	ldr	w0, [x29,#72]
ffff000000010334:	0b000023 	add	w3, w1, w0
ffff000000010338:	b9804ba0 	ldrsw	x0, [x29,#72]
ffff00000001033c:	f9400fa1 	ldr	x1, [x29,#24]
ffff000000010340:	8b000020 	add	x0, x1, x0
ffff000000010344:	39400002 	ldrb	w2, [x0]
ffff000000010348:	f0000000 	adrp	x0, ffff000000013000 <sdCommandTable+0x110>
ffff00000001034c:	910a8001 	add	x1, x0, #0x2a0
ffff000000010350:	93407c60 	sxtw	x0, w3
ffff000000010354:	38206822 	strb	w2, [x1,x0]
ffff000000010358:	b9404ba0 	ldr	w0, [x29,#72]
ffff00000001035c:	11000400 	add	w0, w0, #0x1
ffff000000010360:	b9004ba0 	str	w0, [x29,#72]
ffff000000010364:	b9804ba0 	ldrsw	x0, [x29,#72]
ffff000000010368:	f9400fa1 	ldr	x1, [x29,#24]
ffff00000001036c:	8b000020 	add	x0, x1, x0
ffff000000010370:	39400000 	ldrb	w0, [x0]
ffff000000010374:	7100001f 	cmp	w0, #0x0
ffff000000010378:	54fffda1 	b.ne	ffff00000001032c <cd+0xe8>
ffff00000001037c:	f0000000 	adrp	x0, ffff000000013000 <sdCommandTable+0x110>
ffff000000010380:	910b0000 	add	x0, x0, #0x2c0
ffff000000010384:	b94047a1 	ldr	w1, [x29,#68]
ffff000000010388:	b9000001 	str	w1, [x0]
ffff00000001038c:	52800020 	mov	w0, #0x1                   	// #1
ffff000000010390:	14000095 	b	ffff0000000105e4 <cd+0x3a0>
ffff000000010394:	52800000 	mov	w0, #0x0                   	// #0
ffff000000010398:	14000093 	b	ffff0000000105e4 <cd+0x3a0>
ffff00000001039c:	b94047a0 	ldr	w0, [x29,#68]
ffff0000000103a0:	11000400 	add	w0, w0, #0x1
ffff0000000103a4:	b90047a0 	str	w0, [x29,#68]
ffff0000000103a8:	b94047a0 	ldr	w0, [x29,#68]
ffff0000000103ac:	71000c1f 	cmp	w0, #0x3
ffff0000000103b0:	54fff64d 	b.le	ffff000000010278 <cd+0x34>
ffff0000000103b4:	52800000 	mov	w0, #0x0                   	// #0
ffff0000000103b8:	1400008b 	b	ffff0000000105e4 <cd+0x3a0>
ffff0000000103bc:	b9002fbf 	str	wzr, [x29,#44]
ffff0000000103c0:	b9002bbf 	str	wzr, [x29,#40]
ffff0000000103c4:	f0000000 	adrp	x0, ffff000000013000 <sdCommandTable+0x110>
ffff0000000103c8:	910b0000 	add	x0, x0, #0x2c0
ffff0000000103cc:	b9400002 	ldr	w2, [x0]
ffff0000000103d0:	f0000440 	adrp	x0, ffff00000009b000 <thread_id_table+0x75d0>
ffff0000000103d4:	91298001 	add	x1, x0, #0xa60
ffff0000000103d8:	93407c42 	sxtw	x2, w2
ffff0000000103dc:	d2800a80 	mov	x0, #0x54                  	// #84
ffff0000000103e0:	9b007c40 	mul	x0, x2, x0
ffff0000000103e4:	8b000020 	add	x0, x1, x0
ffff0000000103e8:	91002000 	add	x0, x0, #0x8
ffff0000000103ec:	b9400000 	ldr	w0, [x0]
ffff0000000103f0:	97ffc909 	bl	ffff000000002814 <fs_type_support>
ffff0000000103f4:	f9001fa0 	str	x0, [x29,#56]
ffff0000000103f8:	f9401fa0 	ldr	x0, [x29,#56]
ffff0000000103fc:	f100001f 	cmp	x0, #0x0
ffff000000010400:	54000d40 	b.eq	ffff0000000105a8 <cd+0x364>
ffff000000010404:	f0000000 	adrp	x0, ffff000000013000 <sdCommandTable+0x110>
ffff000000010408:	910b0000 	add	x0, x0, #0x2c0
ffff00000001040c:	b9400000 	ldr	w0, [x0]
ffff000000010410:	93407c01 	sxtw	x1, w0
ffff000000010414:	d2800a80 	mov	x0, #0x54                  	// #84
ffff000000010418:	9b007c21 	mul	x1, x1, x0
ffff00000001041c:	f0000440 	adrp	x0, ffff00000009b000 <thread_id_table+0x75d0>
ffff000000010420:	91298000 	add	x0, x0, #0xa60
ffff000000010424:	8b000020 	add	x0, x1, x0
ffff000000010428:	f9001ba0 	str	x0, [x29,#48]
ffff00000001042c:	90ffff80 	adrp	x0, ffff000000000000 <_start>
ffff000000010430:	91000001 	add	x1, x0, #0x0
ffff000000010434:	f9401fa0 	ldr	x0, [x29,#56]
ffff000000010438:	b9400800 	ldr	w0, [x0,#8]
ffff00000001043c:	90ffff82 	adrp	x2, ffff000000000000 <_start>
ffff000000010440:	91000042 	add	x2, x2, #0x0
ffff000000010444:	4b020000 	sub	w0, w0, w2
ffff000000010448:	2a0003e0 	mov	w0, w0
ffff00000001044c:	8b000020 	add	x0, x1, x0
ffff000000010450:	f9401ba2 	ldr	x2, [x29,#48]
ffff000000010454:	f9400fa1 	ldr	x1, [x29,#24]
ffff000000010458:	94000561 	bl	ffff0000000119dc <bl_init>
ffff00000001045c:	b9002fa0 	str	w0, [x29,#44]
ffff000000010460:	b9402fa0 	ldr	w0, [x29,#44]
ffff000000010464:	7100001f 	cmp	w0, #0x0
ffff000000010468:	540000c1 	b.ne	ffff000000010480 <cd+0x23c>
ffff00000001046c:	d0000000 	adrp	x0, ffff000000012000 <sys_call_table+0x1c8>
ffff000000010470:	912b8000 	add	x0, x0, #0xae0
ffff000000010474:	97ffd4a5 	bl	ffff000000005708 <tfp_printf>
ffff000000010478:	52800000 	mov	w0, #0x0                   	// #0
ffff00000001047c:	1400005a 	b	ffff0000000105e4 <cd+0x3a0>
ffff000000010480:	b9004fbf 	str	wzr, [x29,#76]
ffff000000010484:	b9004bbf 	str	wzr, [x29,#72]
ffff000000010488:	90ffff80 	adrp	x0, ffff000000000000 <_start>
ffff00000001048c:	91000001 	add	x1, x0, #0x0
ffff000000010490:	f9401fa0 	ldr	x0, [x29,#56]
ffff000000010494:	b9400c00 	ldr	w0, [x0,#12]
ffff000000010498:	90ffff82 	adrp	x2, ffff000000000000 <_start>
ffff00000001049c:	91000042 	add	x2, x2, #0x0
ffff0000000104a0:	4b020000 	sub	w0, w0, w2
ffff0000000104a4:	2a0003e0 	mov	w0, w0
ffff0000000104a8:	8b000020 	add	x0, x1, x0
ffff0000000104ac:	b9402fa1 	ldr	w1, [x29,#44]
ffff0000000104b0:	f9401ba2 	ldr	x2, [x29,#48]
ffff0000000104b4:	9400054a 	bl	ffff0000000119dc <bl_init>
ffff0000000104b8:	b9002ba0 	str	w0, [x29,#40]
ffff0000000104bc:	d0000480 	adrp	x0, ffff0000000a2000 <_end>
ffff0000000104c0:	91000000 	add	x0, x0, #0x0
ffff0000000104c4:	2a0003e1 	mov	w1, w0
ffff0000000104c8:	b9402ba0 	ldr	w0, [x29,#40]
ffff0000000104cc:	4b010000 	sub	w0, w0, w1
ffff0000000104d0:	2a0003e1 	mov	w1, w0
ffff0000000104d4:	d0000480 	adrp	x0, ffff0000000a2000 <_end>
ffff0000000104d8:	91000000 	add	x0, x0, #0x0
ffff0000000104dc:	8b000020 	add	x0, x1, x0
ffff0000000104e0:	97ffc8c4 	bl	ffff0000000027f0 <fat_listdirectory>
ffff0000000104e4:	97ffca05 	bl	ffff000000002cf8 <build_root>
ffff0000000104e8:	97ffca0c 	bl	ffff000000002d18 <search_file>
ffff0000000104ec:	14000004 	b	ffff0000000104fc <cd+0x2b8>
ffff0000000104f0:	b9404fa0 	ldr	w0, [x29,#76]
ffff0000000104f4:	11000400 	add	w0, w0, #0x1
ffff0000000104f8:	b9004fa0 	str	w0, [x29,#76]
ffff0000000104fc:	f0000000 	adrp	x0, ffff000000013000 <sdCommandTable+0x110>
ffff000000010500:	910a8001 	add	x1, x0, #0x2a0
ffff000000010504:	b9804fa0 	ldrsw	x0, [x29,#76]
ffff000000010508:	38606820 	ldrb	w0, [x1,x0]
ffff00000001050c:	7100001f 	cmp	w0, #0x0
ffff000000010510:	540000e0 	b.eq	ffff00000001052c <cd+0x2e8>
ffff000000010514:	f0000000 	adrp	x0, ffff000000013000 <sdCommandTable+0x110>
ffff000000010518:	910a8001 	add	x1, x0, #0x2a0
ffff00000001051c:	b9804fa0 	ldrsw	x0, [x29,#76]
ffff000000010520:	38606820 	ldrb	w0, [x1,x0]
ffff000000010524:	7100201f 	cmp	w0, #0x8
ffff000000010528:	54fffe41 	b.ne	ffff0000000104f0 <cd+0x2ac>
ffff00000001052c:	b9404fa0 	ldr	w0, [x29,#76]
ffff000000010530:	11000401 	add	w1, w0, #0x1
ffff000000010534:	b9004fa1 	str	w1, [x29,#76]
ffff000000010538:	f0000001 	adrp	x1, ffff000000013000 <sdCommandTable+0x110>
ffff00000001053c:	910a8021 	add	x1, x1, #0x2a0
ffff000000010540:	93407c00 	sxtw	x0, w0
ffff000000010544:	528005e2 	mov	w2, #0x2f                  	// #47
ffff000000010548:	38206822 	strb	w2, [x1,x0]
ffff00000001054c:	1400000f 	b	ffff000000010588 <cd+0x344>
ffff000000010550:	b9404fa1 	ldr	w1, [x29,#76]
ffff000000010554:	b9404ba0 	ldr	w0, [x29,#72]
ffff000000010558:	0b000023 	add	w3, w1, w0
ffff00000001055c:	b9804ba0 	ldrsw	x0, [x29,#72]
ffff000000010560:	f9400fa1 	ldr	x1, [x29,#24]
ffff000000010564:	8b000020 	add	x0, x1, x0
ffff000000010568:	39400002 	ldrb	w2, [x0]
ffff00000001056c:	f0000000 	adrp	x0, ffff000000013000 <sdCommandTable+0x110>
ffff000000010570:	910a8001 	add	x1, x0, #0x2a0
ffff000000010574:	93407c60 	sxtw	x0, w3
ffff000000010578:	38206822 	strb	w2, [x1,x0]
ffff00000001057c:	b9404ba0 	ldr	w0, [x29,#72]
ffff000000010580:	11000400 	add	w0, w0, #0x1
ffff000000010584:	b9004ba0 	str	w0, [x29,#72]
ffff000000010588:	b9804ba0 	ldrsw	x0, [x29,#72]
ffff00000001058c:	f9400fa1 	ldr	x1, [x29,#24]
ffff000000010590:	8b000020 	add	x0, x1, x0
ffff000000010594:	39400000 	ldrb	w0, [x0]
ffff000000010598:	7100001f 	cmp	w0, #0x0
ffff00000001059c:	54fffda1 	b.ne	ffff000000010550 <cd+0x30c>
ffff0000000105a0:	52800020 	mov	w0, #0x1                   	// #1
ffff0000000105a4:	14000010 	b	ffff0000000105e4 <cd+0x3a0>
ffff0000000105a8:	f0000000 	adrp	x0, ffff000000013000 <sdCommandTable+0x110>
ffff0000000105ac:	910b0000 	add	x0, x0, #0x2c0
ffff0000000105b0:	b9400002 	ldr	w2, [x0]
ffff0000000105b4:	f0000440 	adrp	x0, ffff00000009b000 <thread_id_table+0x75d0>
ffff0000000105b8:	91298001 	add	x1, x0, #0xa60
ffff0000000105bc:	93407c42 	sxtw	x2, w2
ffff0000000105c0:	d2800a80 	mov	x0, #0x54                  	// #84
ffff0000000105c4:	9b007c40 	mul	x0, x2, x0
ffff0000000105c8:	8b000020 	add	x0, x1, x0
ffff0000000105cc:	91002000 	add	x0, x0, #0x8
ffff0000000105d0:	b9400001 	ldr	w1, [x0]
ffff0000000105d4:	d0000000 	adrp	x0, ffff000000012000 <sys_call_table+0x1c8>
ffff0000000105d8:	912be000 	add	x0, x0, #0xaf8
ffff0000000105dc:	97ffd44b 	bl	ffff000000005708 <tfp_printf>
ffff0000000105e0:	52800000 	mov	w0, #0x0                   	// #0
ffff0000000105e4:	a8c57bfd 	ldp	x29, x30, [sp],#80
ffff0000000105e8:	d65f03c0 	ret

ffff0000000105ec <cd_root>:
ffff0000000105ec:	a9be7bfd 	stp	x29, x30, [sp,#-32]!
ffff0000000105f0:	910003fd 	mov	x29, sp
ffff0000000105f4:	f0000440 	adrp	x0, ffff00000009b000 <thread_id_table+0x75d0>
ffff0000000105f8:	912ec000 	add	x0, x0, #0xbb0
ffff0000000105fc:	d2804601 	mov	x1, #0x230                 	// #560
ffff000000010600:	94000066 	bl	ffff000000010798 <memzero>
ffff000000010604:	b9001fbf 	str	wzr, [x29,#28]
ffff000000010608:	1400001d 	b	ffff00000001067c <cd_root+0x90>
ffff00000001060c:	b9801fa1 	ldrsw	x1, [x29,#28]
ffff000000010610:	d2800160 	mov	x0, #0xb                   	// #11
ffff000000010614:	9b007c21 	mul	x1, x1, x0
ffff000000010618:	f0000440 	adrp	x0, ffff00000009b000 <thread_id_table+0x75d0>
ffff00000001061c:	9128c000 	add	x0, x0, #0xa30
ffff000000010620:	8b000023 	add	x3, x1, x0
ffff000000010624:	b9801fa1 	ldrsw	x1, [x29,#28]
ffff000000010628:	d2800380 	mov	x0, #0x1c                  	// #28
ffff00000001062c:	9b007c21 	mul	x1, x1, x0
ffff000000010630:	f0000440 	adrp	x0, ffff00000009b000 <thread_id_table+0x75d0>
ffff000000010634:	912ec000 	add	x0, x0, #0xbb0
ffff000000010638:	8b000020 	add	x0, x1, x0
ffff00000001063c:	52800102 	mov	w2, #0x8                   	// #8
ffff000000010640:	aa0003e1 	mov	x1, x0
ffff000000010644:	aa0303e0 	mov	x0, x3
ffff000000010648:	94000045 	bl	ffff00000001075c <memcpy>
ffff00000001064c:	f0000440 	adrp	x0, ffff00000009b000 <thread_id_table+0x75d0>
ffff000000010650:	912ec001 	add	x1, x0, #0xbb0
ffff000000010654:	b9801fa2 	ldrsw	x2, [x29,#28]
ffff000000010658:	d2800380 	mov	x0, #0x1c                  	// #28
ffff00000001065c:	9b007c40 	mul	x0, x2, x0
ffff000000010660:	8b000020 	add	x0, x1, x0
ffff000000010664:	91002c00 	add	x0, x0, #0xb
ffff000000010668:	52800201 	mov	w1, #0x10                  	// #16
ffff00000001066c:	39000001 	strb	w1, [x0]
ffff000000010670:	b9401fa0 	ldr	w0, [x29,#28]
ffff000000010674:	11000400 	add	w0, w0, #0x1
ffff000000010678:	b9001fa0 	str	w0, [x29,#28]
ffff00000001067c:	b9401fa0 	ldr	w0, [x29,#28]
ffff000000010680:	71000c1f 	cmp	w0, #0x3
ffff000000010684:	5400014c 	b.gt	ffff0000000106ac <cd_root+0xc0>
ffff000000010688:	f0000440 	adrp	x0, ffff00000009b000 <thread_id_table+0x75d0>
ffff00000001068c:	9128c001 	add	x1, x0, #0xa30
ffff000000010690:	b9801fa2 	ldrsw	x2, [x29,#28]
ffff000000010694:	d2800160 	mov	x0, #0xb                   	// #11
ffff000000010698:	9b007c40 	mul	x0, x2, x0
ffff00000001069c:	8b000020 	add	x0, x1, x0
ffff0000000106a0:	39400000 	ldrb	w0, [x0]
ffff0000000106a4:	7100201f 	cmp	w0, #0x8
ffff0000000106a8:	54fffb21 	b.ne	ffff00000001060c <cd_root+0x20>
ffff0000000106ac:	f0000000 	adrp	x0, ffff000000013000 <sdCommandTable+0x110>
ffff0000000106b0:	910a8000 	add	x0, x0, #0x2a0
ffff0000000106b4:	528003c1 	mov	w1, #0x1e                  	// #30
ffff0000000106b8:	94000038 	bl	ffff000000010798 <memzero>
ffff0000000106bc:	f0000000 	adrp	x0, ffff000000013000 <sdCommandTable+0x110>
ffff0000000106c0:	910a8001 	add	x1, x0, #0x2a0
ffff0000000106c4:	d0000000 	adrp	x0, ffff000000012000 <sys_call_table+0x1c8>
ffff0000000106c8:	912c8000 	add	x0, x0, #0xb20
ffff0000000106cc:	52800082 	mov	w2, #0x4                   	// #4
ffff0000000106d0:	94000023 	bl	ffff00000001075c <memcpy>
ffff0000000106d4:	f0000000 	adrp	x0, ffff000000013000 <sdCommandTable+0x110>
ffff0000000106d8:	910b0000 	add	x0, x0, #0x2c0
ffff0000000106dc:	12800001 	mov	w1, #0xffffffff            	// #-1
ffff0000000106e0:	b9000001 	str	w1, [x0]
ffff0000000106e4:	d503201f 	nop
ffff0000000106e8:	a8c27bfd 	ldp	x29, x30, [sp],#32
ffff0000000106ec:	d65f03c0 	ret

ffff0000000106f0 <irq_vector_init>:
ffff0000000106f0:	10000880 	adr	x0, ffff000000010800 <vectors>
ffff0000000106f4:	d518c000 	msr	vbar_el1, x0
ffff0000000106f8:	d65f03c0 	ret

ffff0000000106fc <enable_irq>:
ffff0000000106fc:	d50342ff 	msr	daifclr, #0x2
ffff000000010700:	d65f03c0 	ret

ffff000000010704 <disable_irq>:
ffff000000010704:	d50342df 	msr	daifset, #0x2
ffff000000010708:	d65f03c0 	ret

ffff00000001070c <cpu_switch_to>:
ffff00000001070c:	d280000a 	mov	x10, #0x0                   	// #0
ffff000000010710:	8b0a0008 	add	x8, x0, x10
ffff000000010714:	910003e9 	mov	x9, sp
ffff000000010718:	a8815113 	stp	x19, x20, [x8],#16
ffff00000001071c:	a8815915 	stp	x21, x22, [x8],#16
ffff000000010720:	a8816117 	stp	x23, x24, [x8],#16
ffff000000010724:	a8816919 	stp	x25, x26, [x8],#16
ffff000000010728:	a881711b 	stp	x27, x28, [x8],#16
ffff00000001072c:	a881251d 	stp	x29, x9, [x8],#16
ffff000000010730:	f900011e 	str	x30, [x8]
ffff000000010734:	8b0a0028 	add	x8, x1, x10
ffff000000010738:	a8c15113 	ldp	x19, x20, [x8],#16
ffff00000001073c:	a8c15915 	ldp	x21, x22, [x8],#16
ffff000000010740:	a8c16117 	ldp	x23, x24, [x8],#16
ffff000000010744:	a8c16919 	ldp	x25, x26, [x8],#16
ffff000000010748:	a8c1711b 	ldp	x27, x28, [x8],#16
ffff00000001074c:	a8c1251d 	ldp	x29, x9, [x8],#16
ffff000000010750:	f940011e 	ldr	x30, [x8]
ffff000000010754:	9100013f 	mov	sp, x9
ffff000000010758:	d65f03c0 	ret

ffff00000001075c <memcpy>:
ffff00000001075c:	f8408403 	ldr	x3, [x0],#8
ffff000000010760:	f8008423 	str	x3, [x1],#8
ffff000000010764:	f1002042 	subs	x2, x2, #0x8
ffff000000010768:	54ffffac 	b.gt	ffff00000001075c <memcpy>
ffff00000001076c:	d65f03c0 	ret

ffff000000010770 <memcmp>:
ffff000000010770:	f8408403 	ldr	x3, [x0],#8
ffff000000010774:	f8408424 	ldr	x4, [x1],#8
ffff000000010778:	eb04007f 	cmp	x3, x4
ffff00000001077c:	540000a1 	b.ne	ffff000000010790 <back>
ffff000000010780:	f1002042 	subs	x2, x2, #0x8
ffff000000010784:	54ffff6c 	b.gt	ffff000000010770 <memcmp>
ffff000000010788:	d2800000 	mov	x0, #0x0                   	// #0
ffff00000001078c:	d65f03c0 	ret

ffff000000010790 <back>:
ffff000000010790:	d2800020 	mov	x0, #0x1                   	// #1
ffff000000010794:	d65f03c0 	ret

ffff000000010798 <memzero>:
ffff000000010798:	f800841f 	str	xzr, [x0],#8
ffff00000001079c:	f1002021 	subs	x1, x1, #0x8
ffff0000000107a0:	54ffffcc 	b.gt	ffff000000010798 <memzero>
ffff0000000107a4:	d65f03c0 	ret
	...

ffff000000010800 <vectors>:
ffff000000010800:	140001e1 	b	ffff000000010f84 <sync_invalid_el1t>
ffff000000010804:	d503201f 	nop
ffff000000010808:	d503201f 	nop
ffff00000001080c:	d503201f 	nop
ffff000000010810:	d503201f 	nop
ffff000000010814:	d503201f 	nop
ffff000000010818:	d503201f 	nop
ffff00000001081c:	d503201f 	nop
ffff000000010820:	d503201f 	nop
ffff000000010824:	d503201f 	nop
ffff000000010828:	d503201f 	nop
ffff00000001082c:	d503201f 	nop
ffff000000010830:	d503201f 	nop
ffff000000010834:	d503201f 	nop
ffff000000010838:	d503201f 	nop
ffff00000001083c:	d503201f 	nop
ffff000000010840:	d503201f 	nop
ffff000000010844:	d503201f 	nop
ffff000000010848:	d503201f 	nop
ffff00000001084c:	d503201f 	nop
ffff000000010850:	d503201f 	nop
ffff000000010854:	d503201f 	nop
ffff000000010858:	d503201f 	nop
ffff00000001085c:	d503201f 	nop
ffff000000010860:	d503201f 	nop
ffff000000010864:	d503201f 	nop
ffff000000010868:	d503201f 	nop
ffff00000001086c:	d503201f 	nop
ffff000000010870:	d503201f 	nop
ffff000000010874:	d503201f 	nop
ffff000000010878:	d503201f 	nop
ffff00000001087c:	d503201f 	nop
ffff000000010880:	140001db 	b	ffff000000010fec <irq_invalid_el1t>
ffff000000010884:	d503201f 	nop
ffff000000010888:	d503201f 	nop
ffff00000001088c:	d503201f 	nop
ffff000000010890:	d503201f 	nop
ffff000000010894:	d503201f 	nop
ffff000000010898:	d503201f 	nop
ffff00000001089c:	d503201f 	nop
ffff0000000108a0:	d503201f 	nop
ffff0000000108a4:	d503201f 	nop
ffff0000000108a8:	d503201f 	nop
ffff0000000108ac:	d503201f 	nop
ffff0000000108b0:	d503201f 	nop
ffff0000000108b4:	d503201f 	nop
ffff0000000108b8:	d503201f 	nop
ffff0000000108bc:	d503201f 	nop
ffff0000000108c0:	d503201f 	nop
ffff0000000108c4:	d503201f 	nop
ffff0000000108c8:	d503201f 	nop
ffff0000000108cc:	d503201f 	nop
ffff0000000108d0:	d503201f 	nop
ffff0000000108d4:	d503201f 	nop
ffff0000000108d8:	d503201f 	nop
ffff0000000108dc:	d503201f 	nop
ffff0000000108e0:	d503201f 	nop
ffff0000000108e4:	d503201f 	nop
ffff0000000108e8:	d503201f 	nop
ffff0000000108ec:	d503201f 	nop
ffff0000000108f0:	d503201f 	nop
ffff0000000108f4:	d503201f 	nop
ffff0000000108f8:	d503201f 	nop
ffff0000000108fc:	d503201f 	nop
ffff000000010900:	140001d5 	b	ffff000000011054 <fiq_invalid_el1t>
ffff000000010904:	d503201f 	nop
ffff000000010908:	d503201f 	nop
ffff00000001090c:	d503201f 	nop
ffff000000010910:	d503201f 	nop
ffff000000010914:	d503201f 	nop
ffff000000010918:	d503201f 	nop
ffff00000001091c:	d503201f 	nop
ffff000000010920:	d503201f 	nop
ffff000000010924:	d503201f 	nop
ffff000000010928:	d503201f 	nop
ffff00000001092c:	d503201f 	nop
ffff000000010930:	d503201f 	nop
ffff000000010934:	d503201f 	nop
ffff000000010938:	d503201f 	nop
ffff00000001093c:	d503201f 	nop
ffff000000010940:	d503201f 	nop
ffff000000010944:	d503201f 	nop
ffff000000010948:	d503201f 	nop
ffff00000001094c:	d503201f 	nop
ffff000000010950:	d503201f 	nop
ffff000000010954:	d503201f 	nop
ffff000000010958:	d503201f 	nop
ffff00000001095c:	d503201f 	nop
ffff000000010960:	d503201f 	nop
ffff000000010964:	d503201f 	nop
ffff000000010968:	d503201f 	nop
ffff00000001096c:	d503201f 	nop
ffff000000010970:	d503201f 	nop
ffff000000010974:	d503201f 	nop
ffff000000010978:	d503201f 	nop
ffff00000001097c:	d503201f 	nop
ffff000000010980:	140001cf 	b	ffff0000000110bc <error_invalid_el1t>
ffff000000010984:	d503201f 	nop
ffff000000010988:	d503201f 	nop
ffff00000001098c:	d503201f 	nop
ffff000000010990:	d503201f 	nop
ffff000000010994:	d503201f 	nop
ffff000000010998:	d503201f 	nop
ffff00000001099c:	d503201f 	nop
ffff0000000109a0:	d503201f 	nop
ffff0000000109a4:	d503201f 	nop
ffff0000000109a8:	d503201f 	nop
ffff0000000109ac:	d503201f 	nop
ffff0000000109b0:	d503201f 	nop
ffff0000000109b4:	d503201f 	nop
ffff0000000109b8:	d503201f 	nop
ffff0000000109bc:	d503201f 	nop
ffff0000000109c0:	d503201f 	nop
ffff0000000109c4:	d503201f 	nop
ffff0000000109c8:	d503201f 	nop
ffff0000000109cc:	d503201f 	nop
ffff0000000109d0:	d503201f 	nop
ffff0000000109d4:	d503201f 	nop
ffff0000000109d8:	d503201f 	nop
ffff0000000109dc:	d503201f 	nop
ffff0000000109e0:	d503201f 	nop
ffff0000000109e4:	d503201f 	nop
ffff0000000109e8:	d503201f 	nop
ffff0000000109ec:	d503201f 	nop
ffff0000000109f0:	d503201f 	nop
ffff0000000109f4:	d503201f 	nop
ffff0000000109f8:	d503201f 	nop
ffff0000000109fc:	d503201f 	nop
ffff000000010a00:	140001c9 	b	ffff000000011124 <sync_invalid_el1h>
ffff000000010a04:	d503201f 	nop
ffff000000010a08:	d503201f 	nop
ffff000000010a0c:	d503201f 	nop
ffff000000010a10:	d503201f 	nop
ffff000000010a14:	d503201f 	nop
ffff000000010a18:	d503201f 	nop
ffff000000010a1c:	d503201f 	nop
ffff000000010a20:	d503201f 	nop
ffff000000010a24:	d503201f 	nop
ffff000000010a28:	d503201f 	nop
ffff000000010a2c:	d503201f 	nop
ffff000000010a30:	d503201f 	nop
ffff000000010a34:	d503201f 	nop
ffff000000010a38:	d503201f 	nop
ffff000000010a3c:	d503201f 	nop
ffff000000010a40:	d503201f 	nop
ffff000000010a44:	d503201f 	nop
ffff000000010a48:	d503201f 	nop
ffff000000010a4c:	d503201f 	nop
ffff000000010a50:	d503201f 	nop
ffff000000010a54:	d503201f 	nop
ffff000000010a58:	d503201f 	nop
ffff000000010a5c:	d503201f 	nop
ffff000000010a60:	d503201f 	nop
ffff000000010a64:	d503201f 	nop
ffff000000010a68:	d503201f 	nop
ffff000000010a6c:	d503201f 	nop
ffff000000010a70:	d503201f 	nop
ffff000000010a74:	d503201f 	nop
ffff000000010a78:	d503201f 	nop
ffff000000010a7c:	d503201f 	nop
ffff000000010a80:	14000293 	b	ffff0000000114cc <el1_irq>
ffff000000010a84:	d503201f 	nop
ffff000000010a88:	d503201f 	nop
ffff000000010a8c:	d503201f 	nop
ffff000000010a90:	d503201f 	nop
ffff000000010a94:	d503201f 	nop
ffff000000010a98:	d503201f 	nop
ffff000000010a9c:	d503201f 	nop
ffff000000010aa0:	d503201f 	nop
ffff000000010aa4:	d503201f 	nop
ffff000000010aa8:	d503201f 	nop
ffff000000010aac:	d503201f 	nop
ffff000000010ab0:	d503201f 	nop
ffff000000010ab4:	d503201f 	nop
ffff000000010ab8:	d503201f 	nop
ffff000000010abc:	d503201f 	nop
ffff000000010ac0:	d503201f 	nop
ffff000000010ac4:	d503201f 	nop
ffff000000010ac8:	d503201f 	nop
ffff000000010acc:	d503201f 	nop
ffff000000010ad0:	d503201f 	nop
ffff000000010ad4:	d503201f 	nop
ffff000000010ad8:	d503201f 	nop
ffff000000010adc:	d503201f 	nop
ffff000000010ae0:	d503201f 	nop
ffff000000010ae4:	d503201f 	nop
ffff000000010ae8:	d503201f 	nop
ffff000000010aec:	d503201f 	nop
ffff000000010af0:	d503201f 	nop
ffff000000010af4:	d503201f 	nop
ffff000000010af8:	d503201f 	nop
ffff000000010afc:	d503201f 	nop
ffff000000010b00:	140001a3 	b	ffff00000001118c <fiq_invalid_el1h>
ffff000000010b04:	d503201f 	nop
ffff000000010b08:	d503201f 	nop
ffff000000010b0c:	d503201f 	nop
ffff000000010b10:	d503201f 	nop
ffff000000010b14:	d503201f 	nop
ffff000000010b18:	d503201f 	nop
ffff000000010b1c:	d503201f 	nop
ffff000000010b20:	d503201f 	nop
ffff000000010b24:	d503201f 	nop
ffff000000010b28:	d503201f 	nop
ffff000000010b2c:	d503201f 	nop
ffff000000010b30:	d503201f 	nop
ffff000000010b34:	d503201f 	nop
ffff000000010b38:	d503201f 	nop
ffff000000010b3c:	d503201f 	nop
ffff000000010b40:	d503201f 	nop
ffff000000010b44:	d503201f 	nop
ffff000000010b48:	d503201f 	nop
ffff000000010b4c:	d503201f 	nop
ffff000000010b50:	d503201f 	nop
ffff000000010b54:	d503201f 	nop
ffff000000010b58:	d503201f 	nop
ffff000000010b5c:	d503201f 	nop
ffff000000010b60:	d503201f 	nop
ffff000000010b64:	d503201f 	nop
ffff000000010b68:	d503201f 	nop
ffff000000010b6c:	d503201f 	nop
ffff000000010b70:	d503201f 	nop
ffff000000010b74:	d503201f 	nop
ffff000000010b78:	d503201f 	nop
ffff000000010b7c:	d503201f 	nop
ffff000000010b80:	1400019d 	b	ffff0000000111f4 <error_invalid_el1h>
ffff000000010b84:	d503201f 	nop
ffff000000010b88:	d503201f 	nop
ffff000000010b8c:	d503201f 	nop
ffff000000010b90:	d503201f 	nop
ffff000000010b94:	d503201f 	nop
ffff000000010b98:	d503201f 	nop
ffff000000010b9c:	d503201f 	nop
ffff000000010ba0:	d503201f 	nop
ffff000000010ba4:	d503201f 	nop
ffff000000010ba8:	d503201f 	nop
ffff000000010bac:	d503201f 	nop
ffff000000010bb0:	d503201f 	nop
ffff000000010bb4:	d503201f 	nop
ffff000000010bb8:	d503201f 	nop
ffff000000010bbc:	d503201f 	nop
ffff000000010bc0:	d503201f 	nop
ffff000000010bc4:	d503201f 	nop
ffff000000010bc8:	d503201f 	nop
ffff000000010bcc:	d503201f 	nop
ffff000000010bd0:	d503201f 	nop
ffff000000010bd4:	d503201f 	nop
ffff000000010bd8:	d503201f 	nop
ffff000000010bdc:	d503201f 	nop
ffff000000010be0:	d503201f 	nop
ffff000000010be4:	d503201f 	nop
ffff000000010be8:	d503201f 	nop
ffff000000010bec:	d503201f 	nop
ffff000000010bf0:	d503201f 	nop
ffff000000010bf4:	d503201f 	nop
ffff000000010bf8:	d503201f 	nop
ffff000000010bfc:	d503201f 	nop
ffff000000010c00:	1400028a 	b	ffff000000011628 <el0_sync>
ffff000000010c04:	d503201f 	nop
ffff000000010c08:	d503201f 	nop
ffff000000010c0c:	d503201f 	nop
ffff000000010c10:	d503201f 	nop
ffff000000010c14:	d503201f 	nop
ffff000000010c18:	d503201f 	nop
ffff000000010c1c:	d503201f 	nop
ffff000000010c20:	d503201f 	nop
ffff000000010c24:	d503201f 	nop
ffff000000010c28:	d503201f 	nop
ffff000000010c2c:	d503201f 	nop
ffff000000010c30:	d503201f 	nop
ffff000000010c34:	d503201f 	nop
ffff000000010c38:	d503201f 	nop
ffff000000010c3c:	d503201f 	nop
ffff000000010c40:	d503201f 	nop
ffff000000010c44:	d503201f 	nop
ffff000000010c48:	d503201f 	nop
ffff000000010c4c:	d503201f 	nop
ffff000000010c50:	d503201f 	nop
ffff000000010c54:	d503201f 	nop
ffff000000010c58:	d503201f 	nop
ffff000000010c5c:	d503201f 	nop
ffff000000010c60:	d503201f 	nop
ffff000000010c64:	d503201f 	nop
ffff000000010c68:	d503201f 	nop
ffff000000010c6c:	d503201f 	nop
ffff000000010c70:	d503201f 	nop
ffff000000010c74:	d503201f 	nop
ffff000000010c78:	d503201f 	nop
ffff000000010c7c:	d503201f 	nop
ffff000000010c80:	1400023e 	b	ffff000000011578 <el0_irq>
ffff000000010c84:	d503201f 	nop
ffff000000010c88:	d503201f 	nop
ffff000000010c8c:	d503201f 	nop
ffff000000010c90:	d503201f 	nop
ffff000000010c94:	d503201f 	nop
ffff000000010c98:	d503201f 	nop
ffff000000010c9c:	d503201f 	nop
ffff000000010ca0:	d503201f 	nop
ffff000000010ca4:	d503201f 	nop
ffff000000010ca8:	d503201f 	nop
ffff000000010cac:	d503201f 	nop
ffff000000010cb0:	d503201f 	nop
ffff000000010cb4:	d503201f 	nop
ffff000000010cb8:	d503201f 	nop
ffff000000010cbc:	d503201f 	nop
ffff000000010cc0:	d503201f 	nop
ffff000000010cc4:	d503201f 	nop
ffff000000010cc8:	d503201f 	nop
ffff000000010ccc:	d503201f 	nop
ffff000000010cd0:	d503201f 	nop
ffff000000010cd4:	d503201f 	nop
ffff000000010cd8:	d503201f 	nop
ffff000000010cdc:	d503201f 	nop
ffff000000010ce0:	d503201f 	nop
ffff000000010ce4:	d503201f 	nop
ffff000000010ce8:	d503201f 	nop
ffff000000010cec:	d503201f 	nop
ffff000000010cf0:	d503201f 	nop
ffff000000010cf4:	d503201f 	nop
ffff000000010cf8:	d503201f 	nop
ffff000000010cfc:	d503201f 	nop
ffff000000010d00:	14000157 	b	ffff00000001125c <fiq_invalid_el0_64>
ffff000000010d04:	d503201f 	nop
ffff000000010d08:	d503201f 	nop
ffff000000010d0c:	d503201f 	nop
ffff000000010d10:	d503201f 	nop
ffff000000010d14:	d503201f 	nop
ffff000000010d18:	d503201f 	nop
ffff000000010d1c:	d503201f 	nop
ffff000000010d20:	d503201f 	nop
ffff000000010d24:	d503201f 	nop
ffff000000010d28:	d503201f 	nop
ffff000000010d2c:	d503201f 	nop
ffff000000010d30:	d503201f 	nop
ffff000000010d34:	d503201f 	nop
ffff000000010d38:	d503201f 	nop
ffff000000010d3c:	d503201f 	nop
ffff000000010d40:	d503201f 	nop
ffff000000010d44:	d503201f 	nop
ffff000000010d48:	d503201f 	nop
ffff000000010d4c:	d503201f 	nop
ffff000000010d50:	d503201f 	nop
ffff000000010d54:	d503201f 	nop
ffff000000010d58:	d503201f 	nop
ffff000000010d5c:	d503201f 	nop
ffff000000010d60:	d503201f 	nop
ffff000000010d64:	d503201f 	nop
ffff000000010d68:	d503201f 	nop
ffff000000010d6c:	d503201f 	nop
ffff000000010d70:	d503201f 	nop
ffff000000010d74:	d503201f 	nop
ffff000000010d78:	d503201f 	nop
ffff000000010d7c:	d503201f 	nop
ffff000000010d80:	14000151 	b	ffff0000000112c4 <error_invalid_el0_64>
ffff000000010d84:	d503201f 	nop
ffff000000010d88:	d503201f 	nop
ffff000000010d8c:	d503201f 	nop
ffff000000010d90:	d503201f 	nop
ffff000000010d94:	d503201f 	nop
ffff000000010d98:	d503201f 	nop
ffff000000010d9c:	d503201f 	nop
ffff000000010da0:	d503201f 	nop
ffff000000010da4:	d503201f 	nop
ffff000000010da8:	d503201f 	nop
ffff000000010dac:	d503201f 	nop
ffff000000010db0:	d503201f 	nop
ffff000000010db4:	d503201f 	nop
ffff000000010db8:	d503201f 	nop
ffff000000010dbc:	d503201f 	nop
ffff000000010dc0:	d503201f 	nop
ffff000000010dc4:	d503201f 	nop
ffff000000010dc8:	d503201f 	nop
ffff000000010dcc:	d503201f 	nop
ffff000000010dd0:	d503201f 	nop
ffff000000010dd4:	d503201f 	nop
ffff000000010dd8:	d503201f 	nop
ffff000000010ddc:	d503201f 	nop
ffff000000010de0:	d503201f 	nop
ffff000000010de4:	d503201f 	nop
ffff000000010de8:	d503201f 	nop
ffff000000010dec:	d503201f 	nop
ffff000000010df0:	d503201f 	nop
ffff000000010df4:	d503201f 	nop
ffff000000010df8:	d503201f 	nop
ffff000000010dfc:	d503201f 	nop
ffff000000010e00:	1400014b 	b	ffff00000001132c <sync_invalid_el0_32>
ffff000000010e04:	d503201f 	nop
ffff000000010e08:	d503201f 	nop
ffff000000010e0c:	d503201f 	nop
ffff000000010e10:	d503201f 	nop
ffff000000010e14:	d503201f 	nop
ffff000000010e18:	d503201f 	nop
ffff000000010e1c:	d503201f 	nop
ffff000000010e20:	d503201f 	nop
ffff000000010e24:	d503201f 	nop
ffff000000010e28:	d503201f 	nop
ffff000000010e2c:	d503201f 	nop
ffff000000010e30:	d503201f 	nop
ffff000000010e34:	d503201f 	nop
ffff000000010e38:	d503201f 	nop
ffff000000010e3c:	d503201f 	nop
ffff000000010e40:	d503201f 	nop
ffff000000010e44:	d503201f 	nop
ffff000000010e48:	d503201f 	nop
ffff000000010e4c:	d503201f 	nop
ffff000000010e50:	d503201f 	nop
ffff000000010e54:	d503201f 	nop
ffff000000010e58:	d503201f 	nop
ffff000000010e5c:	d503201f 	nop
ffff000000010e60:	d503201f 	nop
ffff000000010e64:	d503201f 	nop
ffff000000010e68:	d503201f 	nop
ffff000000010e6c:	d503201f 	nop
ffff000000010e70:	d503201f 	nop
ffff000000010e74:	d503201f 	nop
ffff000000010e78:	d503201f 	nop
ffff000000010e7c:	d503201f 	nop
ffff000000010e80:	14000145 	b	ffff000000011394 <irq_invalid_el0_32>
ffff000000010e84:	d503201f 	nop
ffff000000010e88:	d503201f 	nop
ffff000000010e8c:	d503201f 	nop
ffff000000010e90:	d503201f 	nop
ffff000000010e94:	d503201f 	nop
ffff000000010e98:	d503201f 	nop
ffff000000010e9c:	d503201f 	nop
ffff000000010ea0:	d503201f 	nop
ffff000000010ea4:	d503201f 	nop
ffff000000010ea8:	d503201f 	nop
ffff000000010eac:	d503201f 	nop
ffff000000010eb0:	d503201f 	nop
ffff000000010eb4:	d503201f 	nop
ffff000000010eb8:	d503201f 	nop
ffff000000010ebc:	d503201f 	nop
ffff000000010ec0:	d503201f 	nop
ffff000000010ec4:	d503201f 	nop
ffff000000010ec8:	d503201f 	nop
ffff000000010ecc:	d503201f 	nop
ffff000000010ed0:	d503201f 	nop
ffff000000010ed4:	d503201f 	nop
ffff000000010ed8:	d503201f 	nop
ffff000000010edc:	d503201f 	nop
ffff000000010ee0:	d503201f 	nop
ffff000000010ee4:	d503201f 	nop
ffff000000010ee8:	d503201f 	nop
ffff000000010eec:	d503201f 	nop
ffff000000010ef0:	d503201f 	nop
ffff000000010ef4:	d503201f 	nop
ffff000000010ef8:	d503201f 	nop
ffff000000010efc:	d503201f 	nop
ffff000000010f00:	1400013f 	b	ffff0000000113fc <fiq_invalid_el0_32>
ffff000000010f04:	d503201f 	nop
ffff000000010f08:	d503201f 	nop
ffff000000010f0c:	d503201f 	nop
ffff000000010f10:	d503201f 	nop
ffff000000010f14:	d503201f 	nop
ffff000000010f18:	d503201f 	nop
ffff000000010f1c:	d503201f 	nop
ffff000000010f20:	d503201f 	nop
ffff000000010f24:	d503201f 	nop
ffff000000010f28:	d503201f 	nop
ffff000000010f2c:	d503201f 	nop
ffff000000010f30:	d503201f 	nop
ffff000000010f34:	d503201f 	nop
ffff000000010f38:	d503201f 	nop
ffff000000010f3c:	d503201f 	nop
ffff000000010f40:	d503201f 	nop
ffff000000010f44:	d503201f 	nop
ffff000000010f48:	d503201f 	nop
ffff000000010f4c:	d503201f 	nop
ffff000000010f50:	d503201f 	nop
ffff000000010f54:	d503201f 	nop
ffff000000010f58:	d503201f 	nop
ffff000000010f5c:	d503201f 	nop
ffff000000010f60:	d503201f 	nop
ffff000000010f64:	d503201f 	nop
ffff000000010f68:	d503201f 	nop
ffff000000010f6c:	d503201f 	nop
ffff000000010f70:	d503201f 	nop
ffff000000010f74:	d503201f 	nop
ffff000000010f78:	d503201f 	nop
ffff000000010f7c:	d503201f 	nop
ffff000000010f80:	14000139 	b	ffff000000011464 <error_invalid_el0_32>

ffff000000010f84 <sync_invalid_el1t>:
ffff000000010f84:	d10443ff 	sub	sp, sp, #0x110
ffff000000010f88:	a90007e0 	stp	x0, x1, [sp]
ffff000000010f8c:	a9010fe2 	stp	x2, x3, [sp,#16]
ffff000000010f90:	a90217e4 	stp	x4, x5, [sp,#32]
ffff000000010f94:	a9031fe6 	stp	x6, x7, [sp,#48]
ffff000000010f98:	a90427e8 	stp	x8, x9, [sp,#64]
ffff000000010f9c:	a9052fea 	stp	x10, x11, [sp,#80]
ffff000000010fa0:	a90637ec 	stp	x12, x13, [sp,#96]
ffff000000010fa4:	a9073fee 	stp	x14, x15, [sp,#112]
ffff000000010fa8:	a90847f0 	stp	x16, x17, [sp,#128]
ffff000000010fac:	a9094ff2 	stp	x18, x19, [sp,#144]
ffff000000010fb0:	a90a57f4 	stp	x20, x21, [sp,#160]
ffff000000010fb4:	a90b5ff6 	stp	x22, x23, [sp,#176]
ffff000000010fb8:	a90c67f8 	stp	x24, x25, [sp,#192]
ffff000000010fbc:	a90d6ffa 	stp	x26, x27, [sp,#208]
ffff000000010fc0:	a90e77fc 	stp	x28, x29, [sp,#224]
ffff000000010fc4:	910443f5 	add	x21, sp, #0x110
ffff000000010fc8:	d5384036 	mrs	x22, elr_el1
ffff000000010fcc:	d5384017 	mrs	x23, spsr_el1
ffff000000010fd0:	a90f57fe 	stp	x30, x21, [sp,#240]
ffff000000010fd4:	a9105ff6 	stp	x22, x23, [sp,#256]
ffff000000010fd8:	d2800000 	mov	x0, #0x0                   	// #0
ffff000000010fdc:	d5385201 	mrs	x1, esr_el1
ffff000000010fe0:	d5384022 	mrs	x2, elr_el1
ffff000000010fe4:	97ffc7c5 	bl	ffff000000002ef8 <show_invalid_entry_message>
ffff000000010fe8:	14000253 	b	ffff000000011934 <err_hang>

ffff000000010fec <irq_invalid_el1t>:
ffff000000010fec:	d10443ff 	sub	sp, sp, #0x110
ffff000000010ff0:	a90007e0 	stp	x0, x1, [sp]
ffff000000010ff4:	a9010fe2 	stp	x2, x3, [sp,#16]
ffff000000010ff8:	a90217e4 	stp	x4, x5, [sp,#32]
ffff000000010ffc:	a9031fe6 	stp	x6, x7, [sp,#48]
ffff000000011000:	a90427e8 	stp	x8, x9, [sp,#64]
ffff000000011004:	a9052fea 	stp	x10, x11, [sp,#80]
ffff000000011008:	a90637ec 	stp	x12, x13, [sp,#96]
ffff00000001100c:	a9073fee 	stp	x14, x15, [sp,#112]
ffff000000011010:	a90847f0 	stp	x16, x17, [sp,#128]
ffff000000011014:	a9094ff2 	stp	x18, x19, [sp,#144]
ffff000000011018:	a90a57f4 	stp	x20, x21, [sp,#160]
ffff00000001101c:	a90b5ff6 	stp	x22, x23, [sp,#176]
ffff000000011020:	a90c67f8 	stp	x24, x25, [sp,#192]
ffff000000011024:	a90d6ffa 	stp	x26, x27, [sp,#208]
ffff000000011028:	a90e77fc 	stp	x28, x29, [sp,#224]
ffff00000001102c:	910443f5 	add	x21, sp, #0x110
ffff000000011030:	d5384036 	mrs	x22, elr_el1
ffff000000011034:	d5384017 	mrs	x23, spsr_el1
ffff000000011038:	a90f57fe 	stp	x30, x21, [sp,#240]
ffff00000001103c:	a9105ff6 	stp	x22, x23, [sp,#256]
ffff000000011040:	d2800020 	mov	x0, #0x1                   	// #1
ffff000000011044:	d5385201 	mrs	x1, esr_el1
ffff000000011048:	d5384022 	mrs	x2, elr_el1
ffff00000001104c:	97ffc7ab 	bl	ffff000000002ef8 <show_invalid_entry_message>
ffff000000011050:	14000239 	b	ffff000000011934 <err_hang>

ffff000000011054 <fiq_invalid_el1t>:
ffff000000011054:	d10443ff 	sub	sp, sp, #0x110
ffff000000011058:	a90007e0 	stp	x0, x1, [sp]
ffff00000001105c:	a9010fe2 	stp	x2, x3, [sp,#16]
ffff000000011060:	a90217e4 	stp	x4, x5, [sp,#32]
ffff000000011064:	a9031fe6 	stp	x6, x7, [sp,#48]
ffff000000011068:	a90427e8 	stp	x8, x9, [sp,#64]
ffff00000001106c:	a9052fea 	stp	x10, x11, [sp,#80]
ffff000000011070:	a90637ec 	stp	x12, x13, [sp,#96]
ffff000000011074:	a9073fee 	stp	x14, x15, [sp,#112]
ffff000000011078:	a90847f0 	stp	x16, x17, [sp,#128]
ffff00000001107c:	a9094ff2 	stp	x18, x19, [sp,#144]
ffff000000011080:	a90a57f4 	stp	x20, x21, [sp,#160]
ffff000000011084:	a90b5ff6 	stp	x22, x23, [sp,#176]
ffff000000011088:	a90c67f8 	stp	x24, x25, [sp,#192]
ffff00000001108c:	a90d6ffa 	stp	x26, x27, [sp,#208]
ffff000000011090:	a90e77fc 	stp	x28, x29, [sp,#224]
ffff000000011094:	910443f5 	add	x21, sp, #0x110
ffff000000011098:	d5384036 	mrs	x22, elr_el1
ffff00000001109c:	d5384017 	mrs	x23, spsr_el1
ffff0000000110a0:	a90f57fe 	stp	x30, x21, [sp,#240]
ffff0000000110a4:	a9105ff6 	stp	x22, x23, [sp,#256]
ffff0000000110a8:	d2800040 	mov	x0, #0x2                   	// #2
ffff0000000110ac:	d5385201 	mrs	x1, esr_el1
ffff0000000110b0:	d5384022 	mrs	x2, elr_el1
ffff0000000110b4:	97ffc791 	bl	ffff000000002ef8 <show_invalid_entry_message>
ffff0000000110b8:	1400021f 	b	ffff000000011934 <err_hang>

ffff0000000110bc <error_invalid_el1t>:
ffff0000000110bc:	d10443ff 	sub	sp, sp, #0x110
ffff0000000110c0:	a90007e0 	stp	x0, x1, [sp]
ffff0000000110c4:	a9010fe2 	stp	x2, x3, [sp,#16]
ffff0000000110c8:	a90217e4 	stp	x4, x5, [sp,#32]
ffff0000000110cc:	a9031fe6 	stp	x6, x7, [sp,#48]
ffff0000000110d0:	a90427e8 	stp	x8, x9, [sp,#64]
ffff0000000110d4:	a9052fea 	stp	x10, x11, [sp,#80]
ffff0000000110d8:	a90637ec 	stp	x12, x13, [sp,#96]
ffff0000000110dc:	a9073fee 	stp	x14, x15, [sp,#112]
ffff0000000110e0:	a90847f0 	stp	x16, x17, [sp,#128]
ffff0000000110e4:	a9094ff2 	stp	x18, x19, [sp,#144]
ffff0000000110e8:	a90a57f4 	stp	x20, x21, [sp,#160]
ffff0000000110ec:	a90b5ff6 	stp	x22, x23, [sp,#176]
ffff0000000110f0:	a90c67f8 	stp	x24, x25, [sp,#192]
ffff0000000110f4:	a90d6ffa 	stp	x26, x27, [sp,#208]
ffff0000000110f8:	a90e77fc 	stp	x28, x29, [sp,#224]
ffff0000000110fc:	910443f5 	add	x21, sp, #0x110
ffff000000011100:	d5384036 	mrs	x22, elr_el1
ffff000000011104:	d5384017 	mrs	x23, spsr_el1
ffff000000011108:	a90f57fe 	stp	x30, x21, [sp,#240]
ffff00000001110c:	a9105ff6 	stp	x22, x23, [sp,#256]
ffff000000011110:	d2800060 	mov	x0, #0x3                   	// #3
ffff000000011114:	d5385201 	mrs	x1, esr_el1
ffff000000011118:	d5384022 	mrs	x2, elr_el1
ffff00000001111c:	97ffc777 	bl	ffff000000002ef8 <show_invalid_entry_message>
ffff000000011120:	14000205 	b	ffff000000011934 <err_hang>

ffff000000011124 <sync_invalid_el1h>:
ffff000000011124:	d10443ff 	sub	sp, sp, #0x110
ffff000000011128:	a90007e0 	stp	x0, x1, [sp]
ffff00000001112c:	a9010fe2 	stp	x2, x3, [sp,#16]
ffff000000011130:	a90217e4 	stp	x4, x5, [sp,#32]
ffff000000011134:	a9031fe6 	stp	x6, x7, [sp,#48]
ffff000000011138:	a90427e8 	stp	x8, x9, [sp,#64]
ffff00000001113c:	a9052fea 	stp	x10, x11, [sp,#80]
ffff000000011140:	a90637ec 	stp	x12, x13, [sp,#96]
ffff000000011144:	a9073fee 	stp	x14, x15, [sp,#112]
ffff000000011148:	a90847f0 	stp	x16, x17, [sp,#128]
ffff00000001114c:	a9094ff2 	stp	x18, x19, [sp,#144]
ffff000000011150:	a90a57f4 	stp	x20, x21, [sp,#160]
ffff000000011154:	a90b5ff6 	stp	x22, x23, [sp,#176]
ffff000000011158:	a90c67f8 	stp	x24, x25, [sp,#192]
ffff00000001115c:	a90d6ffa 	stp	x26, x27, [sp,#208]
ffff000000011160:	a90e77fc 	stp	x28, x29, [sp,#224]
ffff000000011164:	910443f5 	add	x21, sp, #0x110
ffff000000011168:	d5384036 	mrs	x22, elr_el1
ffff00000001116c:	d5384017 	mrs	x23, spsr_el1
ffff000000011170:	a90f57fe 	stp	x30, x21, [sp,#240]
ffff000000011174:	a9105ff6 	stp	x22, x23, [sp,#256]
ffff000000011178:	d2800080 	mov	x0, #0x4                   	// #4
ffff00000001117c:	d5385201 	mrs	x1, esr_el1
ffff000000011180:	d5384022 	mrs	x2, elr_el1
ffff000000011184:	97ffc75d 	bl	ffff000000002ef8 <show_invalid_entry_message>
ffff000000011188:	140001eb 	b	ffff000000011934 <err_hang>

ffff00000001118c <fiq_invalid_el1h>:
ffff00000001118c:	d10443ff 	sub	sp, sp, #0x110
ffff000000011190:	a90007e0 	stp	x0, x1, [sp]
ffff000000011194:	a9010fe2 	stp	x2, x3, [sp,#16]
ffff000000011198:	a90217e4 	stp	x4, x5, [sp,#32]
ffff00000001119c:	a9031fe6 	stp	x6, x7, [sp,#48]
ffff0000000111a0:	a90427e8 	stp	x8, x9, [sp,#64]
ffff0000000111a4:	a9052fea 	stp	x10, x11, [sp,#80]
ffff0000000111a8:	a90637ec 	stp	x12, x13, [sp,#96]
ffff0000000111ac:	a9073fee 	stp	x14, x15, [sp,#112]
ffff0000000111b0:	a90847f0 	stp	x16, x17, [sp,#128]
ffff0000000111b4:	a9094ff2 	stp	x18, x19, [sp,#144]
ffff0000000111b8:	a90a57f4 	stp	x20, x21, [sp,#160]
ffff0000000111bc:	a90b5ff6 	stp	x22, x23, [sp,#176]
ffff0000000111c0:	a90c67f8 	stp	x24, x25, [sp,#192]
ffff0000000111c4:	a90d6ffa 	stp	x26, x27, [sp,#208]
ffff0000000111c8:	a90e77fc 	stp	x28, x29, [sp,#224]
ffff0000000111cc:	910443f5 	add	x21, sp, #0x110
ffff0000000111d0:	d5384036 	mrs	x22, elr_el1
ffff0000000111d4:	d5384017 	mrs	x23, spsr_el1
ffff0000000111d8:	a90f57fe 	stp	x30, x21, [sp,#240]
ffff0000000111dc:	a9105ff6 	stp	x22, x23, [sp,#256]
ffff0000000111e0:	d28000a0 	mov	x0, #0x5                   	// #5
ffff0000000111e4:	d5385201 	mrs	x1, esr_el1
ffff0000000111e8:	d5384022 	mrs	x2, elr_el1
ffff0000000111ec:	97ffc743 	bl	ffff000000002ef8 <show_invalid_entry_message>
ffff0000000111f0:	140001d1 	b	ffff000000011934 <err_hang>

ffff0000000111f4 <error_invalid_el1h>:
ffff0000000111f4:	d10443ff 	sub	sp, sp, #0x110
ffff0000000111f8:	a90007e0 	stp	x0, x1, [sp]
ffff0000000111fc:	a9010fe2 	stp	x2, x3, [sp,#16]
ffff000000011200:	a90217e4 	stp	x4, x5, [sp,#32]
ffff000000011204:	a9031fe6 	stp	x6, x7, [sp,#48]
ffff000000011208:	a90427e8 	stp	x8, x9, [sp,#64]
ffff00000001120c:	a9052fea 	stp	x10, x11, [sp,#80]
ffff000000011210:	a90637ec 	stp	x12, x13, [sp,#96]
ffff000000011214:	a9073fee 	stp	x14, x15, [sp,#112]
ffff000000011218:	a90847f0 	stp	x16, x17, [sp,#128]
ffff00000001121c:	a9094ff2 	stp	x18, x19, [sp,#144]
ffff000000011220:	a90a57f4 	stp	x20, x21, [sp,#160]
ffff000000011224:	a90b5ff6 	stp	x22, x23, [sp,#176]
ffff000000011228:	a90c67f8 	stp	x24, x25, [sp,#192]
ffff00000001122c:	a90d6ffa 	stp	x26, x27, [sp,#208]
ffff000000011230:	a90e77fc 	stp	x28, x29, [sp,#224]
ffff000000011234:	910443f5 	add	x21, sp, #0x110
ffff000000011238:	d5384036 	mrs	x22, elr_el1
ffff00000001123c:	d5384017 	mrs	x23, spsr_el1
ffff000000011240:	a90f57fe 	stp	x30, x21, [sp,#240]
ffff000000011244:	a9105ff6 	stp	x22, x23, [sp,#256]
ffff000000011248:	d28000c0 	mov	x0, #0x6                   	// #6
ffff00000001124c:	d5385201 	mrs	x1, esr_el1
ffff000000011250:	d5384022 	mrs	x2, elr_el1
ffff000000011254:	97ffc729 	bl	ffff000000002ef8 <show_invalid_entry_message>
ffff000000011258:	140001b7 	b	ffff000000011934 <err_hang>

ffff00000001125c <fiq_invalid_el0_64>:
ffff00000001125c:	d10443ff 	sub	sp, sp, #0x110
ffff000000011260:	a90007e0 	stp	x0, x1, [sp]
ffff000000011264:	a9010fe2 	stp	x2, x3, [sp,#16]
ffff000000011268:	a90217e4 	stp	x4, x5, [sp,#32]
ffff00000001126c:	a9031fe6 	stp	x6, x7, [sp,#48]
ffff000000011270:	a90427e8 	stp	x8, x9, [sp,#64]
ffff000000011274:	a9052fea 	stp	x10, x11, [sp,#80]
ffff000000011278:	a90637ec 	stp	x12, x13, [sp,#96]
ffff00000001127c:	a9073fee 	stp	x14, x15, [sp,#112]
ffff000000011280:	a90847f0 	stp	x16, x17, [sp,#128]
ffff000000011284:	a9094ff2 	stp	x18, x19, [sp,#144]
ffff000000011288:	a90a57f4 	stp	x20, x21, [sp,#160]
ffff00000001128c:	a90b5ff6 	stp	x22, x23, [sp,#176]
ffff000000011290:	a90c67f8 	stp	x24, x25, [sp,#192]
ffff000000011294:	a90d6ffa 	stp	x26, x27, [sp,#208]
ffff000000011298:	a90e77fc 	stp	x28, x29, [sp,#224]
ffff00000001129c:	d5384115 	mrs	x21, sp_el0
ffff0000000112a0:	d5384036 	mrs	x22, elr_el1
ffff0000000112a4:	d5384017 	mrs	x23, spsr_el1
ffff0000000112a8:	a90f57fe 	stp	x30, x21, [sp,#240]
ffff0000000112ac:	a9105ff6 	stp	x22, x23, [sp,#256]
ffff0000000112b0:	d28000e0 	mov	x0, #0x7                   	// #7
ffff0000000112b4:	d5385201 	mrs	x1, esr_el1
ffff0000000112b8:	d5384022 	mrs	x2, elr_el1
ffff0000000112bc:	97ffc70f 	bl	ffff000000002ef8 <show_invalid_entry_message>
ffff0000000112c0:	1400019d 	b	ffff000000011934 <err_hang>

ffff0000000112c4 <error_invalid_el0_64>:
ffff0000000112c4:	d10443ff 	sub	sp, sp, #0x110
ffff0000000112c8:	a90007e0 	stp	x0, x1, [sp]
ffff0000000112cc:	a9010fe2 	stp	x2, x3, [sp,#16]
ffff0000000112d0:	a90217e4 	stp	x4, x5, [sp,#32]
ffff0000000112d4:	a9031fe6 	stp	x6, x7, [sp,#48]
ffff0000000112d8:	a90427e8 	stp	x8, x9, [sp,#64]
ffff0000000112dc:	a9052fea 	stp	x10, x11, [sp,#80]
ffff0000000112e0:	a90637ec 	stp	x12, x13, [sp,#96]
ffff0000000112e4:	a9073fee 	stp	x14, x15, [sp,#112]
ffff0000000112e8:	a90847f0 	stp	x16, x17, [sp,#128]
ffff0000000112ec:	a9094ff2 	stp	x18, x19, [sp,#144]
ffff0000000112f0:	a90a57f4 	stp	x20, x21, [sp,#160]
ffff0000000112f4:	a90b5ff6 	stp	x22, x23, [sp,#176]
ffff0000000112f8:	a90c67f8 	stp	x24, x25, [sp,#192]
ffff0000000112fc:	a90d6ffa 	stp	x26, x27, [sp,#208]
ffff000000011300:	a90e77fc 	stp	x28, x29, [sp,#224]
ffff000000011304:	d5384115 	mrs	x21, sp_el0
ffff000000011308:	d5384036 	mrs	x22, elr_el1
ffff00000001130c:	d5384017 	mrs	x23, spsr_el1
ffff000000011310:	a90f57fe 	stp	x30, x21, [sp,#240]
ffff000000011314:	a9105ff6 	stp	x22, x23, [sp,#256]
ffff000000011318:	d2800100 	mov	x0, #0x8                   	// #8
ffff00000001131c:	d5385201 	mrs	x1, esr_el1
ffff000000011320:	d5384022 	mrs	x2, elr_el1
ffff000000011324:	97ffc6f5 	bl	ffff000000002ef8 <show_invalid_entry_message>
ffff000000011328:	14000183 	b	ffff000000011934 <err_hang>

ffff00000001132c <sync_invalid_el0_32>:
ffff00000001132c:	d10443ff 	sub	sp, sp, #0x110
ffff000000011330:	a90007e0 	stp	x0, x1, [sp]
ffff000000011334:	a9010fe2 	stp	x2, x3, [sp,#16]
ffff000000011338:	a90217e4 	stp	x4, x5, [sp,#32]
ffff00000001133c:	a9031fe6 	stp	x6, x7, [sp,#48]
ffff000000011340:	a90427e8 	stp	x8, x9, [sp,#64]
ffff000000011344:	a9052fea 	stp	x10, x11, [sp,#80]
ffff000000011348:	a90637ec 	stp	x12, x13, [sp,#96]
ffff00000001134c:	a9073fee 	stp	x14, x15, [sp,#112]
ffff000000011350:	a90847f0 	stp	x16, x17, [sp,#128]
ffff000000011354:	a9094ff2 	stp	x18, x19, [sp,#144]
ffff000000011358:	a90a57f4 	stp	x20, x21, [sp,#160]
ffff00000001135c:	a90b5ff6 	stp	x22, x23, [sp,#176]
ffff000000011360:	a90c67f8 	stp	x24, x25, [sp,#192]
ffff000000011364:	a90d6ffa 	stp	x26, x27, [sp,#208]
ffff000000011368:	a90e77fc 	stp	x28, x29, [sp,#224]
ffff00000001136c:	d5384115 	mrs	x21, sp_el0
ffff000000011370:	d5384036 	mrs	x22, elr_el1
ffff000000011374:	d5384017 	mrs	x23, spsr_el1
ffff000000011378:	a90f57fe 	stp	x30, x21, [sp,#240]
ffff00000001137c:	a9105ff6 	stp	x22, x23, [sp,#256]
ffff000000011380:	d2800120 	mov	x0, #0x9                   	// #9
ffff000000011384:	d5385201 	mrs	x1, esr_el1
ffff000000011388:	d5384022 	mrs	x2, elr_el1
ffff00000001138c:	97ffc6db 	bl	ffff000000002ef8 <show_invalid_entry_message>
ffff000000011390:	14000169 	b	ffff000000011934 <err_hang>

ffff000000011394 <irq_invalid_el0_32>:
ffff000000011394:	d10443ff 	sub	sp, sp, #0x110
ffff000000011398:	a90007e0 	stp	x0, x1, [sp]
ffff00000001139c:	a9010fe2 	stp	x2, x3, [sp,#16]
ffff0000000113a0:	a90217e4 	stp	x4, x5, [sp,#32]
ffff0000000113a4:	a9031fe6 	stp	x6, x7, [sp,#48]
ffff0000000113a8:	a90427e8 	stp	x8, x9, [sp,#64]
ffff0000000113ac:	a9052fea 	stp	x10, x11, [sp,#80]
ffff0000000113b0:	a90637ec 	stp	x12, x13, [sp,#96]
ffff0000000113b4:	a9073fee 	stp	x14, x15, [sp,#112]
ffff0000000113b8:	a90847f0 	stp	x16, x17, [sp,#128]
ffff0000000113bc:	a9094ff2 	stp	x18, x19, [sp,#144]
ffff0000000113c0:	a90a57f4 	stp	x20, x21, [sp,#160]
ffff0000000113c4:	a90b5ff6 	stp	x22, x23, [sp,#176]
ffff0000000113c8:	a90c67f8 	stp	x24, x25, [sp,#192]
ffff0000000113cc:	a90d6ffa 	stp	x26, x27, [sp,#208]
ffff0000000113d0:	a90e77fc 	stp	x28, x29, [sp,#224]
ffff0000000113d4:	d5384115 	mrs	x21, sp_el0
ffff0000000113d8:	d5384036 	mrs	x22, elr_el1
ffff0000000113dc:	d5384017 	mrs	x23, spsr_el1
ffff0000000113e0:	a90f57fe 	stp	x30, x21, [sp,#240]
ffff0000000113e4:	a9105ff6 	stp	x22, x23, [sp,#256]
ffff0000000113e8:	d2800140 	mov	x0, #0xa                   	// #10
ffff0000000113ec:	d5385201 	mrs	x1, esr_el1
ffff0000000113f0:	d5384022 	mrs	x2, elr_el1
ffff0000000113f4:	97ffc6c1 	bl	ffff000000002ef8 <show_invalid_entry_message>
ffff0000000113f8:	1400014f 	b	ffff000000011934 <err_hang>

ffff0000000113fc <fiq_invalid_el0_32>:
ffff0000000113fc:	d10443ff 	sub	sp, sp, #0x110
ffff000000011400:	a90007e0 	stp	x0, x1, [sp]
ffff000000011404:	a9010fe2 	stp	x2, x3, [sp,#16]
ffff000000011408:	a90217e4 	stp	x4, x5, [sp,#32]
ffff00000001140c:	a9031fe6 	stp	x6, x7, [sp,#48]
ffff000000011410:	a90427e8 	stp	x8, x9, [sp,#64]
ffff000000011414:	a9052fea 	stp	x10, x11, [sp,#80]
ffff000000011418:	a90637ec 	stp	x12, x13, [sp,#96]
ffff00000001141c:	a9073fee 	stp	x14, x15, [sp,#112]
ffff000000011420:	a90847f0 	stp	x16, x17, [sp,#128]
ffff000000011424:	a9094ff2 	stp	x18, x19, [sp,#144]
ffff000000011428:	a90a57f4 	stp	x20, x21, [sp,#160]
ffff00000001142c:	a90b5ff6 	stp	x22, x23, [sp,#176]
ffff000000011430:	a90c67f8 	stp	x24, x25, [sp,#192]
ffff000000011434:	a90d6ffa 	stp	x26, x27, [sp,#208]
ffff000000011438:	a90e77fc 	stp	x28, x29, [sp,#224]
ffff00000001143c:	d5384115 	mrs	x21, sp_el0
ffff000000011440:	d5384036 	mrs	x22, elr_el1
ffff000000011444:	d5384017 	mrs	x23, spsr_el1
ffff000000011448:	a90f57fe 	stp	x30, x21, [sp,#240]
ffff00000001144c:	a9105ff6 	stp	x22, x23, [sp,#256]
ffff000000011450:	d2800160 	mov	x0, #0xb                   	// #11
ffff000000011454:	d5385201 	mrs	x1, esr_el1
ffff000000011458:	d5384022 	mrs	x2, elr_el1
ffff00000001145c:	97ffc6a7 	bl	ffff000000002ef8 <show_invalid_entry_message>
ffff000000011460:	14000135 	b	ffff000000011934 <err_hang>

ffff000000011464 <error_invalid_el0_32>:
ffff000000011464:	d10443ff 	sub	sp, sp, #0x110
ffff000000011468:	a90007e0 	stp	x0, x1, [sp]
ffff00000001146c:	a9010fe2 	stp	x2, x3, [sp,#16]
ffff000000011470:	a90217e4 	stp	x4, x5, [sp,#32]
ffff000000011474:	a9031fe6 	stp	x6, x7, [sp,#48]
ffff000000011478:	a90427e8 	stp	x8, x9, [sp,#64]
ffff00000001147c:	a9052fea 	stp	x10, x11, [sp,#80]
ffff000000011480:	a90637ec 	stp	x12, x13, [sp,#96]
ffff000000011484:	a9073fee 	stp	x14, x15, [sp,#112]
ffff000000011488:	a90847f0 	stp	x16, x17, [sp,#128]
ffff00000001148c:	a9094ff2 	stp	x18, x19, [sp,#144]
ffff000000011490:	a90a57f4 	stp	x20, x21, [sp,#160]
ffff000000011494:	a90b5ff6 	stp	x22, x23, [sp,#176]
ffff000000011498:	a90c67f8 	stp	x24, x25, [sp,#192]
ffff00000001149c:	a90d6ffa 	stp	x26, x27, [sp,#208]
ffff0000000114a0:	a90e77fc 	stp	x28, x29, [sp,#224]
ffff0000000114a4:	d5384115 	mrs	x21, sp_el0
ffff0000000114a8:	d5384036 	mrs	x22, elr_el1
ffff0000000114ac:	d5384017 	mrs	x23, spsr_el1
ffff0000000114b0:	a90f57fe 	stp	x30, x21, [sp,#240]
ffff0000000114b4:	a9105ff6 	stp	x22, x23, [sp,#256]
ffff0000000114b8:	d2800180 	mov	x0, #0xc                   	// #12
ffff0000000114bc:	d5385201 	mrs	x1, esr_el1
ffff0000000114c0:	d5384022 	mrs	x2, elr_el1
ffff0000000114c4:	97ffc68d 	bl	ffff000000002ef8 <show_invalid_entry_message>
ffff0000000114c8:	1400011b 	b	ffff000000011934 <err_hang>

ffff0000000114cc <el1_irq>:
ffff0000000114cc:	d10443ff 	sub	sp, sp, #0x110
ffff0000000114d0:	a90007e0 	stp	x0, x1, [sp]
ffff0000000114d4:	a9010fe2 	stp	x2, x3, [sp,#16]
ffff0000000114d8:	a90217e4 	stp	x4, x5, [sp,#32]
ffff0000000114dc:	a9031fe6 	stp	x6, x7, [sp,#48]
ffff0000000114e0:	a90427e8 	stp	x8, x9, [sp,#64]
ffff0000000114e4:	a9052fea 	stp	x10, x11, [sp,#80]
ffff0000000114e8:	a90637ec 	stp	x12, x13, [sp,#96]
ffff0000000114ec:	a9073fee 	stp	x14, x15, [sp,#112]
ffff0000000114f0:	a90847f0 	stp	x16, x17, [sp,#128]
ffff0000000114f4:	a9094ff2 	stp	x18, x19, [sp,#144]
ffff0000000114f8:	a90a57f4 	stp	x20, x21, [sp,#160]
ffff0000000114fc:	a90b5ff6 	stp	x22, x23, [sp,#176]
ffff000000011500:	a90c67f8 	stp	x24, x25, [sp,#192]
ffff000000011504:	a90d6ffa 	stp	x26, x27, [sp,#208]
ffff000000011508:	a90e77fc 	stp	x28, x29, [sp,#224]
ffff00000001150c:	910443f5 	add	x21, sp, #0x110
ffff000000011510:	d5384036 	mrs	x22, elr_el1
ffff000000011514:	d5384017 	mrs	x23, spsr_el1
ffff000000011518:	a90f57fe 	stp	x30, x21, [sp,#240]
ffff00000001151c:	a9105ff6 	stp	x22, x23, [sp,#256]
ffff000000011520:	97ffc690 	bl	ffff000000002f60 <handle_irq>
ffff000000011524:	a9505ff6 	ldp	x22, x23, [sp,#256]
ffff000000011528:	a94f57fe 	ldp	x30, x21, [sp,#240]
ffff00000001152c:	d5184036 	msr	elr_el1, x22
ffff000000011530:	d5184017 	msr	spsr_el1, x23
ffff000000011534:	a94007e0 	ldp	x0, x1, [sp]
ffff000000011538:	a9410fe2 	ldp	x2, x3, [sp,#16]
ffff00000001153c:	a94217e4 	ldp	x4, x5, [sp,#32]
ffff000000011540:	a9431fe6 	ldp	x6, x7, [sp,#48]
ffff000000011544:	a94427e8 	ldp	x8, x9, [sp,#64]
ffff000000011548:	a9452fea 	ldp	x10, x11, [sp,#80]
ffff00000001154c:	a94637ec 	ldp	x12, x13, [sp,#96]
ffff000000011550:	a9473fee 	ldp	x14, x15, [sp,#112]
ffff000000011554:	a94847f0 	ldp	x16, x17, [sp,#128]
ffff000000011558:	a9494ff2 	ldp	x18, x19, [sp,#144]
ffff00000001155c:	a94a57f4 	ldp	x20, x21, [sp,#160]
ffff000000011560:	a94b5ff6 	ldp	x22, x23, [sp,#176]
ffff000000011564:	a94c67f8 	ldp	x24, x25, [sp,#192]
ffff000000011568:	a94d6ffa 	ldp	x26, x27, [sp,#208]
ffff00000001156c:	a94e77fc 	ldp	x28, x29, [sp,#224]
ffff000000011570:	910443ff 	add	sp, sp, #0x110
ffff000000011574:	d69f03e0 	eret

ffff000000011578 <el0_irq>:
ffff000000011578:	d10443ff 	sub	sp, sp, #0x110
ffff00000001157c:	a90007e0 	stp	x0, x1, [sp]
ffff000000011580:	a9010fe2 	stp	x2, x3, [sp,#16]
ffff000000011584:	a90217e4 	stp	x4, x5, [sp,#32]
ffff000000011588:	a9031fe6 	stp	x6, x7, [sp,#48]
ffff00000001158c:	a90427e8 	stp	x8, x9, [sp,#64]
ffff000000011590:	a9052fea 	stp	x10, x11, [sp,#80]
ffff000000011594:	a90637ec 	stp	x12, x13, [sp,#96]
ffff000000011598:	a9073fee 	stp	x14, x15, [sp,#112]
ffff00000001159c:	a90847f0 	stp	x16, x17, [sp,#128]
ffff0000000115a0:	a9094ff2 	stp	x18, x19, [sp,#144]
ffff0000000115a4:	a90a57f4 	stp	x20, x21, [sp,#160]
ffff0000000115a8:	a90b5ff6 	stp	x22, x23, [sp,#176]
ffff0000000115ac:	a90c67f8 	stp	x24, x25, [sp,#192]
ffff0000000115b0:	a90d6ffa 	stp	x26, x27, [sp,#208]
ffff0000000115b4:	a90e77fc 	stp	x28, x29, [sp,#224]
ffff0000000115b8:	d5384115 	mrs	x21, sp_el0
ffff0000000115bc:	d5384036 	mrs	x22, elr_el1
ffff0000000115c0:	d5384017 	mrs	x23, spsr_el1
ffff0000000115c4:	a90f57fe 	stp	x30, x21, [sp,#240]
ffff0000000115c8:	a9105ff6 	stp	x22, x23, [sp,#256]
ffff0000000115cc:	97ffc665 	bl	ffff000000002f60 <handle_irq>
ffff0000000115d0:	a9505ff6 	ldp	x22, x23, [sp,#256]
ffff0000000115d4:	a94f57fe 	ldp	x30, x21, [sp,#240]
ffff0000000115d8:	d5184115 	msr	sp_el0, x21
ffff0000000115dc:	d5184036 	msr	elr_el1, x22
ffff0000000115e0:	d5184017 	msr	spsr_el1, x23
ffff0000000115e4:	a94007e0 	ldp	x0, x1, [sp]
ffff0000000115e8:	a9410fe2 	ldp	x2, x3, [sp,#16]
ffff0000000115ec:	a94217e4 	ldp	x4, x5, [sp,#32]
ffff0000000115f0:	a9431fe6 	ldp	x6, x7, [sp,#48]
ffff0000000115f4:	a94427e8 	ldp	x8, x9, [sp,#64]
ffff0000000115f8:	a9452fea 	ldp	x10, x11, [sp,#80]
ffff0000000115fc:	a94637ec 	ldp	x12, x13, [sp,#96]
ffff000000011600:	a9473fee 	ldp	x14, x15, [sp,#112]
ffff000000011604:	a94847f0 	ldp	x16, x17, [sp,#128]
ffff000000011608:	a9494ff2 	ldp	x18, x19, [sp,#144]
ffff00000001160c:	a94a57f4 	ldp	x20, x21, [sp,#160]
ffff000000011610:	a94b5ff6 	ldp	x22, x23, [sp,#176]
ffff000000011614:	a94c67f8 	ldp	x24, x25, [sp,#192]
ffff000000011618:	a94d6ffa 	ldp	x26, x27, [sp,#208]
ffff00000001161c:	a94e77fc 	ldp	x28, x29, [sp,#224]
ffff000000011620:	910443ff 	add	sp, sp, #0x110
ffff000000011624:	d69f03e0 	eret

ffff000000011628 <el0_sync>:
ffff000000011628:	d10443ff 	sub	sp, sp, #0x110
ffff00000001162c:	a90007e0 	stp	x0, x1, [sp]
ffff000000011630:	a9010fe2 	stp	x2, x3, [sp,#16]
ffff000000011634:	a90217e4 	stp	x4, x5, [sp,#32]
ffff000000011638:	a9031fe6 	stp	x6, x7, [sp,#48]
ffff00000001163c:	a90427e8 	stp	x8, x9, [sp,#64]
ffff000000011640:	a9052fea 	stp	x10, x11, [sp,#80]
ffff000000011644:	a90637ec 	stp	x12, x13, [sp,#96]
ffff000000011648:	a9073fee 	stp	x14, x15, [sp,#112]
ffff00000001164c:	a90847f0 	stp	x16, x17, [sp,#128]
ffff000000011650:	a9094ff2 	stp	x18, x19, [sp,#144]
ffff000000011654:	a90a57f4 	stp	x20, x21, [sp,#160]
ffff000000011658:	a90b5ff6 	stp	x22, x23, [sp,#176]
ffff00000001165c:	a90c67f8 	stp	x24, x25, [sp,#192]
ffff000000011660:	a90d6ffa 	stp	x26, x27, [sp,#208]
ffff000000011664:	a90e77fc 	stp	x28, x29, [sp,#224]
ffff000000011668:	d5384115 	mrs	x21, sp_el0
ffff00000001166c:	d5384036 	mrs	x22, elr_el1
ffff000000011670:	d5384017 	mrs	x23, spsr_el1
ffff000000011674:	a90f57fe 	stp	x30, x21, [sp,#240]
ffff000000011678:	a9105ff6 	stp	x22, x23, [sp,#256]
ffff00000001167c:	d5385219 	mrs	x25, esr_el1
ffff000000011680:	d35aff38 	lsr	x24, x25, #26
ffff000000011684:	f100571f 	cmp	x24, #0x15
ffff000000011688:	540003a0 	b.eq	ffff0000000116fc <el0_svc>
ffff00000001168c:	f100931f 	cmp	x24, #0x24
ffff000000011690:	54000ac0 	b.eq	ffff0000000117e8 <el0_da>
ffff000000011694:	d10443ff 	sub	sp, sp, #0x110
ffff000000011698:	a90007e0 	stp	x0, x1, [sp]
ffff00000001169c:	a9010fe2 	stp	x2, x3, [sp,#16]
ffff0000000116a0:	a90217e4 	stp	x4, x5, [sp,#32]
ffff0000000116a4:	a9031fe6 	stp	x6, x7, [sp,#48]
ffff0000000116a8:	a90427e8 	stp	x8, x9, [sp,#64]
ffff0000000116ac:	a9052fea 	stp	x10, x11, [sp,#80]
ffff0000000116b0:	a90637ec 	stp	x12, x13, [sp,#96]
ffff0000000116b4:	a9073fee 	stp	x14, x15, [sp,#112]
ffff0000000116b8:	a90847f0 	stp	x16, x17, [sp,#128]
ffff0000000116bc:	a9094ff2 	stp	x18, x19, [sp,#144]
ffff0000000116c0:	a90a57f4 	stp	x20, x21, [sp,#160]
ffff0000000116c4:	a90b5ff6 	stp	x22, x23, [sp,#176]
ffff0000000116c8:	a90c67f8 	stp	x24, x25, [sp,#192]
ffff0000000116cc:	a90d6ffa 	stp	x26, x27, [sp,#208]
ffff0000000116d0:	a90e77fc 	stp	x28, x29, [sp,#224]
ffff0000000116d4:	d5384115 	mrs	x21, sp_el0
ffff0000000116d8:	d5384036 	mrs	x22, elr_el1
ffff0000000116dc:	d5384017 	mrs	x23, spsr_el1
ffff0000000116e0:	a90f57fe 	stp	x30, x21, [sp,#240]
ffff0000000116e4:	a9105ff6 	stp	x22, x23, [sp,#256]
ffff0000000116e8:	d28001a0 	mov	x0, #0xd                   	// #13
ffff0000000116ec:	d5385201 	mrs	x1, esr_el1
ffff0000000116f0:	d5384022 	mrs	x2, elr_el1
ffff0000000116f4:	97ffc601 	bl	ffff000000002ef8 <show_invalid_entry_message>
ffff0000000116f8:	1400008f 	b	ffff000000011934 <err_hang>

ffff0000000116fc <el0_svc>:
ffff0000000116fc:	100039fb 	adr	x27, ffff000000011e38 <sys_call_table>
ffff000000011700:	2a0803fa 	mov	w26, w8
ffff000000011704:	d2800359 	mov	x25, #0x1a                  	// #26
ffff000000011708:	97fffbfd 	bl	ffff0000000106fc <enable_irq>
ffff00000001170c:	eb19035f 	cmp	x26, x25
ffff000000011710:	54000082 	b.cs	ffff000000011720 <ni_sys>
ffff000000011714:	f87a7b70 	ldr	x16, [x27,x26,lsl #3]
ffff000000011718:	d63f0200 	blr	x16
ffff00000001171c:	1400001b 	b	ffff000000011788 <ret_from_syscall>

ffff000000011720 <ni_sys>:
ffff000000011720:	d10443ff 	sub	sp, sp, #0x110
ffff000000011724:	a90007e0 	stp	x0, x1, [sp]
ffff000000011728:	a9010fe2 	stp	x2, x3, [sp,#16]
ffff00000001172c:	a90217e4 	stp	x4, x5, [sp,#32]
ffff000000011730:	a9031fe6 	stp	x6, x7, [sp,#48]
ffff000000011734:	a90427e8 	stp	x8, x9, [sp,#64]
ffff000000011738:	a9052fea 	stp	x10, x11, [sp,#80]
ffff00000001173c:	a90637ec 	stp	x12, x13, [sp,#96]
ffff000000011740:	a9073fee 	stp	x14, x15, [sp,#112]
ffff000000011744:	a90847f0 	stp	x16, x17, [sp,#128]
ffff000000011748:	a9094ff2 	stp	x18, x19, [sp,#144]
ffff00000001174c:	a90a57f4 	stp	x20, x21, [sp,#160]
ffff000000011750:	a90b5ff6 	stp	x22, x23, [sp,#176]
ffff000000011754:	a90c67f8 	stp	x24, x25, [sp,#192]
ffff000000011758:	a90d6ffa 	stp	x26, x27, [sp,#208]
ffff00000001175c:	a90e77fc 	stp	x28, x29, [sp,#224]
ffff000000011760:	d5384115 	mrs	x21, sp_el0
ffff000000011764:	d5384036 	mrs	x22, elr_el1
ffff000000011768:	d5384017 	mrs	x23, spsr_el1
ffff00000001176c:	a90f57fe 	stp	x30, x21, [sp,#240]
ffff000000011770:	a9105ff6 	stp	x22, x23, [sp,#256]
ffff000000011774:	d28001c0 	mov	x0, #0xe                   	// #14
ffff000000011778:	d5385201 	mrs	x1, esr_el1
ffff00000001177c:	d5384022 	mrs	x2, elr_el1
ffff000000011780:	97ffc5de 	bl	ffff000000002ef8 <show_invalid_entry_message>
ffff000000011784:	1400006c 	b	ffff000000011934 <err_hang>

ffff000000011788 <ret_from_syscall>:
ffff000000011788:	97fffbdf 	bl	ffff000000010704 <disable_irq>
ffff00000001178c:	f90003e0 	str	x0, [sp]
ffff000000011790:	a9505ff6 	ldp	x22, x23, [sp,#256]
ffff000000011794:	a94f57fe 	ldp	x30, x21, [sp,#240]
ffff000000011798:	d5184115 	msr	sp_el0, x21
ffff00000001179c:	d5184036 	msr	elr_el1, x22
ffff0000000117a0:	d5184017 	msr	spsr_el1, x23
ffff0000000117a4:	a94007e0 	ldp	x0, x1, [sp]
ffff0000000117a8:	a9410fe2 	ldp	x2, x3, [sp,#16]
ffff0000000117ac:	a94217e4 	ldp	x4, x5, [sp,#32]
ffff0000000117b0:	a9431fe6 	ldp	x6, x7, [sp,#48]
ffff0000000117b4:	a94427e8 	ldp	x8, x9, [sp,#64]
ffff0000000117b8:	a9452fea 	ldp	x10, x11, [sp,#80]
ffff0000000117bc:	a94637ec 	ldp	x12, x13, [sp,#96]
ffff0000000117c0:	a9473fee 	ldp	x14, x15, [sp,#112]
ffff0000000117c4:	a94847f0 	ldp	x16, x17, [sp,#128]
ffff0000000117c8:	a9494ff2 	ldp	x18, x19, [sp,#144]
ffff0000000117cc:	a94a57f4 	ldp	x20, x21, [sp,#160]
ffff0000000117d0:	a94b5ff6 	ldp	x22, x23, [sp,#176]
ffff0000000117d4:	a94c67f8 	ldp	x24, x25, [sp,#192]
ffff0000000117d8:	a94d6ffa 	ldp	x26, x27, [sp,#208]
ffff0000000117dc:	a94e77fc 	ldp	x28, x29, [sp,#224]
ffff0000000117e0:	910443ff 	add	sp, sp, #0x110
ffff0000000117e4:	d69f03e0 	eret

ffff0000000117e8 <el0_da>:
ffff0000000117e8:	97fffbc5 	bl	ffff0000000106fc <enable_irq>
ffff0000000117ec:	d5386000 	mrs	x0, far_el1
ffff0000000117f0:	d5385201 	mrs	x1, esr_el1
ffff0000000117f4:	97ffcb90 	bl	ffff000000004634 <do_mem_abort>
ffff0000000117f8:	f100001f 	cmp	x0, #0x0
ffff0000000117fc:	54000360 	b.eq	ffff000000011868 <el0_da+0x80>
ffff000000011800:	d10443ff 	sub	sp, sp, #0x110
ffff000000011804:	a90007e0 	stp	x0, x1, [sp]
ffff000000011808:	a9010fe2 	stp	x2, x3, [sp,#16]
ffff00000001180c:	a90217e4 	stp	x4, x5, [sp,#32]
ffff000000011810:	a9031fe6 	stp	x6, x7, [sp,#48]
ffff000000011814:	a90427e8 	stp	x8, x9, [sp,#64]
ffff000000011818:	a9052fea 	stp	x10, x11, [sp,#80]
ffff00000001181c:	a90637ec 	stp	x12, x13, [sp,#96]
ffff000000011820:	a9073fee 	stp	x14, x15, [sp,#112]
ffff000000011824:	a90847f0 	stp	x16, x17, [sp,#128]
ffff000000011828:	a9094ff2 	stp	x18, x19, [sp,#144]
ffff00000001182c:	a90a57f4 	stp	x20, x21, [sp,#160]
ffff000000011830:	a90b5ff6 	stp	x22, x23, [sp,#176]
ffff000000011834:	a90c67f8 	stp	x24, x25, [sp,#192]
ffff000000011838:	a90d6ffa 	stp	x26, x27, [sp,#208]
ffff00000001183c:	a90e77fc 	stp	x28, x29, [sp,#224]
ffff000000011840:	d5384115 	mrs	x21, sp_el0
ffff000000011844:	d5384036 	mrs	x22, elr_el1
ffff000000011848:	d5384017 	mrs	x23, spsr_el1
ffff00000001184c:	a90f57fe 	stp	x30, x21, [sp,#240]
ffff000000011850:	a9105ff6 	stp	x22, x23, [sp,#256]
ffff000000011854:	d28001e0 	mov	x0, #0xf                   	// #15
ffff000000011858:	d5385201 	mrs	x1, esr_el1
ffff00000001185c:	d5384022 	mrs	x2, elr_el1
ffff000000011860:	97ffc5a6 	bl	ffff000000002ef8 <show_invalid_entry_message>
ffff000000011864:	14000034 	b	ffff000000011934 <err_hang>
ffff000000011868:	97fffba7 	bl	ffff000000010704 <disable_irq>
ffff00000001186c:	a9505ff6 	ldp	x22, x23, [sp,#256]
ffff000000011870:	a94f57fe 	ldp	x30, x21, [sp,#240]
ffff000000011874:	d5184115 	msr	sp_el0, x21
ffff000000011878:	d5184036 	msr	elr_el1, x22
ffff00000001187c:	d5184017 	msr	spsr_el1, x23
ffff000000011880:	a94007e0 	ldp	x0, x1, [sp]
ffff000000011884:	a9410fe2 	ldp	x2, x3, [sp,#16]
ffff000000011888:	a94217e4 	ldp	x4, x5, [sp,#32]
ffff00000001188c:	a9431fe6 	ldp	x6, x7, [sp,#48]
ffff000000011890:	a94427e8 	ldp	x8, x9, [sp,#64]
ffff000000011894:	a9452fea 	ldp	x10, x11, [sp,#80]
ffff000000011898:	a94637ec 	ldp	x12, x13, [sp,#96]
ffff00000001189c:	a9473fee 	ldp	x14, x15, [sp,#112]
ffff0000000118a0:	a94847f0 	ldp	x16, x17, [sp,#128]
ffff0000000118a4:	a9494ff2 	ldp	x18, x19, [sp,#144]
ffff0000000118a8:	a94a57f4 	ldp	x20, x21, [sp,#160]
ffff0000000118ac:	a94b5ff6 	ldp	x22, x23, [sp,#176]
ffff0000000118b0:	a94c67f8 	ldp	x24, x25, [sp,#192]
ffff0000000118b4:	a94d6ffa 	ldp	x26, x27, [sp,#208]
ffff0000000118b8:	a94e77fc 	ldp	x28, x29, [sp,#224]
ffff0000000118bc:	910443ff 	add	sp, sp, #0x110
ffff0000000118c0:	d69f03e0 	eret

ffff0000000118c4 <ret_from_fork>:
ffff0000000118c4:	97ffc6db 	bl	ffff000000003430 <schedule_tail>
ffff0000000118c8:	b4000093 	cbz	x19, ffff0000000118d8 <ret_to_user>
ffff0000000118cc:	aa1403e0 	mov	x0, x20
ffff0000000118d0:	aa1503e1 	mov	x1, x21
ffff0000000118d4:	d63f0260 	blr	x19

ffff0000000118d8 <ret_to_user>:
ffff0000000118d8:	97fffb8b 	bl	ffff000000010704 <disable_irq>
ffff0000000118dc:	a9505ff6 	ldp	x22, x23, [sp,#256]
ffff0000000118e0:	a94f57fe 	ldp	x30, x21, [sp,#240]
ffff0000000118e4:	d5184115 	msr	sp_el0, x21
ffff0000000118e8:	d5184036 	msr	elr_el1, x22
ffff0000000118ec:	d5184017 	msr	spsr_el1, x23
ffff0000000118f0:	a94007e0 	ldp	x0, x1, [sp]
ffff0000000118f4:	a9410fe2 	ldp	x2, x3, [sp,#16]
ffff0000000118f8:	a94217e4 	ldp	x4, x5, [sp,#32]
ffff0000000118fc:	a9431fe6 	ldp	x6, x7, [sp,#48]
ffff000000011900:	a94427e8 	ldp	x8, x9, [sp,#64]
ffff000000011904:	a9452fea 	ldp	x10, x11, [sp,#80]
ffff000000011908:	a94637ec 	ldp	x12, x13, [sp,#96]
ffff00000001190c:	a9473fee 	ldp	x14, x15, [sp,#112]
ffff000000011910:	a94847f0 	ldp	x16, x17, [sp,#128]
ffff000000011914:	a9494ff2 	ldp	x18, x19, [sp,#144]
ffff000000011918:	a94a57f4 	ldp	x20, x21, [sp,#160]
ffff00000001191c:	a94b5ff6 	ldp	x22, x23, [sp,#176]
ffff000000011920:	a94c67f8 	ldp	x24, x25, [sp,#192]
ffff000000011924:	a94d6ffa 	ldp	x26, x27, [sp,#208]
ffff000000011928:	a94e77fc 	ldp	x28, x29, [sp,#224]
ffff00000001192c:	910443ff 	add	sp, sp, #0x110
ffff000000011930:	d69f03e0 	eret

ffff000000011934 <err_hang>:
ffff000000011934:	14000000 	b	ffff000000011934 <err_hang>

ffff000000011938 <get_el>:
ffff000000011938:	d5384240 	mrs	x0, currentel
ffff00000001193c:	d342fc00 	lsr	x0, x0, #2
ffff000000011940:	d65f03c0 	ret

ffff000000011944 <put32>:
ffff000000011944:	b9000001 	str	w1, [x0]
ffff000000011948:	d65f03c0 	ret

ffff00000001194c <get32>:
ffff00000001194c:	b9400000 	ldr	w0, [x0]
ffff000000011950:	d65f03c0 	ret

ffff000000011954 <delay>:
ffff000000011954:	f1000400 	subs	x0, x0, #0x1
ffff000000011958:	54ffffe1 	b.ne	ffff000000011954 <delay>
ffff00000001195c:	d65f03c0 	ret

ffff000000011960 <set_pgd>:
ffff000000011960:	d5182000 	msr	ttbr0_el1, x0
ffff000000011964:	d508831f 	tlbi	vmalle1is
ffff000000011968:	d5033b9f 	dsb	ish
ffff00000001196c:	d5033fdf 	isb
ffff000000011970:	d65f03c0 	ret

ffff000000011974 <get_pgd>:
ffff000000011974:	d2800001 	mov	x1, #0x0                   	// #0
ffff000000011978:	f9400020 	ldr	x0, [x1]
ffff00000001197c:	d2820000 	mov	x0, #0x1000                	// #4096
ffff000000011980:	d5182000 	msr	ttbr0_el1, x0
ffff000000011984:	f9400020 	ldr	x0, [x1]
ffff000000011988:	d65f03c0 	ret
ffff00000001198c:	52800024 	mov	w4, #0x1                   	// #1
ffff000000011990:	2a0403e0 	mov	w0, w4
ffff000000011994:	d65f03c0 	ret

ffff000000011998 <try_lock>:
ffff000000011998:	885ffc03 	ldaxr	w3, [x0]
ffff00000001199c:	35ffff83 	cbnz	w3, ffff00000001198c <get_pgd+0x18>
ffff0000000119a0:	11000463 	add	w3, w3, #0x1
ffff0000000119a4:	88047c03 	stxr	w4, w3, [x0]
ffff0000000119a8:	35ffff24 	cbnz	w4, ffff00000001198c <get_pgd+0x18>
ffff0000000119ac:	2a0403e0 	mov	w0, w4
ffff0000000119b0:	d65f03c0 	ret

ffff0000000119b4 <loop>:
ffff0000000119b4:	97ffc62a 	bl	ffff00000000325c <schedule>

ffff0000000119b8 <unlock>:
ffff0000000119b8:	885f7c03 	ldxr	w3, [x0]
ffff0000000119bc:	340000c3 	cbz	w3, ffff0000000119d4 <error_unlock>
ffff0000000119c0:	51000463 	sub	w3, w3, #0x1
ffff0000000119c4:	8804fc03 	stlxr	w4, w3, [x0]
ffff0000000119c8:	35ffff64 	cbnz	w4, ffff0000000119b4 <loop>
ffff0000000119cc:	2a0403e0 	mov	w0, w4
ffff0000000119d0:	d65f03c0 	ret

ffff0000000119d4 <error_unlock>:
ffff0000000119d4:	52800020 	mov	w0, #0x1                   	// #1
ffff0000000119d8:	d65f03c0 	ret

ffff0000000119dc <bl_init>:
ffff0000000119dc:	aa1e03e8 	mov	x8, x30
ffff0000000119e0:	d63f0000 	blr	x0
ffff0000000119e4:	aa0803fe 	mov	x30, x8
ffff0000000119e8:	d65f03c0 	ret

Disassembly of section .rodata:

ffff0000000119f0 <interval-0x398>:
ffff0000000119f0:	4f525245 	.word	0x4f525245
ffff0000000119f4:	55203a52 	.word	0x55203a52
ffff0000000119f8:	6c62616e 	.word	0x6c62616e
ffff0000000119fc:	6f742065 	.word	0x6f742065
ffff000000011a00:	616f6c20 	.word	0x616f6c20
ffff000000011a04:	6f722064 	.word	0x6f722064
ffff000000011a08:	6420746f 	.word	0x6420746f
ffff000000011a0c:	63657269 	.word	0x63657269
ffff000000011a10:	79726f74 	.word	0x79726f74
ffff000000011a14:	0000000a 	.word	0x0000000a
ffff000000011a18:	69460d0a 	.word	0x69460d0a
ffff000000011a1c:	5320656c 	.word	0x5320656c
ffff000000011a20:	65747379 	.word	0x65747379
ffff000000011a24:	7453206d 	.word	0x7453206d
ffff000000011a28:	73747261 	.word	0x73747261
ffff000000011a2c:	6e757220 	.word	0x6e757220
ffff000000011a30:	676e696e 	.word	0x676e696e
ffff000000011a34:	2e2e2e2e 	.word	0x2e2e2e2e
ffff000000011a38:	00000d0a 	.word	0x00000d0a
ffff000000011a3c:	00000000 	.word	0x00000000
ffff000000011a40:	656c6946 	.word	0x656c6946
ffff000000011a44:	73795320 	.word	0x73795320
ffff000000011a48:	206d6574 	.word	0x206d6574
ffff000000011a4c:	72617453 	.word	0x72617453
ffff000000011a50:	72207374 	.word	0x72207374
ffff000000011a54:	69656365 	.word	0x69656365
ffff000000011a58:	676e6976 	.word	0x676e6976
ffff000000011a5c:	73656d20 	.word	0x73656d20
ffff000000011a60:	65676173 	.word	0x65676173
ffff000000011a64:	2e2e2e73 	.word	0x2e2e2e73
ffff000000011a68:	000d0a2e 	.word	0x000d0a2e
ffff000000011a6c:	00000000 	.word	0x00000000
ffff000000011a70:	4f525245 	.word	0x4f525245
ffff000000011a74:	42203a52 	.word	0x42203a52
ffff000000011a78:	6d206461 	.word	0x6d206461
ffff000000011a7c:	63696761 	.word	0x63696761
ffff000000011a80:	206e6920 	.word	0x206e6920
ffff000000011a84:	0a52424d 	.word	0x0a52424d
	...
ffff000000011a90:	4f525245 	.word	0x4f525245
ffff000000011a94:	55203a52 	.word	0x55203a52
ffff000000011a98:	6c62616e 	.word	0x6c62616e
ffff000000011a9c:	6f742065 	.word	0x6f742065
ffff000000011aa0:	61657220 	.word	0x61657220
ffff000000011aa4:	6f622064 	.word	0x6f622064
ffff000000011aa8:	7220746f 	.word	0x7220746f
ffff000000011aac:	726f6365 	.word	0x726f6365
ffff000000011ab0:	00000a64 	.word	0x00000a64
ffff000000011ab4:	00000000 	.word	0x00000000
ffff000000011ab8:	4f525245 	.word	0x4f525245
ffff000000011abc:	55203a52 	.word	0x55203a52
ffff000000011ac0:	6f6e6b6e 	.word	0x6f6e6b6e
ffff000000011ac4:	66206e77 	.word	0x66206e77
ffff000000011ac8:	20656c69 	.word	0x20656c69
ffff000000011acc:	74737973 	.word	0x74737973
ffff000000011ad0:	74206d65 	.word	0x74206d65
ffff000000011ad4:	20657079 	.word	0x20657079
ffff000000011ad8:	20726f66 	.word	0x20726f66
ffff000000011adc:	746f6f62 	.word	0x746f6f62
ffff000000011ae0:	0000000a 	.word	0x0000000a
ffff000000011ae4:	00000000 	.word	0x00000000
ffff000000011ae8:	6e6e6143 	.word	0x6e6e6143
ffff000000011aec:	7220746f 	.word	0x7220746f
ffff000000011af0:	20646165 	.word	0x20646165
ffff000000011af4:	63206473 	.word	0x63206473
ffff000000011af8:	20647261 	.word	0x20647261
ffff000000011afc:	636f6c62 	.word	0x636f6c62
ffff000000011b00:	00002e6b 	.word	0x00002e6b
ffff000000011b04:	00000000 	.word	0x00000000
ffff000000011b08:	434e5953 	.word	0x434e5953
ffff000000011b0c:	564e495f 	.word	0x564e495f
ffff000000011b10:	44494c41 	.word	0x44494c41
ffff000000011b14:	314c455f 	.word	0x314c455f
ffff000000011b18:	00000074 	.word	0x00000074
ffff000000011b1c:	00000000 	.word	0x00000000
ffff000000011b20:	5f515249 	.word	0x5f515249
ffff000000011b24:	41564e49 	.word	0x41564e49
ffff000000011b28:	5f44494c 	.word	0x5f44494c
ffff000000011b2c:	74314c45 	.word	0x74314c45
	...
ffff000000011b38:	5f514946 	.word	0x5f514946
ffff000000011b3c:	41564e49 	.word	0x41564e49
ffff000000011b40:	5f44494c 	.word	0x5f44494c
ffff000000011b44:	74314c45 	.word	0x74314c45
	...
ffff000000011b50:	4f525245 	.word	0x4f525245
ffff000000011b54:	4e495f52 	.word	0x4e495f52
ffff000000011b58:	494c4156 	.word	0x494c4156
ffff000000011b5c:	4c455f44 	.word	0x4c455f44
ffff000000011b60:	00005431 	.word	0x00005431
ffff000000011b64:	00000000 	.word	0x00000000
ffff000000011b68:	434e5953 	.word	0x434e5953
ffff000000011b6c:	564e495f 	.word	0x564e495f
ffff000000011b70:	44494c41 	.word	0x44494c41
ffff000000011b74:	314c455f 	.word	0x314c455f
ffff000000011b78:	00000068 	.word	0x00000068
ffff000000011b7c:	00000000 	.word	0x00000000
ffff000000011b80:	5f515249 	.word	0x5f515249
ffff000000011b84:	41564e49 	.word	0x41564e49
ffff000000011b88:	5f44494c 	.word	0x5f44494c
ffff000000011b8c:	68314c45 	.word	0x68314c45
	...
ffff000000011b98:	5f514946 	.word	0x5f514946
ffff000000011b9c:	41564e49 	.word	0x41564e49
ffff000000011ba0:	5f44494c 	.word	0x5f44494c
ffff000000011ba4:	68314c45 	.word	0x68314c45
	...
ffff000000011bb0:	4f525245 	.word	0x4f525245
ffff000000011bb4:	4e495f52 	.word	0x4e495f52
ffff000000011bb8:	494c4156 	.word	0x494c4156
ffff000000011bbc:	4c455f44 	.word	0x4c455f44
ffff000000011bc0:	00006831 	.word	0x00006831
ffff000000011bc4:	00000000 	.word	0x00000000
ffff000000011bc8:	434e5953 	.word	0x434e5953
ffff000000011bcc:	564e495f 	.word	0x564e495f
ffff000000011bd0:	44494c41 	.word	0x44494c41
ffff000000011bd4:	304c455f 	.word	0x304c455f
ffff000000011bd8:	0034365f 	.word	0x0034365f
ffff000000011bdc:	00000000 	.word	0x00000000
ffff000000011be0:	5f515249 	.word	0x5f515249
ffff000000011be4:	41564e49 	.word	0x41564e49
ffff000000011be8:	5f44494c 	.word	0x5f44494c
ffff000000011bec:	5f304c45 	.word	0x5f304c45
ffff000000011bf0:	00003436 	.word	0x00003436
ffff000000011bf4:	00000000 	.word	0x00000000
ffff000000011bf8:	5f514946 	.word	0x5f514946
ffff000000011bfc:	41564e49 	.word	0x41564e49
ffff000000011c00:	5f44494c 	.word	0x5f44494c
ffff000000011c04:	5f304c45 	.word	0x5f304c45
ffff000000011c08:	00003436 	.word	0x00003436
ffff000000011c0c:	00000000 	.word	0x00000000
ffff000000011c10:	4f525245 	.word	0x4f525245
ffff000000011c14:	4e495f52 	.word	0x4e495f52
ffff000000011c18:	494c4156 	.word	0x494c4156
ffff000000011c1c:	4c455f44 	.word	0x4c455f44
ffff000000011c20:	34365f30 	.word	0x34365f30
ffff000000011c24:	00000000 	.word	0x00000000
ffff000000011c28:	434e5953 	.word	0x434e5953
ffff000000011c2c:	564e495f 	.word	0x564e495f
ffff000000011c30:	44494c41 	.word	0x44494c41
ffff000000011c34:	304c455f 	.word	0x304c455f
ffff000000011c38:	0032335f 	.word	0x0032335f
ffff000000011c3c:	00000000 	.word	0x00000000
ffff000000011c40:	5f515249 	.word	0x5f515249
ffff000000011c44:	41564e49 	.word	0x41564e49
ffff000000011c48:	5f44494c 	.word	0x5f44494c
ffff000000011c4c:	5f304c45 	.word	0x5f304c45
ffff000000011c50:	00003233 	.word	0x00003233
ffff000000011c54:	00000000 	.word	0x00000000
ffff000000011c58:	5f514946 	.word	0x5f514946
ffff000000011c5c:	41564e49 	.word	0x41564e49
ffff000000011c60:	5f44494c 	.word	0x5f44494c
ffff000000011c64:	5f304c45 	.word	0x5f304c45
ffff000000011c68:	00003233 	.word	0x00003233
ffff000000011c6c:	00000000 	.word	0x00000000
ffff000000011c70:	4f525245 	.word	0x4f525245
ffff000000011c74:	4e495f52 	.word	0x4e495f52
ffff000000011c78:	494c4156 	.word	0x494c4156
ffff000000011c7c:	4c455f44 	.word	0x4c455f44
ffff000000011c80:	32335f30 	.word	0x32335f30
ffff000000011c84:	00000000 	.word	0x00000000
ffff000000011c88:	434e5953 	.word	0x434e5953
ffff000000011c8c:	5252455f 	.word	0x5252455f
ffff000000011c90:	0000524f 	.word	0x0000524f
ffff000000011c94:	00000000 	.word	0x00000000
ffff000000011c98:	43535953 	.word	0x43535953
ffff000000011c9c:	5f4c4c41 	.word	0x5f4c4c41
ffff000000011ca0:	4f525245 	.word	0x4f525245
ffff000000011ca4:	00000052 	.word	0x00000052
ffff000000011ca8:	202c7325 	.word	0x202c7325
ffff000000011cac:	3a525345 	.word	0x3a525345
ffff000000011cb0:	2c782520 	.word	0x2c782520
ffff000000011cb4:	64646120 	.word	0x64646120
ffff000000011cb8:	73736572 	.word	0x73736572
ffff000000011cbc:	7825203a 	.word	0x7825203a
ffff000000011cc0:	00000a0d 	.word	0x00000a0d
ffff000000011cc4:	00000000 	.word	0x00000000
ffff000000011cc8:	63617473 	.word	0x63617473
ffff000000011ccc:	7369206b 	.word	0x7369206b
ffff000000011cd0:	65766f20 	.word	0x65766f20
ffff000000011cd4:	6f6c6672 	.word	0x6f6c6672
ffff000000011cd8:	0a0d2177 	.word	0x0a0d2177
ffff000000011cdc:	00000000 	.word	0x00000000
ffff000000011ce0:	636f7250 	.word	0x636f7250
ffff000000011ce4:	20737365 	.word	0x20737365
ffff000000011ce8:	616e614d 	.word	0x616e614d
ffff000000011cec:	20726567 	.word	0x20726567
ffff000000011cf0:	72617453 	.word	0x72617453
ffff000000011cf4:	72207374 	.word	0x72207374
ffff000000011cf8:	696e6e75 	.word	0x696e6e75
ffff000000011cfc:	2e2e676e 	.word	0x2e2e676e
ffff000000011d00:	0d0a2e2e 	.word	0x0d0a2e2e
ffff000000011d04:	00000000 	.word	0x00000000
ffff000000011d08:	636f7250 	.word	0x636f7250
ffff000000011d0c:	20737365 	.word	0x20737365
ffff000000011d10:	616e614d 	.word	0x616e614d
ffff000000011d14:	20726567 	.word	0x20726567
ffff000000011d18:	72617453 	.word	0x72617453
ffff000000011d1c:	72207374 	.word	0x72207374
ffff000000011d20:	69656365 	.word	0x69656365
ffff000000011d24:	676e6976 	.word	0x676e6976
ffff000000011d28:	73656d20 	.word	0x73656d20
ffff000000011d2c:	65676173 	.word	0x65676173
ffff000000011d30:	2e2e2e73 	.word	0x2e2e2e73
ffff000000011d34:	000d0a2e 	.word	0x000d0a2e
ffff000000011d38:	72657355 	.word	0x72657355
ffff000000011d3c:	43504920 	.word	0x43504920
ffff000000011d40:	72655320 	.word	0x72655320
ffff000000011d44:	65636976 	.word	0x65636976
ffff000000011d48:	63657220 	.word	0x63657220
ffff000000011d4c:	65766569 	.word	0x65766569
ffff000000011d50:	6d206120 	.word	0x6d206120
ffff000000011d54:	0a216773 	.word	0x0a216773
ffff000000011d58:	0000000d 	.word	0x0000000d
ffff000000011d5c:	00000000 	.word	0x00000000
ffff000000011d60:	68737550 	.word	0x68737550
ffff000000011d64:	5f6d7020 	.word	0x5f6d7020
ffff000000011d68:	6c69616d 	.word	0x6c69616d
ffff000000011d6c:	72726520 	.word	0x72726520
ffff000000011d70:	2021726f 	.word	0x2021726f
ffff000000011d74:	6c69614d 	.word	0x6c69614d
ffff000000011d78:	20786f62 	.word	0x20786f62
ffff000000011d7c:	46207369 	.word	0x46207369
ffff000000011d80:	0a6c6c75 	.word	0x0a6c6c75
ffff000000011d84:	0000000d 	.word	0x0000000d

ffff000000011d88 <interval>:
ffff000000011d88:	00030d40 	.word	0x00030d40
ffff000000011d8c:	00000000 	.word	0x00000000
ffff000000011d90:	00003341 	.word	0x00003341
ffff000000011d94:	00000000 	.word	0x00000000
ffff000000011d98:	54495845 	.word	0x54495845
ffff000000011d9c:	0a78253a 	.word	0x0a78253a
ffff000000011da0:	0000000d 	.word	0x0000000d
ffff000000011da4:	00000000 	.word	0x00000000
ffff000000011da8:	6c696146 	.word	0x6c696146
ffff000000011dac:	00000021 	.word	0x00000021
ffff000000011db0:	6f727245 	.word	0x6f727245
ffff000000011db4:	756e2072 	.word	0x756e2072
ffff000000011db8:	7265626d 	.word	0x7265626d
ffff000000011dbc:	0000203a 	.word	0x0000203a
ffff000000011dc0:	72727563 	.word	0x72727563
ffff000000011dc4:	3a746e65 	.word	0x3a746e65
ffff000000011dc8:	0a782520 	.word	0x0a782520
ffff000000011dcc:	0000000d 	.word	0x0000000d
ffff000000011dd0:	5f6d7361 	.word	0x5f6d7361
ffff000000011dd4:	203a7073 	.word	0x203a7073
ffff000000011dd8:	0d0a7825 	.word	0x0d0a7825
ffff000000011ddc:	00000000 	.word	0x00000000
ffff000000011de0:	5f435049 	.word	0x5f435049
ffff000000011de4:	54534554 	.word	0x54534554
ffff000000011de8:	61745320 	.word	0x61745320
ffff000000011dec:	20737472 	.word	0x20737472
ffff000000011df0:	65636572 	.word	0x65636572
ffff000000011df4:	6e697669 	.word	0x6e697669
ffff000000011df8:	656d2067 	.word	0x656d2067
ffff000000011dfc:	67617373 	.word	0x67617373
ffff000000011e00:	2e2e7365 	.word	0x2e2e7365
ffff000000011e04:	0d0a2e2e 	.word	0x0d0a2e2e
	...
ffff000000011e10:	6e72656b 	.word	0x6e72656b
ffff000000011e14:	6d5f6c65 	.word	0x6d5f6c65
ffff000000011e18:	695f646f 	.word	0x695f646f
ffff000000011e1c:	745f6370 	.word	0x745f6370
ffff000000011e20:	20747365 	.word	0x20747365
ffff000000011e24:	2e766572 	.word	0x2e766572
ffff000000011e28:	3a67736d 	.word	0x3a67736d
ffff000000011e2c:	0d0a6425 	.word	0x0d0a6425
	...

ffff000000011e38 <sys_call_table>:
ffff000000011e38:	000059c8 	.word	0x000059c8
ffff000000011e3c:	ffff0000 	.word	0xffff0000
ffff000000011e40:	00005a04 	.word	0x00005a04
ffff000000011e44:	ffff0000 	.word	0xffff0000
ffff000000011e48:	00005a28 	.word	0x00005a28
ffff000000011e4c:	ffff0000 	.word	0xffff0000
ffff000000011e50:	00005a48 	.word	0x00005a48
ffff000000011e54:	ffff0000 	.word	0xffff0000
ffff000000011e58:	00005a50 	.word	0x00005a50
ffff000000011e5c:	ffff0000 	.word	0xffff0000
ffff000000011e60:	00005a68 	.word	0x00005a68
ffff000000011e64:	ffff0000 	.word	0xffff0000
ffff000000011e68:	00005a9c 	.word	0x00005a9c
ffff000000011e6c:	ffff0000 	.word	0xffff0000
ffff000000011e70:	00005ab0 	.word	0x00005ab0
ffff000000011e74:	ffff0000 	.word	0xffff0000
ffff000000011e78:	00005ad8 	.word	0x00005ad8
ffff000000011e7c:	ffff0000 	.word	0xffff0000
ffff000000011e80:	00005aec 	.word	0x00005aec
ffff000000011e84:	ffff0000 	.word	0xffff0000
ffff000000011e88:	00005b0c 	.word	0x00005b0c
ffff000000011e8c:	ffff0000 	.word	0xffff0000
ffff000000011e90:	00005b24 	.word	0x00005b24
ffff000000011e94:	ffff0000 	.word	0xffff0000
ffff000000011e98:	00005b44 	.word	0x00005b44
ffff000000011e9c:	ffff0000 	.word	0xffff0000
ffff000000011ea0:	00005b64 	.word	0x00005b64
ffff000000011ea4:	ffff0000 	.word	0xffff0000
ffff000000011ea8:	00005b80 	.word	0x00005b80
ffff000000011eac:	ffff0000 	.word	0xffff0000
ffff000000011eb0:	00005ba0 	.word	0x00005ba0
ffff000000011eb4:	ffff0000 	.word	0xffff0000
ffff000000011eb8:	00005cb8 	.word	0x00005cb8
ffff000000011ebc:	ffff0000 	.word	0xffff0000
ffff000000011ec0:	00005ce8 	.word	0x00005ce8
ffff000000011ec4:	ffff0000 	.word	0xffff0000
ffff000000011ec8:	00005d08 	.word	0x00005d08
ffff000000011ecc:	ffff0000 	.word	0xffff0000
ffff000000011ed0:	00005d28 	.word	0x00005d28
ffff000000011ed4:	ffff0000 	.word	0xffff0000
ffff000000011ed8:	00005d48 	.word	0x00005d48
ffff000000011edc:	ffff0000 	.word	0xffff0000
ffff000000011ee0:	00005d68 	.word	0x00005d68
ffff000000011ee4:	ffff0000 	.word	0xffff0000
ffff000000011ee8:	00005d90 	.word	0x00005d90
ffff000000011eec:	ffff0000 	.word	0xffff0000
ffff000000011ef0:	00005db0 	.word	0x00005db0
ffff000000011ef4:	ffff0000 	.word	0xffff0000
ffff000000011ef8:	00005e3c 	.word	0x00005e3c
ffff000000011efc:	ffff0000 	.word	0xffff0000
ffff000000011f00:	00005e54 	.word	0x00005e54
ffff000000011f04:	ffff0000 	.word	0xffff0000
ffff000000011f08:	00005dd0 	.word	0x00005dd0
ffff000000011f0c:	ffff0000 	.word	0xffff0000
ffff000000011f10:	00005dec 	.word	0x00005dec
ffff000000011f14:	ffff0000 	.word	0xffff0000
ffff000000011f18:	00005e04 	.word	0x00005e04
ffff000000011f1c:	ffff0000 	.word	0xffff0000
ffff000000011f20:	00005e20 	.word	0x00005e20
ffff000000011f24:	ffff0000 	.word	0xffff0000
ffff000000011f28:	00005e6c 	.word	0x00005e6c
ffff000000011f2c:	ffff0000 	.word	0xffff0000
ffff000000011f30:	00005eb0 	.word	0x00005eb0
ffff000000011f34:	ffff0000 	.word	0xffff0000
ffff000000011f38:	73550a0d 	.word	0x73550a0d
ffff000000011f3c:	70207265 	.word	0x70207265
ffff000000011f40:	65636f72 	.word	0x65636f72
ffff000000011f44:	73207373 	.word	0x73207373
ffff000000011f48:	74726174 	.word	0x74726174
ffff000000011f4c:	206f7420 	.word	0x206f7420
ffff000000011f50:	2e746573 	.word	0x2e746573
ffff000000011f54:	204c4520 	.word	0x204c4520
ffff000000011f58:	0a0d6425 	.word	0x0a0d6425
ffff000000011f5c:	00000000 	.word	0x00000000
ffff000000011f60:	20544146 	.word	0x20544146
ffff000000011f64:	74726170 	.word	0x74726170
ffff000000011f68:	6f697469 	.word	0x6f697469
ffff000000011f6c:	6f6e206e 	.word	0x6f6e206e
ffff000000011f70:	6f662074 	.word	0x6f662074
ffff000000011f74:	3f646e75 	.word	0x3f646e75
ffff000000011f78:	0d0a3f3f 	.word	0x0d0a3f3f
ffff000000011f7c:	00000000 	.word	0x00000000
ffff000000011f80:	6f727265 	.word	0x6f727265
ffff000000011f84:	68772072 	.word	0x68772072
ffff000000011f88:	20656c69 	.word	0x20656c69
ffff000000011f8c:	72617473 	.word	0x72617473
ffff000000011f90:	676e6974 	.word	0x676e6974
ffff000000011f94:	6f727020 	.word	0x6f727020
ffff000000011f98:	73736563 	.word	0x73736563
ffff000000011f9c:	6e616d20 	.word	0x6e616d20
ffff000000011fa0:	72656761 	.word	0x72656761
ffff000000011fa4:	000d0a20 	.word	0x000d0a20
ffff000000011fa8:	6f727265 	.word	0x6f727265
ffff000000011fac:	68772072 	.word	0x68772072
ffff000000011fb0:	20656c69 	.word	0x20656c69
ffff000000011fb4:	72617473 	.word	0x72617473
ffff000000011fb8:	676e6974 	.word	0x676e6974
ffff000000011fbc:	72656b20 	.word	0x72656b20
ffff000000011fc0:	206c656e 	.word	0x206c656e
ffff000000011fc4:	636f7270 	.word	0x636f7270
ffff000000011fc8:	0a737365 	.word	0x0a737365
ffff000000011fcc:	0000000d 	.word	0x0000000d
ffff000000011fd0:	434d4d45 	.word	0x434d4d45
ffff000000011fd4:	7453203a 	.word	0x7453203a
ffff000000011fd8:	73757461 	.word	0x73757461
ffff000000011fdc:	3025203a 	.word	0x3025203a
ffff000000011fe0:	202c7838 	.word	0x202c7838
ffff000000011fe4:	746e6f63 	.word	0x746e6f63
ffff000000011fe8:	316c6f72 	.word	0x316c6f72
ffff000000011fec:	3025203a 	.word	0x3025203a
ffff000000011ff0:	202c7838 	.word	0x202c7838
ffff000000011ff4:	65746e69 	.word	0x65746e69
ffff000000011ff8:	70757272 	.word	0x70757272
ffff000000011ffc:	25203a74 	.word	0x25203a74
ffff000000012000:	0a783830 	.word	0x0a783830
ffff000000012004:	00000000 	.word	0x00000000
ffff000000012008:	434d4d45 	.word	0x434d4d45
ffff00000001200c:	6f43203a 	.word	0x6f43203a
ffff000000012010:	6e616d6d 	.word	0x6e616d6d
ffff000000012014:	73252064 	.word	0x73252064
ffff000000012018:	73657220 	.word	0x73657220
ffff00000001201c:	30252070 	.word	0x30252070
ffff000000012020:	203a7838 	.word	0x203a7838
ffff000000012024:	78383025 	.word	0x78383025
ffff000000012028:	38302520 	.word	0x38302520
ffff00000001202c:	30252078 	.word	0x30252078
ffff000000012030:	25207838 	.word	0x25207838
ffff000000012034:	0a783830 	.word	0x0a783830
	...
ffff000000012040:	434d4d45 	.word	0x434d4d45
ffff000000012044:	6157203a 	.word	0x6157203a
ffff000000012048:	66207469 	.word	0x66207469
ffff00000001204c:	6920726f 	.word	0x6920726f
ffff000000012050:	7265746e 	.word	0x7265746e
ffff000000012054:	74707572 	.word	0x74707572
ffff000000012058:	38302520 	.word	0x38302520
ffff00000001205c:	69742078 	.word	0x69742078
ffff000000012060:	756f656d 	.word	0x756f656d
ffff000000012064:	25203a74 	.word	0x25203a74
ffff000000012068:	20783830 	.word	0x20783830
ffff00000001206c:	78383025 	.word	0x78383025
ffff000000012070:	38302520 	.word	0x38302520
ffff000000012074:	00000a78 	.word	0x00000a78
ffff000000012078:	434d4d45 	.word	0x434d4d45
ffff00000001207c:	7245203a 	.word	0x7245203a
ffff000000012080:	20726f72 	.word	0x20726f72
ffff000000012084:	74696177 	.word	0x74696177
ffff000000012088:	20676e69 	.word	0x20676e69
ffff00000001208c:	20726f66 	.word	0x20726f66
ffff000000012090:	65746e69 	.word	0x65746e69
ffff000000012094:	70757272 	.word	0x70757272
ffff000000012098:	25203a74 	.word	0x25203a74
ffff00000001209c:	20783830 	.word	0x20783830
ffff0000000120a0:	78383025 	.word	0x78383025
ffff0000000120a4:	38302520 	.word	0x38302520
ffff0000000120a8:	00000a78 	.word	0x00000a78
ffff0000000120ac:	00000000 	.word	0x00000000
ffff0000000120b0:	434d4d45 	.word	0x434d4d45
ffff0000000120b4:	6157203a 	.word	0x6157203a
ffff0000000120b8:	66207469 	.word	0x66207469
ffff0000000120bc:	6320726f 	.word	0x6320726f
ffff0000000120c0:	616d6d6f 	.word	0x616d6d6f
ffff0000000120c4:	6120646e 	.word	0x6120646e
ffff0000000120c8:	74726f62 	.word	0x74726f62
ffff0000000120cc:	203a6465 	.word	0x203a6465
ffff0000000120d0:	78383025 	.word	0x78383025
ffff0000000120d4:	38302520 	.word	0x38302520
ffff0000000120d8:	30252078 	.word	0x30252078
ffff0000000120dc:	000a7838 	.word	0x000a7838
ffff0000000120e0:	434d4d45 	.word	0x434d4d45
ffff0000000120e4:	6157203a 	.word	0x6157203a
ffff0000000120e8:	66207469 	.word	0x66207469
ffff0000000120ec:	6420726f 	.word	0x6420726f
ffff0000000120f0:	20617461 	.word	0x20617461
ffff0000000120f4:	726f6261 	.word	0x726f6261
ffff0000000120f8:	3a646574 	.word	0x3a646574
ffff0000000120fc:	38302520 	.word	0x38302520
ffff000000012100:	30252078 	.word	0x30252078
ffff000000012104:	25207838 	.word	0x25207838
ffff000000012108:	0a783830 	.word	0x0a783830
ffff00000001210c:	00000000 	.word	0x00000000
ffff000000012110:	434d4d45 	.word	0x434d4d45
ffff000000012114:	6553203a 	.word	0x6553203a
ffff000000012118:	6e69646e 	.word	0x6e69646e
ffff00000001211c:	6f632067 	.word	0x6f632067
ffff000000012120:	6e616d6d 	.word	0x6e616d6d
ffff000000012124:	73252064 	.word	0x73252064
ffff000000012128:	646f6320 	.word	0x646f6320
ffff00000001212c:	30252065 	.word	0x30252065
ffff000000012130:	61207838 	.word	0x61207838
ffff000000012134:	25206772 	.word	0x25206772
ffff000000012138:	000d0a78 	.word	0x000d0a78
ffff00000001213c:	00000000 	.word	0x00000000
ffff000000012140:	434d4d45 	.word	0x434d4d45
ffff000000012144:	6954203a 	.word	0x6954203a
ffff000000012148:	756f656d 	.word	0x756f656d
ffff00000001214c:	61772074 	.word	0x61772074
ffff000000012150:	6e697469 	.word	0x6e697469
ffff000000012154:	6f662067 	.word	0x6f662067
ffff000000012158:	65722072 	.word	0x65722072
ffff00000001215c:	20796461 	.word	0x20796461
ffff000000012160:	72206f74 	.word	0x72206f74
ffff000000012164:	0a646165 	.word	0x0a646165
ffff000000012168:	0000000d 	.word	0x0000000d
ffff00000001216c:	00000000 	.word	0x00000000
ffff000000012170:	434d4d45 	.word	0x434d4d45
ffff000000012174:	4553203a 	.word	0x4553203a
ffff000000012178:	535f444e 	.word	0x535f444e
ffff00000001217c:	45205243 	.word	0x45205243
ffff000000012180:	203a5252 	.word	0x203a5252
ffff000000012184:	25207825 	.word	0x25207825
ffff000000012188:	78252078 	.word	0x78252078
ffff00000001218c:	00000d0a 	.word	0x00000d0a
ffff000000012190:	434d4d45 	.word	0x434d4d45
ffff000000012194:	6552203a 	.word	0x6552203a
ffff000000012198:	6e696461 	.word	0x6e696461
ffff00000001219c:	43532067 	.word	0x43532067
ffff0000000121a0:	6f202c52 	.word	0x6f202c52
ffff0000000121a4:	20796c6e 	.word	0x20796c6e
ffff0000000121a8:	64616572 	.word	0x64616572
ffff0000000121ac:	20642520 	.word	0x20642520
ffff0000000121b0:	64726f77 	.word	0x64726f77
ffff0000000121b4:	000d0a73 	.word	0x000d0a73
ffff0000000121b8:	434d4d45 	.word	0x434d4d45
ffff0000000121bc:	6573203a 	.word	0x6573203a
ffff0000000121c0:	6e697474 	.word	0x6e697474
ffff0000000121c4:	6c632067 	.word	0x6c632067
ffff0000000121c8:	206b636f 	.word	0x206b636f
ffff0000000121cc:	65657073 	.word	0x65657073
ffff0000000121d0:	6f742064 	.word	0x6f742064
ffff0000000121d4:	2e642520 	.word	0x2e642520
ffff0000000121d8:	00000d0a 	.word	0x00000d0a
ffff0000000121dc:	00000000 	.word	0x00000000
ffff0000000121e0:	434d4d45 	.word	0x434d4d45
ffff0000000121e4:	6553203a 	.word	0x6553203a
ffff0000000121e8:	6c632074 	.word	0x6c632074
ffff0000000121ec:	3a6b636f 	.word	0x3a6b636f
ffff0000000121f0:	6d697420 	.word	0x6d697420
ffff0000000121f4:	74756f65 	.word	0x74756f65
ffff0000000121f8:	69617720 	.word	0x69617720
ffff0000000121fc:	676e6974 	.word	0x676e6974
ffff000000012200:	726f6620 	.word	0x726f6620
ffff000000012204:	686e6920 	.word	0x686e6920
ffff000000012208:	74696269 	.word	0x74696269
ffff00000001220c:	616c6620 	.word	0x616c6620
ffff000000012210:	202e7367 	.word	0x202e7367
ffff000000012214:	74617453 	.word	0x74617453
ffff000000012218:	25207375 	.word	0x25207375
ffff00000001221c:	0a2e7830 	.word	0x0a2e7830
ffff000000012220:	0000000d 	.word	0x0000000d
ffff000000012224:	00000000 	.word	0x00000000
ffff000000012228:	434d4d45 	.word	0x434d4d45
ffff00000001222c:	5245203a 	.word	0x5245203a
ffff000000012230:	3a524f52 	.word	0x3a524f52
ffff000000012234:	69616620 	.word	0x69616620
ffff000000012238:	2064656c 	.word	0x2064656c
ffff00000001223c:	67206f74 	.word	0x67206f74
ffff000000012240:	73207465 	.word	0x73207465
ffff000000012244:	6c626174 	.word	0x6c626174
ffff000000012248:	6c632065 	.word	0x6c632065
ffff00000001224c:	2e6b636f 	.word	0x2e6b636f
ffff000000012250:	00000d0a 	.word	0x00000d0a
ffff000000012254:	00000000 	.word	0x00000000
ffff000000012258:	434d4d45 	.word	0x434d4d45
ffff00000001225c:	6572203a 	.word	0x6572203a
ffff000000012260:	20746573 	.word	0x20746573
ffff000000012264:	64726163 	.word	0x64726163
ffff000000012268:	000d0a2e 	.word	0x000d0a2e
ffff00000001226c:	00000000 	.word	0x00000000
ffff000000012270:	434d4d45 	.word	0x434d4d45
ffff000000012274:	5245203a 	.word	0x5245203a
ffff000000012278:	3a524f52 	.word	0x3a524f52
ffff00000001227c:	69616620 	.word	0x69616620
ffff000000012280:	2064656c 	.word	0x2064656c
ffff000000012284:	72206f74 	.word	0x72206f74
ffff000000012288:	74657365 	.word	0x74657365
ffff00000001228c:	000d0a2e 	.word	0x000d0a2e
ffff000000012290:	434d4d45 	.word	0x434d4d45
ffff000000012294:	4341203a 	.word	0x4341203a
ffff000000012298:	3134444d 	.word	0x3134444d
ffff00000001229c:	74657220 	.word	0x74657220
ffff0000000122a0:	656e7275 	.word	0x656e7275
ffff0000000122a4:	6f6e2064 	.word	0x6f6e2064
ffff0000000122a8:	69742d6e 	.word	0x69742d6e
ffff0000000122ac:	756f656d 	.word	0x756f656d
ffff0000000122b0:	72652074 	.word	0x72652074
ffff0000000122b4:	20726f72 	.word	0x20726f72
ffff0000000122b8:	0d0a6425 	.word	0x0d0a6425
ffff0000000122bc:	00000000 	.word	0x00000000
ffff0000000122c0:	434d4d45 	.word	0x434d4d45
ffff0000000122c4:	7254203a 	.word	0x7254203a
ffff0000000122c8:	66736e61 	.word	0x66736e61
ffff0000000122cc:	65207265 	.word	0x65207265
ffff0000000122d0:	726f7272 	.word	0x726f7272
ffff0000000122d4:	6c6e6f20 	.word	0x6c6e6f20
ffff0000000122d8:	6f642079 	.word	0x6f642079
ffff0000000122dc:	2520656e 	.word	0x2520656e
ffff0000000122e0:	64252f64 	.word	0x64252f64
ffff0000000122e4:	6f6c6220 	.word	0x6f6c6220
ffff0000000122e8:	0a736b63 	.word	0x0a736b63
ffff0000000122ec:	0000000d 	.word	0x0000000d
ffff0000000122f0:	434d4d45 	.word	0x434d4d45
ffff0000000122f4:	7254203a 	.word	0x7254203a
ffff0000000122f8:	66736e61 	.word	0x66736e61
ffff0000000122fc:	203a7265 	.word	0x203a7265
ffff000000012300:	78383025 	.word	0x78383025
ffff000000012304:	38302520 	.word	0x38302520
ffff000000012308:	30252078 	.word	0x30252078
ffff00000001230c:	25207838 	.word	0x25207838
ffff000000012310:	0a783830 	.word	0x0a783830
ffff000000012314:	00000000 	.word	0x00000000
ffff000000012318:	434d4d45 	.word	0x434d4d45
ffff00000001231c:	7245203a 	.word	0x7245203a
ffff000000012320:	20726f72 	.word	0x20726f72
ffff000000012324:	70736572 	.word	0x70736572
ffff000000012328:	65736e6f 	.word	0x65736e6f
ffff00000001232c:	6f726620 	.word	0x6f726620
ffff000000012330:	7473206d 	.word	0x7473206d
ffff000000012334:	7420706f 	.word	0x7420706f
ffff000000012338:	736e6172 	.word	0x736e6172
ffff00000001233c:	7373696d 	.word	0x7373696d
ffff000000012340:	3a6e6f69 	.word	0x3a6e6f69
ffff000000012344:	0a642520 	.word	0x0a642520
ffff000000012348:	0000000d 	.word	0x0000000d
ffff00000001234c:	00000000 	.word	0x00000000
ffff000000012350:	434d4d45 	.word	0x434d4d45
ffff000000012354:	6954203a 	.word	0x6954203a
ffff000000012358:	756f656d 	.word	0x756f656d
ffff00000001235c:	61772074 	.word	0x61772074
ffff000000012360:	6e697469 	.word	0x6e697469
ffff000000012364:	6f662067 	.word	0x6f662067
ffff000000012368:	61642072 	.word	0x61642072
ffff00000001236c:	64206174 	.word	0x64206174
ffff000000012370:	0a656e6f 	.word	0x0a656e6f
ffff000000012374:	00000000 	.word	0x00000000
ffff000000012378:	434d4d45 	.word	0x434d4d45
ffff00000001237c:	7265203a 	.word	0x7265203a
ffff000000012380:	6e697361 	.word	0x6e697361
ffff000000012384:	6c622067 	.word	0x6c622067
ffff000000012388:	736b636f 	.word	0x736b636f
ffff00000001238c:	6f726620 	.word	0x6f726620
ffff000000012390:	6425206d 	.word	0x6425206d
ffff000000012394:	206f7420 	.word	0x206f7420
ffff000000012398:	000a6425 	.word	0x000a6425
ffff00000001239c:	00000000 	.word	0x00000000
ffff0000000123a0:	434d4d45 	.word	0x434d4d45
ffff0000000123a4:	6954203a 	.word	0x6954203a
ffff0000000123a8:	756f656d 	.word	0x756f656d
ffff0000000123ac:	61772074 	.word	0x61772074
ffff0000000123b0:	6e697469 	.word	0x6e697469
ffff0000000123b4:	6f662067 	.word	0x6f662067
ffff0000000123b8:	72652072 	.word	0x72652072
ffff0000000123bc:	3a657361 	.word	0x3a657361
ffff0000000123c0:	20782520 	.word	0x20782520
ffff0000000123c4:	0d0a7825 	.word	0x0d0a7825
	...
ffff0000000123d0:	434d4d45 	.word	0x434d4d45
ffff0000000123d4:	7542203a 	.word	0x7542203a
ffff0000000123d8:	69772073 	.word	0x69772073
ffff0000000123dc:	20687464 	.word	0x20687464
ffff0000000123e0:	20746573 	.word	0x20746573
ffff0000000123e4:	34206f74 	.word	0x34206f74
ffff0000000123e8:	00000d0a 	.word	0x00000d0a
ffff0000000123ec:	00000000 	.word	0x00000000
ffff0000000123f0:	0000203a 	.word	0x0000203a
ffff0000000123f4:	00000000 	.word	0x00000000
ffff0000000123f8:	4f525245 	.word	0x4f525245
ffff0000000123fc:	66203a52 	.word	0x66203a52
ffff000000012400:	656c6961 	.word	0x656c6961
ffff000000012404:	6f742064 	.word	0x6f742064
ffff000000012408:	6e657320 	.word	0x6e657320
ffff00000001240c:	44532064 	.word	0x44532064
ffff000000012410:	50504120 	.word	0x50504120
ffff000000012414:	6d6f6320 	.word	0x6d6f6320
ffff000000012418:	646e616d 	.word	0x646e616d
ffff00000001241c:	0000000a 	.word	0x0000000a
ffff000000012420:	4f525245 	.word	0x4f525245
ffff000000012424:	45203a52 	.word	0x45203a52
ffff000000012428:	20434d4d 	.word	0x20434d4d
ffff00000001242c:	79737562 	.word	0x79737562
ffff000000012430:	0000000a 	.word	0x0000000a
ffff000000012434:	00000000 	.word	0x00000000
ffff000000012438:	4f525245 	.word	0x4f525245
ffff00000001243c:	66203a52 	.word	0x66203a52
ffff000000012440:	656c6961 	.word	0x656c6961
ffff000000012444:	6f742064 	.word	0x6f742064
ffff000000012448:	6e657320 	.word	0x6e657320
ffff00000001244c:	4d452064 	.word	0x4d452064
ffff000000012450:	6320434d 	.word	0x6320434d
ffff000000012454:	616d6d6f 	.word	0x616d6d6f
ffff000000012458:	000a646e 	.word	0x000a646e
ffff00000001245c:	00000000 	.word	0x00000000
ffff000000012460:	5252450d 	.word	0x5252450d
ffff000000012464:	203a524f 	.word	0x203a524f
ffff000000012468:	656d6954 	.word	0x656d6954
ffff00000001246c:	2074756f 	.word	0x2074756f
ffff000000012470:	74696177 	.word	0x74696177
ffff000000012474:	20676e69 	.word	0x20676e69
ffff000000012478:	20726f66 	.word	0x20726f66
ffff00000001247c:	64616572 	.word	0x64616572
ffff000000012480:	6f742079 	.word	0x6f742079
ffff000000012484:	61657220 	.word	0x61657220
ffff000000012488:	00000a64 	.word	0x00000a64
ffff00000001248c:	00000000 	.word	0x00000000
ffff000000012490:	4f525245 	.word	0x4f525245
ffff000000012494:	74203a52 	.word	0x74203a52
ffff000000012498:	6f656d69 	.word	0x6f656d69
ffff00000001249c:	77207475 	.word	0x77207475
ffff0000000124a0:	69746961 	.word	0x69746961
ffff0000000124a4:	6620676e 	.word	0x6620676e
ffff0000000124a8:	6920726f 	.word	0x6920726f
ffff0000000124ac:	6269686e 	.word	0x6269686e
ffff0000000124b0:	66207469 	.word	0x66207469
ffff0000000124b4:	0a67616c 	.word	0x0a67616c
	...
ffff0000000124c0:	4f525245 	.word	0x4f525245
ffff0000000124c4:	66203a52 	.word	0x66203a52
ffff0000000124c8:	656c6961 	.word	0x656c6961
ffff0000000124cc:	6f742064 	.word	0x6f742064
ffff0000000124d0:	74656720 	.word	0x74656720
ffff0000000124d4:	61747320 	.word	0x61747320
ffff0000000124d8:	20656c62 	.word	0x20656c62
ffff0000000124dc:	636f6c63 	.word	0x636f6c63
ffff0000000124e0:	00000a6b 	.word	0x00000a6b
ffff0000000124e4:	00000000 	.word	0x00000000
ffff0000000124e8:	434d4d45 	.word	0x434d4d45
ffff0000000124ec:	5047203a 	.word	0x5047203a
ffff0000000124f0:	73204f49 	.word	0x73204f49
ffff0000000124f4:	75207465 	.word	0x75207465
ffff0000000124f8:	00000a70 	.word	0x00000a70
ffff0000000124fc:	00000000 	.word	0x00000000
ffff000000012500:	4f525245 	.word	0x4f525245
ffff000000012504:	66203a52 	.word	0x66203a52
ffff000000012508:	656c6961 	.word	0x656c6961
ffff00000001250c:	6f742064 	.word	0x6f742064
ffff000000012510:	73657220 	.word	0x73657220
ffff000000012514:	45207465 	.word	0x45207465
ffff000000012518:	0a434d4d 	.word	0x0a434d4d
ffff00000001251c:	00000000 	.word	0x00000000
ffff000000012520:	434d4d45 	.word	0x434d4d45
ffff000000012524:	6572203a 	.word	0x6572203a
ffff000000012528:	20746573 	.word	0x20746573
ffff00000001252c:	000a4b4f 	.word	0x000a4b4f
ffff000000012530:	434d4d45 	.word	0x434d4d45
ffff000000012534:	4d43203a 	.word	0x4d43203a
ffff000000012538:	45535f44 	.word	0x45535f44
ffff00000001253c:	4f5f444e 	.word	0x4f5f444e
ffff000000012540:	4f435f50 	.word	0x4f435f50
ffff000000012544:	7220444e 	.word	0x7220444e
ffff000000012548:	72757465 	.word	0x72757465
ffff00000001254c:	2064656e 	.word	0x2064656e
	...
ffff000000012558:	504d4f43 	.word	0x504d4f43
ffff00000001255c:	4554454c 	.word	0x4554454c
ffff000000012560:	00000020 	.word	0x00000020
ffff000000012564:	00000000 	.word	0x00000000
ffff000000012568:	544c4f56 	.word	0x544c4f56
ffff00000001256c:	20454741 	.word	0x20454741
	...
ffff000000012578:	20534343 	.word	0x20534343
ffff00000001257c:	00000000 	.word	0x00000000
ffff000000012580:	0000000a 	.word	0x0000000a
ffff000000012584:	00000000 	.word	0x00000000
ffff000000012588:	4f525245 	.word	0x4f525245
ffff00000001258c:	45203a52 	.word	0x45203a52
ffff000000012590:	20434d4d 	.word	0x20434d4d
ffff000000012594:	444d4341 	.word	0x444d4341
ffff000000012598:	72203134 	.word	0x72203134
ffff00000001259c:	72757465 	.word	0x72757465
ffff0000000125a0:	2064656e 	.word	0x2064656e
ffff0000000125a4:	6f727265 	.word	0x6f727265
ffff0000000125a8:	00000a72 	.word	0x00000a72
ffff0000000125ac:	00000000 	.word	0x00000000
ffff0000000125b0:	434d4d45 	.word	0x434d4d45
ffff0000000125b4:	4d43203a 	.word	0x4d43203a
ffff0000000125b8:	45535f44 	.word	0x45535f44
ffff0000000125bc:	525f444e 	.word	0x525f444e
ffff0000000125c0:	415f4c45 	.word	0x415f4c45
ffff0000000125c4:	20524444 	.word	0x20524444
ffff0000000125c8:	75746572 	.word	0x75746572
ffff0000000125cc:	64656e72 	.word	0x64656e72
ffff0000000125d0:	00000020 	.word	0x00000020
ffff0000000125d4:	00000000 	.word	0x00000000
ffff0000000125d8:	434d4d45 	.word	0x434d4d45
ffff0000000125dc:	7573203a 	.word	0x7573203a
ffff0000000125e0:	726f7070 	.word	0x726f7070
ffff0000000125e4:	00207374 	.word	0x00207374
ffff0000000125e8:	5f544553 	.word	0x5f544553
ffff0000000125ec:	434b4c42 	.word	0x434b4c42
ffff0000000125f0:	0020544e 	.word	0x0020544e
ffff0000000125f4:	00000000 	.word	0x00000000
ffff0000000125f8:	65640d0a 	.word	0x65640d0a
ffff0000000125fc:	65636976 	.word	0x65636976
ffff000000012600:	20202020 	.word	0x20202020
ffff000000012604:	70797420 	.word	0x70797420
ffff000000012608:	20202065 	.word	0x20202065
ffff00000001260c:	75732020 	.word	0x75732020
ffff000000012610:	726f7070 	.word	0x726f7070
ffff000000012614:	20202074 	.word	0x20202074
ffff000000012618:	6f6d2020 	.word	0x6f6d2020
ffff00000001261c:	65746e75 	.word	0x65746e75
ffff000000012620:	000d0a64 	.word	0x000d0a64
ffff000000012624:	00000000 	.word	0x00000000
ffff000000012628:	25616473 	.word	0x25616473
ffff00000001262c:	20202064 	.word	0x20202064
ffff000000012630:	20202020 	.word	0x20202020
ffff000000012634:	00000000 	.word	0x00000000
ffff000000012638:	33544146 	.word	0x33544146
ffff00000001263c:	20202032 	.word	0x20202032
ffff000000012640:	00000020 	.word	0x00000020
ffff000000012644:	00000000 	.word	0x00000000
ffff000000012648:	20736579 	.word	0x20736579
ffff00000001264c:	20202020 	.word	0x20202020
ffff000000012650:	20202020 	.word	0x20202020
ffff000000012654:	00000000 	.word	0x00000000
ffff000000012658:	746f6f72 	.word	0x746f6f72
ffff00000001265c:	2873252f 	.word	0x2873252f
ffff000000012660:	65736572 	.word	0x65736572
ffff000000012664:	64657672 	.word	0x64657672
ffff000000012668:	20796220 	.word	0x20796220
ffff00000001266c:	74737973 	.word	0x74737973
ffff000000012670:	0a296d65 	.word	0x0a296d65
ffff000000012674:	0000000d 	.word	0x0000000d
ffff000000012678:	746f6f72 	.word	0x746f6f72
ffff00000001267c:	0a73252f 	.word	0x0a73252f
ffff000000012680:	0000000d 	.word	0x0000000d
ffff000000012684:	00000000 	.word	0x00000000
ffff000000012688:	31544146 	.word	0x31544146
ffff00000001268c:	20202036 	.word	0x20202036
ffff000000012690:	00000020 	.word	0x00000020
ffff000000012694:	00000000 	.word	0x00000000
ffff000000012698:	00206f6e 	.word	0x00206f6e
ffff00000001269c:	00000000 	.word	0x00000000
ffff0000000126a0:	20202020 	.word	0x20202020
ffff0000000126a4:	20202020 	.word	0x20202020
ffff0000000126a8:	0a6f6e20 	.word	0x0a6f6e20
ffff0000000126ac:	0000000d 	.word	0x0000000d
ffff0000000126b0:	4e4b4e55 	.word	0x4e4b4e55
ffff0000000126b4:	204e574f 	.word	0x204e574f
ffff0000000126b8:	206f6e20 	.word	0x206f6e20
ffff0000000126bc:	20202020 	.word	0x20202020
ffff0000000126c0:	20202020 	.word	0x20202020
ffff0000000126c4:	0a6f6e20 	.word	0x0a6f6e20
ffff0000000126c8:	0000000d 	.word	0x0000000d
ffff0000000126cc:	00000000 	.word	0x00000000
ffff0000000126d0:	00000d0a 	.word	0x00000d0a
ffff0000000126d4:	00000000 	.word	0x00000000
ffff0000000126d8:	20746f4e 	.word	0x20746f4e
ffff0000000126dc:	70707573 	.word	0x70707573
ffff0000000126e0:	2074726f 	.word	0x2074726f
ffff0000000126e4:	74207825 	.word	0x74207825
ffff0000000126e8:	20657079 	.word	0x20657079
ffff0000000126ec:	46206e69 	.word	0x46206e69
ffff0000000126f0:	20656c69 	.word	0x20656c69
ffff0000000126f4:	74737973 	.word	0x74737973
ffff0000000126f8:	00006d65 	.word	0x00006d65
ffff0000000126fc:	00000000 	.word	0x00000000
ffff000000012700:	706d6f43 	.word	0x706d6f43
ffff000000012704:	6e656e6f 	.word	0x6e656e6f
ffff000000012708:	72203a74 	.word	0x72203a74
ffff00000001270c:	20646165 	.word	0x20646165
ffff000000012710:	656c6966 	.word	0x656c6966
ffff000000012714:	214b4f20 	.word	0x214b4f20
ffff000000012718:	00000d0a 	.word	0x00000d0a
ffff00000001271c:	00000000 	.word	0x00000000
ffff000000012720:	2d2d2d2d 	.word	0x2d2d2d2d
ffff000000012724:	2d2d2d2d 	.word	0x2d2d2d2d
ffff000000012728:	2d2d2d2d 	.word	0x2d2d2d2d
ffff00000001272c:	2d2d2d2d 	.word	0x2d2d2d2d
ffff000000012730:	2d2d2d2d 	.word	0x2d2d2d2d
ffff000000012734:	6f432d2d 	.word	0x6f432d2d
ffff000000012738:	6e6f706d 	.word	0x6e6f706d
ffff00000001273c:	20746e65 	.word	0x20746e65
ffff000000012740:	74696e69 	.word	0x74696e69
ffff000000012744:	2d6c6169 	.word	0x2d6c6169
ffff000000012748:	2d2d2d2d 	.word	0x2d2d2d2d
ffff00000001274c:	2d2d2d2d 	.word	0x2d2d2d2d
ffff000000012750:	2d2d2d2d 	.word	0x2d2d2d2d
ffff000000012754:	2d2d2d2d 	.word	0x2d2d2d2d
ffff000000012758:	2d2d2d2d 	.word	0x2d2d2d2d
ffff00000001275c:	000d0a2d 	.word	0x000d0a2d
ffff000000012760:	6f4e0d0a 	.word	0x6f4e0d0a
ffff000000012764:	4c452074 	.word	0x4c452074
ffff000000012768:	6f662046 	.word	0x6f662046
ffff00000001276c:	74616d72 	.word	0x74616d72
ffff000000012770:	00000021 	.word	0x00000021
ffff000000012774:	00000000 	.word	0x00000000
ffff000000012778:	74696e69 	.word	0x74696e69
ffff00000001277c:	6d6f635f 	.word	0x6d6f635f
ffff000000012780:	00007470 	.word	0x00007470
ffff000000012784:	00000000 	.word	0x00000000
ffff000000012788:	7265706f 	.word	0x7265706f
ffff00000001278c:	6d6f635f 	.word	0x6d6f635f
ffff000000012790:	00007470 	.word	0x00007470
ffff000000012794:	00000000 	.word	0x00000000
ffff000000012798:	74697865 	.word	0x74697865
ffff00000001279c:	6d6f635f 	.word	0x6d6f635f
ffff0000000127a0:	00007470 	.word	0x00007470
ffff0000000127a4:	00000000 	.word	0x00000000
ffff0000000127a8:	68746957 	.word	0x68746957
ffff0000000127ac:	2074756f 	.word	0x2074756f
ffff0000000127b0:	74696e69 	.word	0x74696e69
ffff0000000127b4:	6d6f635f 	.word	0x6d6f635f
ffff0000000127b8:	75662070 	.word	0x75662070
ffff0000000127bc:	6974636e 	.word	0x6974636e
ffff0000000127c0:	00216e6f 	.word	0x00216e6f
ffff0000000127c4:	00000000 	.word	0x00000000
ffff0000000127c8:	68746957 	.word	0x68746957
ffff0000000127cc:	2074756f 	.word	0x2074756f
ffff0000000127d0:	74697865 	.word	0x74697865
ffff0000000127d4:	6d6f635f 	.word	0x6d6f635f
ffff0000000127d8:	75662070 	.word	0x75662070
ffff0000000127dc:	6974636e 	.word	0x6974636e
ffff0000000127e0:	00216e6f 	.word	0x00216e6f
ffff0000000127e4:	00000000 	.word	0x00000000
ffff0000000127e8:	6f4e0d0a 	.word	0x6f4e0d0a
ffff0000000127ec:	69662074 	.word	0x69662074
ffff0000000127f0:	0000656c 	.word	0x0000656c
ffff0000000127f4:	00000000 	.word	0x00000000
ffff0000000127f8:	63746567 	.word	0x63746567
ffff0000000127fc:	7473756c 	.word	0x7473756c
ffff000000012800:	00007265 	.word	0x00007265
ffff000000012804:	00000000 	.word	0x00000000
ffff000000012808:	64616572 	.word	0x64616572
ffff00000001280c:	6c69665f 	.word	0x6c69665f
ffff000000012810:	00665f65 	.word	0x00665f65
ffff000000012814:	00000000 	.word	0x00000000
ffff000000012818:	64616572 	.word	0x64616572
ffff00000001281c:	7269645f 	.word	0x7269645f
ffff000000012820:	00746365 	.word	0x00746365
ffff000000012824:	00000000 	.word	0x00000000
ffff000000012828:	2d2d0d0a 	.word	0x2d2d0d0a
ffff00000001282c:	2d2d2d2d 	.word	0x2d2d2d2d
ffff000000012830:	2d2d2d2d 	.word	0x2d2d2d2d
ffff000000012834:	2d2d2d2d 	.word	0x2d2d2d2d
ffff000000012838:	2d2d2d2d 	.word	0x2d2d2d2d
ffff00000001283c:	2d2d2d2d 	.word	0x2d2d2d2d
ffff000000012840:	706d6f43 	.word	0x706d6f43
ffff000000012844:	6e656e6f 	.word	0x6e656e6f
ffff000000012848:	78652074 	.word	0x78652074
ffff00000001284c:	2d2d7469 	.word	0x2d2d7469
ffff000000012850:	2d2d2d2d 	.word	0x2d2d2d2d
ffff000000012854:	2d2d2d2d 	.word	0x2d2d2d2d
ffff000000012858:	2d2d2d2d 	.word	0x2d2d2d2d
ffff00000001285c:	2d2d2d2d 	.word	0x2d2d2d2d
ffff000000012860:	2d2d2d2d 	.word	0x2d2d2d2d
ffff000000012864:	00000d0a 	.word	0x00000d0a
ffff000000012868:	63637553 	.word	0x63637553
ffff00000001286c:	20646565 	.word	0x20646565
ffff000000012870:	75206f74 	.word	0x75206f74
ffff000000012874:	6765726e 	.word	0x6765726e
ffff000000012878:	65747369 	.word	0x65747369
ffff00000001287c:	79732072 	.word	0x79732072
ffff000000012880:	6c6f626d 	.word	0x6c6f626d
ffff000000012884:	000d0a21 	.word	0x000d0a21
ffff000000012888:	7265736b 	.word	0x7265736b
ffff00000001288c:	65636976 	.word	0x65636976
ffff000000012890:	2073255f 	.word	0x2073255f
ffff000000012894:	20736177 	.word	0x20736177
ffff000000012898:	20746f6e 	.word	0x20746f6e
ffff00000001289c:	73206e69 	.word	0x73206e69
ffff0000000128a0:	6f626d79 	.word	0x6f626d79
ffff0000000128a4:	6174206c 	.word	0x6174206c
ffff0000000128a8:	21656c62 	.word	0x21656c62
ffff0000000128ac:	00000000 	.word	0x00000000
ffff0000000128b0:	6e6e6143 	.word	0x6e6e6143
ffff0000000128b4:	7220746f 	.word	0x7220746f
ffff0000000128b8:	73696765 	.word	0x73696765
ffff0000000128bc:	21726574 	.word	0x21726574
ffff0000000128c0:	65736b20 	.word	0x65736b20
ffff0000000128c4:	63697672 	.word	0x63697672
ffff0000000128c8:	73255f65 	.word	0x73255f65
ffff0000000128cc:	73616820 	.word	0x73616820
ffff0000000128d0:	69786520 	.word	0x69786520
ffff0000000128d4:	64657473 	.word	0x64657473
ffff0000000128d8:	00000021 	.word	0x00000021
ffff0000000128dc:	00000000 	.word	0x00000000
ffff0000000128e0:	7265736b 	.word	0x7265736b
ffff0000000128e4:	65636976 	.word	0x65636976
ffff0000000128e8:	0000005f 	.word	0x0000005f
ffff0000000128ec:	00000000 	.word	0x00000000
ffff0000000128f0:	69676552 	.word	0x69676552
ffff0000000128f4:	72657473 	.word	0x72657473
ffff0000000128f8:	6d6f6320 	.word	0x6d6f6320
ffff0000000128fc:	656e6f70 	.word	0x656e6f70
ffff000000012900:	6620746e 	.word	0x6620746e
ffff000000012904:	74636e75 	.word	0x74636e75
ffff000000012908:	3a6e6f69 	.word	0x3a6e6f69
ffff00000001290c:	0a732520 	.word	0x0a732520
ffff000000012910:	0000000d 	.word	0x0000000d
ffff000000012914:	00000000 	.word	0x00000000
ffff000000012918:	6e6e6143 	.word	0x6e6e6143
ffff00000001291c:	7220746f 	.word	0x7220746f
ffff000000012920:	73696765 	.word	0x73696765
ffff000000012924:	21726574 	.word	0x21726574
ffff000000012928:	6d795320 	.word	0x6d795320
ffff00000001292c:	206c6f62 	.word	0x206c6f62
ffff000000012930:	6c626174 	.word	0x6c626174
ffff000000012934:	73692065 	.word	0x73692065
ffff000000012938:	6c756620 	.word	0x6c756620
ffff00000001293c:	0000216c 	.word	0x0000216c
ffff000000012940:	20746f4e 	.word	0x20746f4e
ffff000000012944:	61746164 	.word	0x61746164
ffff000000012948:	63657320 	.word	0x63657320
ffff00000001294c:	6e6f6974 	.word	0x6e6f6974
ffff000000012950:	00000021 	.word	0x00000021
ffff000000012954:	00000000 	.word	0x00000000
ffff000000012958:	20746f4e 	.word	0x20746f4e
ffff00000001295c:	706d6f63 	.word	0x706d6f63
ffff000000012960:	74656e6f 	.word	0x74656e6f
ffff000000012964:	75732073 	.word	0x75732073
ffff000000012968:	726f7070 	.word	0x726f7070
ffff00000001296c:	68742074 	.word	0x68742074
ffff000000012970:	66207369 	.word	0x66207369
ffff000000012974:	74636e75 	.word	0x74636e75
ffff000000012978:	3a6e6f69 	.word	0x3a6e6f69
ffff00000001297c:	0a732520 	.word	0x0a732520
ffff000000012980:	0000000d 	.word	0x0000000d
ffff000000012984:	00000000 	.word	0x00000000
ffff000000012988:	64206f54 	.word	0x64206f54
ffff00000001298c:	696c206f 	.word	0x696c206f
ffff000000012990:	0d0a7473 	.word	0x0d0a7473
ffff000000012994:	00000000 	.word	0x00000000
ffff000000012998:	0d0a7325 	.word	0x0d0a7325
ffff00000001299c:	00000000 	.word	0x00000000
ffff0000000129a0:	424d5953 	.word	0x424d5953
ffff0000000129a4:	20204c4f 	.word	0x20204c4f
ffff0000000129a8:	00545854 	.word	0x00545854
ffff0000000129ac:	00000000 	.word	0x00000000
ffff0000000129b0:	6e6e6143 	.word	0x6e6e6143
ffff0000000129b4:	7220746f 	.word	0x7220746f
ffff0000000129b8:	20646165 	.word	0x20646165
ffff0000000129bc:	6e72656b 	.word	0x6e72656b
ffff0000000129c0:	73206c65 	.word	0x73206c65
ffff0000000129c4:	6f626d79 	.word	0x6f626d79
ffff0000000129c8:	0d0a2e6c 	.word	0x0d0a2e6c
ffff0000000129cc:	00000000 	.word	0x00000000
ffff0000000129d0:	6e6e6143 	.word	0x6e6e6143
ffff0000000129d4:	6620746f 	.word	0x6620746f
ffff0000000129d8:	20646e69 	.word	0x20646e69
ffff0000000129dc:	6e72656b 	.word	0x6e72656b
ffff0000000129e0:	73206c65 	.word	0x73206c65
ffff0000000129e4:	6f626d79 	.word	0x6f626d79
ffff0000000129e8:	0d0a2e6c 	.word	0x0d0a2e6c
ffff0000000129ec:	00000000 	.word	0x00000000
ffff0000000129f0:	0000203a 	.word	0x0000203a
ffff0000000129f4:	00000000 	.word	0x00000000
ffff0000000129f8:	00000d0a 	.word	0x00000d0a
ffff0000000129fc:	00000000 	.word	0x00000000
ffff000000012a00:	20746f4e 	.word	0x20746f4e
ffff000000012a04:	70707573 	.word	0x70707573
ffff000000012a08:	2074726f 	.word	0x2074726f
ffff000000012a0c:	74207825 	.word	0x74207825
ffff000000012a10:	20657079 	.word	0x20657079
ffff000000012a14:	46206e69 	.word	0x46206e69
ffff000000012a18:	20656c69 	.word	0x20656c69
ffff000000012a1c:	74737973 	.word	0x74737973
ffff000000012a20:	00006d65 	.word	0x00006d65
ffff000000012a24:	00000000 	.word	0x00000000
ffff000000012a28:	6f4e0d0a 	.word	0x6f4e0d0a
ffff000000012a2c:	69662074 	.word	0x69662074
ffff000000012a30:	0000656c 	.word	0x0000656c
ffff000000012a34:	00000000 	.word	0x00000000
ffff000000012a38:	7474410a 	.word	0x7474410a
ffff000000012a3c:	20626972 	.word	0x20626972
ffff000000012a40:	657a6953 	.word	0x657a6953
ffff000000012a44:	20202020 	.word	0x20202020
ffff000000012a48:	756c4320 	.word	0x756c4320
ffff000000012a4c:	72657473 	.word	0x72657473
ffff000000012a50:	614e2020 	.word	0x614e2020
ffff000000012a54:	000a656d 	.word	0x000a656d
ffff000000012a58:	0000000a 	.word	0x0000000a
ffff000000012a5c:	00000000 	.word	0x00000000
ffff000000012a60:	00000d0a 	.word	0x00000d0a
ffff000000012a64:	00000000 	.word	0x00000000
ffff000000012a68:	20746f4e 	.word	0x20746f4e
ffff000000012a6c:	70707573 	.word	0x70707573
ffff000000012a70:	2074726f 	.word	0x2074726f
ffff000000012a74:	74207825 	.word	0x74207825
ffff000000012a78:	20657079 	.word	0x20657079
ffff000000012a7c:	46206e69 	.word	0x46206e69
ffff000000012a80:	20656c69 	.word	0x20656c69
ffff000000012a84:	74737973 	.word	0x74737973
ffff000000012a88:	00006d65 	.word	0x00006d65
ffff000000012a8c:	00000000 	.word	0x00000000
ffff000000012a90:	72657355 	.word	0x72657355
ffff000000012a94:	70706120 	.word	0x70706120
ffff000000012a98:	6163696c 	.word	0x6163696c
ffff000000012a9c:	6e6f6974 	.word	0x6e6f6974
ffff000000012aa0:	6572203a 	.word	0x6572203a
ffff000000012aa4:	66206461 	.word	0x66206461
ffff000000012aa8:	20656c69 	.word	0x20656c69
ffff000000012aac:	0a214b4f 	.word	0x0a214b4f
ffff000000012ab0:	0000000d 	.word	0x0000000d
ffff000000012ab4:	00000000 	.word	0x00000000
ffff000000012ab8:	6f4e0d0a 	.word	0x6f4e0d0a
ffff000000012abc:	69662074 	.word	0x69662074
ffff000000012ac0:	0000656c 	.word	0x0000656c
ffff000000012ac4:	00000000 	.word	0x00000000
ffff000000012ac8:	6f727265 	.word	0x6f727265
ffff000000012acc:	6c632072 	.word	0x6c632072
ffff000000012ad0:	20656e6f 	.word	0x20656e6f
ffff000000012ad4:	67616c66 	.word	0x67616c66
ffff000000012ad8:	00000d0a 	.word	0x00000d0a
ffff000000012adc:	00000000 	.word	0x00000000
ffff000000012ae0:	6f4e0d0a 	.word	0x6f4e0d0a
ffff000000012ae4:	6e6b2074 	.word	0x6e6b2074
ffff000000012ae8:	7420776f 	.word	0x7420776f
ffff000000012aec:	20736968 	.word	0x20736968
ffff000000012af0:	656c6966 	.word	0x656c6966
ffff000000012af4:	00000021 	.word	0x00000021
ffff000000012af8:	20746f4e 	.word	0x20746f4e
ffff000000012afc:	70707573 	.word	0x70707573
ffff000000012b00:	2074726f 	.word	0x2074726f
ffff000000012b04:	74207825 	.word	0x74207825
ffff000000012b08:	20657079 	.word	0x20657079
ffff000000012b0c:	46206e69 	.word	0x46206e69
ffff000000012b10:	20656c69 	.word	0x20656c69
ffff000000012b14:	74737973 	.word	0x74737973
ffff000000012b18:	00006d65 	.word	0x00006d65
ffff000000012b1c:	00000000 	.word	0x00000000
ffff000000012b20:	746f6f72 	.word	0x746f6f72
	...

Disassembly of section .data:

ffff000000012b28 <entry_error_messages>:
ffff000000012b28:	00011b08 	.word	0x00011b08
ffff000000012b2c:	ffff0000 	.word	0xffff0000
ffff000000012b30:	00011b20 	.word	0x00011b20
ffff000000012b34:	ffff0000 	.word	0xffff0000
ffff000000012b38:	00011b38 	.word	0x00011b38
ffff000000012b3c:	ffff0000 	.word	0xffff0000
ffff000000012b40:	00011b50 	.word	0x00011b50
ffff000000012b44:	ffff0000 	.word	0xffff0000
ffff000000012b48:	00011b68 	.word	0x00011b68
ffff000000012b4c:	ffff0000 	.word	0xffff0000
ffff000000012b50:	00011b80 	.word	0x00011b80
ffff000000012b54:	ffff0000 	.word	0xffff0000
ffff000000012b58:	00011b98 	.word	0x00011b98
ffff000000012b5c:	ffff0000 	.word	0xffff0000
ffff000000012b60:	00011bb0 	.word	0x00011bb0
ffff000000012b64:	ffff0000 	.word	0xffff0000
ffff000000012b68:	00011bc8 	.word	0x00011bc8
ffff000000012b6c:	ffff0000 	.word	0xffff0000
ffff000000012b70:	00011be0 	.word	0x00011be0
ffff000000012b74:	ffff0000 	.word	0xffff0000
ffff000000012b78:	00011bf8 	.word	0x00011bf8
ffff000000012b7c:	ffff0000 	.word	0xffff0000
ffff000000012b80:	00011c10 	.word	0x00011c10
ffff000000012b84:	ffff0000 	.word	0xffff0000
ffff000000012b88:	00011c28 	.word	0x00011c28
ffff000000012b8c:	ffff0000 	.word	0xffff0000
ffff000000012b90:	00011c40 	.word	0x00011c40
ffff000000012b94:	ffff0000 	.word	0xffff0000
ffff000000012b98:	00011c58 	.word	0x00011c58
ffff000000012b9c:	ffff0000 	.word	0xffff0000
ffff000000012ba0:	00011c70 	.word	0x00011c70
ffff000000012ba4:	ffff0000 	.word	0xffff0000
ffff000000012ba8:	00011c88 	.word	0x00011c88
ffff000000012bac:	ffff0000 	.word	0xffff0000
ffff000000012bb0:	00011c98 	.word	0x00011c98
ffff000000012bb4:	ffff0000 	.word	0xffff0000

ffff000000012bb8 <init_priority>:
ffff000000012bb8:	0000000f 	.word	0x0000000f
ffff000000012bbc:	00000000 	.word	0x00000000

ffff000000012bc0 <init_task_0>:
ffff000000012bc0:	000133d0 	.word	0x000133d0
ffff000000012bc4:	ffff0000 	.word	0xffff0000
ffff000000012bc8:	00013438 	.word	0x00013438
ffff000000012bcc:	ffff0000 	.word	0xffff0000
ffff000000012bd0:	00013440 	.word	0x00013440
ffff000000012bd4:	ffff0000 	.word	0xffff0000
ffff000000012bd8:	00012bb8 	.word	0x00012bb8
ffff000000012bdc:	ffff0000 	.word	0xffff0000
ffff000000012be0:	00013448 	.word	0x00013448
ffff000000012be4:	ffff0000 	.word	0xffff0000
ffff000000012be8:	00013450 	.word	0x00013450
ffff000000012bec:	ffff0000 	.word	0xffff0000
ffff000000012bf0:	00013458 	.word	0x00013458
ffff000000012bf4:	ffff0000 	.word	0xffff0000
	...

ffff000000012d40 <init_task_1>:
ffff000000012d40:	000133d0 	.word	0x000133d0
ffff000000012d44:	ffff0000 	.word	0xffff0000
ffff000000012d48:	00013438 	.word	0x00013438
ffff000000012d4c:	ffff0000 	.word	0xffff0000
ffff000000012d50:	00013440 	.word	0x00013440
ffff000000012d54:	ffff0000 	.word	0xffff0000
ffff000000012d58:	00012bb8 	.word	0x00012bb8
ffff000000012d5c:	ffff0000 	.word	0xffff0000
ffff000000012d60:	00013448 	.word	0x00013448
ffff000000012d64:	ffff0000 	.word	0xffff0000
ffff000000012d68:	00013450 	.word	0x00013450
ffff000000012d6c:	ffff0000 	.word	0xffff0000
ffff000000012d70:	00013458 	.word	0x00013458
ffff000000012d74:	ffff0000 	.word	0xffff0000
	...

ffff000000012ec0 <current>:
ffff000000012ec0:	00012bc0 	.word	0x00012bc0
ffff000000012ec4:	ffff0000 	.word	0xffff0000

ffff000000012ec8 <task_prio_table>:
ffff000000012ec8:	00012bc0 	.word	0x00012bc0
ffff000000012ecc:	ffff0000 	.word	0xffff0000
ffff000000012ed0:	00012d40 	.word	0x00012d40
ffff000000012ed4:	ffff0000 	.word	0xffff0000

ffff000000012ed8 <head>:
ffff000000012ed8:	00012bc0 	.word	0x00012bc0
ffff000000012edc:	ffff0000 	.word	0xffff0000
ffff000000012ee0:	00012d40 	.word	0x00012d40
ffff000000012ee4:	ffff0000 	.word	0xffff0000

ffff000000012ee8 <ind>:
ffff000000012ee8:	00000001 	.word	0x00000001
ffff000000012eec:	00000000 	.word	0x00000000

ffff000000012ef0 <sdCommandTable>:
ffff000000012ef0:	495f4f47 	.word	0x495f4f47
ffff000000012ef4:	5f454c44 	.word	0x5f454c44
ffff000000012ef8:	54415453 	.word	0x54415453
ffff000000012efc:	00000045 	.word	0x00000045
	...
ffff000000012f08:	5f4c4c41 	.word	0x5f4c4c41
ffff000000012f0c:	444e4553 	.word	0x444e4553
ffff000000012f10:	4449435f 	.word	0x4449435f
ffff000000012f14:	00000000 	.word	0x00000000
ffff000000012f18:	02010000 	.word	0x02010000
ffff000000012f1c:	00000000 	.word	0x00000000
ffff000000012f20:	444e4553 	.word	0x444e4553
ffff000000012f24:	4c45525f 	.word	0x4c45525f
ffff000000012f28:	4444415f 	.word	0x4444415f
ffff000000012f2c:	00000052 	.word	0x00000052
ffff000000012f30:	03020000 	.word	0x03020000
ffff000000012f34:	00000000 	.word	0x00000000
ffff000000012f38:	5f544553 	.word	0x5f544553
ffff000000012f3c:	00525344 	.word	0x00525344
	...
ffff000000012f48:	04000000 	.word	0x04000000
ffff000000012f4c:	00000000 	.word	0x00000000
ffff000000012f50:	54495753 	.word	0x54495753
ffff000000012f54:	465f4843 	.word	0x465f4843
ffff000000012f58:	00434e55 	.word	0x00434e55
ffff000000012f5c:	00000000 	.word	0x00000000
ffff000000012f60:	06020000 	.word	0x06020000
ffff000000012f64:	00000000 	.word	0x00000000
ffff000000012f68:	44524143 	.word	0x44524143
ffff000000012f6c:	4c45535f 	.word	0x4c45535f
ffff000000012f70:	00544345 	.word	0x00544345
ffff000000012f74:	00000000 	.word	0x00000000
ffff000000012f78:	07030000 	.word	0x07030000
ffff000000012f7c:	00000001 	.word	0x00000001
ffff000000012f80:	444e4553 	.word	0x444e4553
ffff000000012f84:	5f46495f 	.word	0x5f46495f
ffff000000012f88:	444e4f43 	.word	0x444e4f43
ffff000000012f8c:	00000000 	.word	0x00000000
ffff000000012f90:	08020000 	.word	0x08020000
ffff000000012f94:	00640000 	.word	0x00640000
ffff000000012f98:	444e4553 	.word	0x444e4553
ffff000000012f9c:	4453435f 	.word	0x4453435f
	...
ffff000000012fa8:	09010000 	.word	0x09010000
ffff000000012fac:	00000001 	.word	0x00000001
ffff000000012fb0:	444e4553 	.word	0x444e4553
ffff000000012fb4:	4449435f 	.word	0x4449435f
	...
ffff000000012fc0:	0a010000 	.word	0x0a010000
ffff000000012fc4:	00000001 	.word	0x00000001
ffff000000012fc8:	544c4f56 	.word	0x544c4f56
ffff000000012fcc:	4957535f 	.word	0x4957535f
ffff000000012fd0:	00484354 	.word	0x00484354
ffff000000012fd4:	00000000 	.word	0x00000000
ffff000000012fd8:	0b020000 	.word	0x0b020000
ffff000000012fdc:	00000000 	.word	0x00000000
ffff000000012fe0:	504f5453 	.word	0x504f5453
ffff000000012fe4:	4152545f 	.word	0x4152545f
ffff000000012fe8:	0000534e 	.word	0x0000534e
ffff000000012fec:	00000000 	.word	0x00000000
ffff000000012ff0:	0c030000 	.word	0x0c030000
ffff000000012ff4:	00000000 	.word	0x00000000
ffff000000012ff8:	444e4553 	.word	0x444e4553
ffff000000012ffc:	4154535f 	.word	0x4154535f
ffff000000013000:	00535554 	.word	0x00535554
ffff000000013004:	00000000 	.word	0x00000000
ffff000000013008:	0d020000 	.word	0x0d020000
ffff00000001300c:	00000001 	.word	0x00000001
ffff000000013010:	495f4f47 	.word	0x495f4f47
ffff000000013014:	5443414e 	.word	0x5443414e
ffff000000013018:	00455649 	.word	0x00455649
ffff00000001301c:	00000000 	.word	0x00000000
ffff000000013020:	0f000000 	.word	0x0f000000
ffff000000013024:	00000001 	.word	0x00000001
ffff000000013028:	5f544553 	.word	0x5f544553
ffff00000001302c:	434f4c42 	.word	0x434f4c42
ffff000000013030:	4e454c4b 	.word	0x4e454c4b
ffff000000013034:	00000000 	.word	0x00000000
ffff000000013038:	10020000 	.word	0x10020000
ffff00000001303c:	00000000 	.word	0x00000000
ffff000000013040:	44414552 	.word	0x44414552
ffff000000013044:	4e49535f 	.word	0x4e49535f
ffff000000013048:	00454c47 	.word	0x00454c47
ffff00000001304c:	00000000 	.word	0x00000000
ffff000000013050:	11220010 	.word	0x11220010
ffff000000013054:	00000000 	.word	0x00000000
ffff000000013058:	44414552 	.word	0x44414552
ffff00000001305c:	4c554d5f 	.word	0x4c554d5f
ffff000000013060:	00004954 	.word	0x00004954
ffff000000013064:	00000000 	.word	0x00000000
ffff000000013068:	12220032 	.word	0x12220032
ffff00000001306c:	00000000 	.word	0x00000000
ffff000000013070:	444e4553 	.word	0x444e4553
ffff000000013074:	4e55545f 	.word	0x4e55545f
ffff000000013078:	00474e49 	.word	0x00474e49
ffff00000001307c:	00000000 	.word	0x00000000
ffff000000013080:	13020000 	.word	0x13020000
ffff000000013084:	00000000 	.word	0x00000000
ffff000000013088:	45455053 	.word	0x45455053
ffff00000001308c:	4c435f44 	.word	0x4c435f44
ffff000000013090:	00535341 	.word	0x00535341
ffff000000013094:	00000000 	.word	0x00000000
ffff000000013098:	14030000 	.word	0x14030000
ffff00000001309c:	00000000 	.word	0x00000000
ffff0000000130a0:	5f544553 	.word	0x5f544553
ffff0000000130a4:	434f4c42 	.word	0x434f4c42
ffff0000000130a8:	544e434b 	.word	0x544e434b
ffff0000000130ac:	00000000 	.word	0x00000000
ffff0000000130b0:	17020000 	.word	0x17020000
ffff0000000130b4:	00000000 	.word	0x00000000
ffff0000000130b8:	54495257 	.word	0x54495257
ffff0000000130bc:	49535f45 	.word	0x49535f45
ffff0000000130c0:	454c474e 	.word	0x454c474e
ffff0000000130c4:	00000000 	.word	0x00000000
ffff0000000130c8:	18220000 	.word	0x18220000
ffff0000000130cc:	00000000 	.word	0x00000000
ffff0000000130d0:	54495257 	.word	0x54495257
ffff0000000130d4:	554d5f45 	.word	0x554d5f45
ffff0000000130d8:	0049544c 	.word	0x0049544c
ffff0000000130dc:	00000000 	.word	0x00000000
ffff0000000130e0:	19220022 	.word	0x19220022
ffff0000000130e4:	00000000 	.word	0x00000000
ffff0000000130e8:	474f5250 	.word	0x474f5250
ffff0000000130ec:	5f4d4152 	.word	0x5f4d4152
ffff0000000130f0:	00445343 	.word	0x00445343
ffff0000000130f4:	00000000 	.word	0x00000000
ffff0000000130f8:	1b020000 	.word	0x1b020000
ffff0000000130fc:	00000000 	.word	0x00000000
ffff000000013100:	5f544553 	.word	0x5f544553
ffff000000013104:	54495257 	.word	0x54495257
ffff000000013108:	52505f45 	.word	0x52505f45
ffff00000001310c:	00000000 	.word	0x00000000
ffff000000013110:	1c030000 	.word	0x1c030000
ffff000000013114:	00000000 	.word	0x00000000
ffff000000013118:	5f524c43 	.word	0x5f524c43
ffff00000001311c:	54495257 	.word	0x54495257
ffff000000013120:	52505f45 	.word	0x52505f45
ffff000000013124:	00000000 	.word	0x00000000
ffff000000013128:	1d030000 	.word	0x1d030000
ffff00000001312c:	00000000 	.word	0x00000000
ffff000000013130:	5f444e53 	.word	0x5f444e53
ffff000000013134:	54495257 	.word	0x54495257
ffff000000013138:	52505f45 	.word	0x52505f45
ffff00000001313c:	00000000 	.word	0x00000000
ffff000000013140:	1e020000 	.word	0x1e020000
ffff000000013144:	00000000 	.word	0x00000000
ffff000000013148:	53415245 	.word	0x53415245
ffff00000001314c:	52575f45 	.word	0x52575f45
ffff000000013150:	0054535f 	.word	0x0054535f
ffff000000013154:	00000000 	.word	0x00000000
ffff000000013158:	20020000 	.word	0x20020000
ffff00000001315c:	00000000 	.word	0x00000000
ffff000000013160:	53415245 	.word	0x53415245
ffff000000013164:	52575f45 	.word	0x52575f45
ffff000000013168:	444e455f 	.word	0x444e455f
ffff00000001316c:	00000000 	.word	0x00000000
ffff000000013170:	21020000 	.word	0x21020000
ffff000000013174:	00000000 	.word	0x00000000
ffff000000013178:	53415245 	.word	0x53415245
ffff00000001317c:	00000045 	.word	0x00000045
	...
ffff000000013188:	26030000 	.word	0x26030000
ffff00000001318c:	00000000 	.word	0x00000000
ffff000000013190:	4b434f4c 	.word	0x4b434f4c
ffff000000013194:	4c4e555f 	.word	0x4c4e555f
ffff000000013198:	004b434f 	.word	0x004b434f
ffff00000001319c:	00000000 	.word	0x00000000
ffff0000000131a0:	2a020000 	.word	0x2a020000
ffff0000000131a4:	00000000 	.word	0x00000000
ffff0000000131a8:	5f505041 	.word	0x5f505041
ffff0000000131ac:	00444d43 	.word	0x00444d43
	...
ffff0000000131b8:	37000000 	.word	0x37000000
ffff0000000131bc:	00640000 	.word	0x00640000
ffff0000000131c0:	5f505041 	.word	0x5f505041
ffff0000000131c4:	00444d43 	.word	0x00444d43
	...
ffff0000000131d0:	37020000 	.word	0x37020000
ffff0000000131d4:	00000001 	.word	0x00000001
ffff0000000131d8:	5f4e4547 	.word	0x5f4e4547
ffff0000000131dc:	00444d43 	.word	0x00444d43
	...
ffff0000000131e8:	38020000 	.word	0x38020000
ffff0000000131ec:	00000000 	.word	0x00000000
ffff0000000131f0:	5f544553 	.word	0x5f544553
ffff0000000131f4:	5f535542 	.word	0x5f535542
ffff0000000131f8:	54444957 	.word	0x54444957
ffff0000000131fc:	00000048 	.word	0x00000048
ffff000000013200:	06020000 	.word	0x06020000
ffff000000013204:	00000000 	.word	0x00000000
ffff000000013208:	535f4453 	.word	0x535f4453
ffff00000001320c:	55544154 	.word	0x55544154
ffff000000013210:	00000053 	.word	0x00000053
ffff000000013214:	00000000 	.word	0x00000000
ffff000000013218:	0d020000 	.word	0x0d020000
ffff00000001321c:	00000001 	.word	0x00000001
ffff000000013220:	444e4553 	.word	0x444e4553
ffff000000013224:	4d554e5f 	.word	0x4d554e5f
ffff000000013228:	4252575f 	.word	0x4252575f
ffff00000001322c:	0000004c 	.word	0x0000004c
ffff000000013230:	16020000 	.word	0x16020000
ffff000000013234:	00000000 	.word	0x00000000
ffff000000013238:	444e4553 	.word	0x444e4553
ffff00000001323c:	4d554e5f 	.word	0x4d554e5f
ffff000000013240:	5352455f 	.word	0x5352455f
ffff000000013244:	00000000 	.word	0x00000000
ffff000000013248:	17020000 	.word	0x17020000
ffff00000001324c:	00000000 	.word	0x00000000
ffff000000013250:	535f4453 	.word	0x535f4453
ffff000000013254:	4f444e45 	.word	0x4f444e45
ffff000000013258:	4e4f4350 	.word	0x4e4f4350
ffff00000001325c:	00000044 	.word	0x00000044
ffff000000013260:	29020000 	.word	0x29020000
ffff000000013264:	03e80000 	.word	0x03e80000
ffff000000013268:	5f544553 	.word	0x5f544553
ffff00000001326c:	5f524c43 	.word	0x5f524c43
ffff000000013270:	00544544 	.word	0x00544544
ffff000000013274:	00000000 	.word	0x00000000
ffff000000013278:	2a020000 	.word	0x2a020000
ffff00000001327c:	00000000 	.word	0x00000000
ffff000000013280:	444e4553 	.word	0x444e4553
ffff000000013284:	5243535f 	.word	0x5243535f
	...
ffff000000013290:	33220010 	.word	0x33220010
ffff000000013294:	00000000 	.word	0x00000000

ffff000000013298 <ksym_index>:
ffff000000013298:	0000001a 	.word	0x0000001a
ffff00000001329c:	00000000 	.word	0x00000000

ffff0000000132a0 <kdirectory>:
ffff0000000132a0:	746f6f72 	.word	0x746f6f72
	...

ffff0000000132c0 <cd_rem>:
ffff0000000132c0:	ffffffff 	.word	0xffffffff

Disassembly of section .bss:

ffff0000000132c8 <bss_begin>:
	...

ffff0000000133c8 <read_mail_index.1588>:
	...

ffff0000000133d0 <init_cpu>:
	...

ffff000000013438 <init_state>:
	...

ffff000000013440 <init_counter>:
	...

ffff000000013448 <init_preempt_count>:
	...

ffff000000013450 <init_flags>:
	...

ffff000000013458 <init_mm>:
	...

ffff0000000135f0 <nr_tasks>:
ffff0000000135f0:	00000000 	.word	0x00000000

ffff0000000135f4 <next>:
ffff0000000135f4:	00000000 	.word	0x00000000

ffff0000000135f8 <index.1216>:
ffff0000000135f8:	00000000 	.word	0x00000000

ffff0000000135fc <flag.1240>:
ffff0000000135fc:	00000000 	.word	0x00000000

ffff000000013600 <ipc_index_pop>:
	...

ffff000000013608 <pm_mail>:
	...

ffff000000013c08 <rendezvous>:
	...

ffff000000013c20 <index_push>:
ffff000000013c20:	00000000 	.word	0x00000000

ffff000000013c24 <index_pop>:
ffff000000013c24:	00000000 	.word	0x00000000

ffff000000013c28 <curVal>:
	...

ffff000000013c30 <mem_map>:
	...

ffff000000091430 <flag.1152>:
ffff000000091430:	00000000 	.word	0x00000000

ffff000000091434 <index.1151>:
ffff000000091434:	00000000 	.word	0x00000000

ffff000000091438 <lock.1163>:
	...

ffff000000091458 <stdout_putf>:
	...

ffff000000091460 <stdout_putp>:
	...

ffff000000091468 <ipc_index_push>:
	...

ffff000000091470 <LOG_ERROR>:
	...

ffff000000091478 <sdCard>:
	...

ffff0000000914f0 <intSearchRecord>:
	...

ffff000000092130 <intFileIORecord>:
	...

ffff000000093a10 <opera_addr>:
ffff000000093a10:	00000000 	.word	0x00000000

ffff000000093a14 <rmcom_addr>:
ffff000000093a14:	00000000 	.word	0x00000000

ffff000000093a18 <comp_start>:
	...

ffff000000093a20 <map_index>:
	...

ffff000000093a28 <tid>:
	...

ffff000000093a30 <thread_id_table>:
	...

ffff00000009ba30 <sd_p>:
	...

ffff00000009ba60 <partition>:
	...

ffff00000009bbb0 <file_dir>:
	...

ffff00000009bde0 <dir>:
	...

ffff00000009bde8 <fs_support>:
	...

ffff00000009bfe8 <task>:
	...

ffff00000009c1e8 <origin>:
	...

ffff00000009c1f0 <prev_childregs>:
	...

ffff00000009c1f8 <page_prev>:
	...

ffff00000009c200 <prev_real_regs>:
	...

ffff00000009c208 <page_prev_mm>:
	...

ffff00000009c218 <page_next>:
	...

ffff00000009c220 <next_real_regs>:
	...

ffff00000009c228 <page_next_mm>:
	...

ffff00000009c238 <prev_real>:
	...

ffff00000009c240 <next_real>:
	...

ffff00000009c248 <prev>:
	...

ffff00000009c250 <init_page>:
	...

ffff00000009c258 <next_childregs>:
	...

ffff00000009c260 <user_ipc_mail>:
	...

ffff00000009c860 <fat_addr>:
	...

ffff00000009c868 <user_page_start>:
	...

ffff00000009c870 <sd_ocr>:
	...

ffff00000009c878 <sd_err>:
	...

ffff00000009c880 <sd_rca>:
	...

ffff00000009c888 <sd_scr>:
	...

ffff00000009c898 <sd_hv>:
	...

ffff00000009c8a0 <cfile>:
	...

ffff00000009cba0 <text_function>:
	...

ffff00000009cce0 <ksym>:
	...

ffff00000009d6e0 <move_sec>:
	...

ffff00000009d788 <compt_filename>:
	...

ffff00000009d790 <map_array>:
	...

Disassembly of section .data.pgd:

ffff00000009f000 <pg_dir>:
	...

Disassembly of section .comment:

0000000000000000 <.comment>:
   0:	3a434347 	ccmn	w26, w3, #0x7, mi
   4:	62552820 	.inst	0x62552820 ; undefined
   8:	75746e75 	.inst	0x75746e75 ; undefined
   c:	6e694c2f 	uqshl	v15.8h, v1.8h, v9.8h
  10:	206f7261 	.inst	0x206f7261 ; undefined
  14:	2e342e35 	uqsub	v21.8b, v17.8b, v20.8b
  18:	75362d30 	.inst	0x75362d30 ; undefined
  1c:	746e7562 	.inst	0x746e7562 ; undefined
  20:	317e3175 	adds	w21, w11, #0xf8c, lsl #12
  24:	34302e36 	cbz	w22, 605e8 <SYS_FSCANF_NUMBER+0x605cb>
  28:	2029392e 	.inst	0x2029392e ; undefined
  2c:	2e342e35 	uqsub	v21.8b, v17.8b, v20.8b
  30:	30322030 	adr	x16, 64435 <SYS_FSCANF_NUMBER+0x64418>
  34:	36303631 	tbz	w17, #6, 6f8 <SYS_FSCANF_NUMBER+0x6db>
  38:	Address 0x0000000000000038 is out of bounds.

